SF:/Volumes/Macintosh_HD/Users/user298993/Documents/GitHub/bank-statement-fidelity-editor/src/ai/backend.rs
FN:178,_RNCNvMs_NtNtCshN9TtrzEz6i_22dual_core_pdf_pipeline2ai7backendNtB6_9AiBackend28verify_statement_mathematics0Cs9eug7EGnCUa_16ai_backend_tests
FN:62,_RNCNvMNtNtCshN9TtrzEz6i_22dual_core_pdf_pipeline2ai7backendNtB4_9AiBackend21from_app_config_async0B8_
FN:178,_RNCNvMs_NtNtCshN9TtrzEz6i_22dual_core_pdf_pipeline2ai7backendNtB6_9AiBackend28verify_statement_mathematics0Ba_
FN:227,_RNCNvMs_NtNtCshN9TtrzEz6i_22dual_core_pdf_pipeline2ai7backendNtB6_9AiBackend29repair_extracted_transactions0Ba_
FN:24,_RNvMNtNtCshN9TtrzEz6i_22dual_core_pdf_pipeline2ai7backendNtB2_9AiBackend15from_app_config
FN:62,_RNvMNtNtCshN9TtrzEz6i_22dual_core_pdf_pipeline2ai7backendNtB2_9AiBackend21from_app_config_async
FN:91,_RNvMNtNtCshN9TtrzEz6i_22dual_core_pdf_pipeline2ai7backendNtB2_9AiBackend4ping
FN:53,_RNvMNtNtCshN9TtrzEz6i_22dual_core_pdf_pipeline2ai7backendNtB2_9AiBackend8new_mock
FN:212,_RNvMs_NtNtCshN9TtrzEz6i_22dual_core_pdf_pipeline2ai7backendNtB4_9AiBackend20verify_transfer_math
FN:183,_RNvMs_NtNtCshN9TtrzEz6i_22dual_core_pdf_pipeline2ai7backendNtB4_9AiBackend24validate_render_visually
FN:199,_RNvMs_NtNtCshN9TtrzEz6i_22dual_core_pdf_pipeline2ai7backendNtB4_9AiBackend25plan_transaction_transfer
FN:155,_RNvMs_NtNtCshN9TtrzEz6i_22dual_core_pdf_pipeline2ai7backendNtB4_9AiBackend27propose_balance_adjustments
FN:164,_RNvMs_NtNtCshN9TtrzEz6i_22dual_core_pdf_pipeline2ai7backendNtB4_9AiBackend27validate_parse_completeness
FN:174,_RNvMs_NtNtCshN9TtrzEz6i_22dual_core_pdf_pipeline2ai7backendNtB4_9AiBackend28verify_statement_mathematics
FN:220,_RNvMs_NtNtCshN9TtrzEz6i_22dual_core_pdf_pipeline2ai7backendNtB4_9AiBackend29repair_extracted_transactions
FN:91,_RNCNvMNtNtCshN9TtrzEz6i_22dual_core_pdf_pipeline2ai7backendNtB4_9AiBackend4ping0B8_
FN:216,_RNCNvMs_NtNtCshN9TtrzEz6i_22dual_core_pdf_pipeline2ai7backendNtB6_9AiBackend20verify_transfer_math0Ba_
FN:187,_RNCNvMs_NtNtCshN9TtrzEz6i_22dual_core_pdf_pipeline2ai7backendNtB6_9AiBackend24validate_render_visually0Ba_
FN:204,_RNCNvMs_NtNtCshN9TtrzEz6i_22dual_core_pdf_pipeline2ai7backendNtB6_9AiBackend25plan_transaction_transfer0Ba_
FN:160,_RNCNvMs_NtNtCshN9TtrzEz6i_22dual_core_pdf_pipeline2ai7backendNtB6_9AiBackend27propose_balance_adjustments0Ba_
FN:170,_RNCNvMs_NtNtCshN9TtrzEz6i_22dual_core_pdf_pipeline2ai7backendNtB6_9AiBackend27validate_parse_completeness0Ba_
FN:62,_RNCNvMNtNtCshN9TtrzEz6i_22dual_core_pdf_pipeline2ai7backendNtB4_9AiBackend21from_app_config_async0Csf6zF57cabuO_20ai_document_ai_tests
FN:227,_RNCNvMs_NtNtCshN9TtrzEz6i_22dual_core_pdf_pipeline2ai7backendNtB6_9AiBackend29repair_extracted_transactions0Csf6zF57cabuO_20ai_document_ai_tests
FN:62,_RNCNvMNtNtCshN9TtrzEz6i_22dual_core_pdf_pipeline2ai7backendNtB4_9AiBackend21from_app_config_async0CshaMNJSpjAve_7ai_live
FN:227,_RNCNvMs_NtNtCshN9TtrzEz6i_22dual_core_pdf_pipeline2ai7backendNtB6_9AiBackend29repair_extracted_transactions0CshaMNJSpjAve_7ai_live
FN:227,_RNCNvMs_NtNtCshN9TtrzEz6i_22dual_core_pdf_pipeline2ai7backendNtB6_9AiBackend29repair_extracted_transactions0Cs1dXm4FxIgQC_13ai_loop_tests
FN:227,_RNCNvMs_NtNtCshN9TtrzEz6i_22dual_core_pdf_pipeline2ai7backendNtB6_9AiBackend29repair_extracted_transactions0Cs8rgthVp5iEY_11chaos_tests
FN:62,_RNCNvMNtNtCsdGsEM3RpwG4_22dual_core_pdf_pipeline2ai7backendNtB4_9AiBackend21from_app_config_async0B8_
FN:91,_RNCNvMNtNtCsdGsEM3RpwG4_22dual_core_pdf_pipeline2ai7backendNtB4_9AiBackend4ping0B8_
FN:216,_RNCNvMs_NtNtCsdGsEM3RpwG4_22dual_core_pdf_pipeline2ai7backendNtB6_9AiBackend20verify_transfer_math0Ba_
FN:187,_RNCNvMs_NtNtCsdGsEM3RpwG4_22dual_core_pdf_pipeline2ai7backendNtB6_9AiBackend24validate_render_visually0Ba_
FN:204,_RNCNvMs_NtNtCsdGsEM3RpwG4_22dual_core_pdf_pipeline2ai7backendNtB6_9AiBackend25plan_transaction_transfer0Ba_
FN:160,_RNCNvMs_NtNtCsdGsEM3RpwG4_22dual_core_pdf_pipeline2ai7backendNtB6_9AiBackend27propose_balance_adjustments0Ba_
FN:170,_RNCNvMs_NtNtCsdGsEM3RpwG4_22dual_core_pdf_pipeline2ai7backendNtB6_9AiBackend27validate_parse_completeness0Ba_
FN:178,_RNCNvMs_NtNtCsdGsEM3RpwG4_22dual_core_pdf_pipeline2ai7backendNtB6_9AiBackend28verify_statement_mathematics0Ba_
FN:227,_RNCNvMs_NtNtCsdGsEM3RpwG4_22dual_core_pdf_pipeline2ai7backendNtB6_9AiBackend29repair_extracted_transactions0Ba_
FN:24,_RNvMNtNtCsdGsEM3RpwG4_22dual_core_pdf_pipeline2ai7backendNtB2_9AiBackend15from_app_config
FN:62,_RNvMNtNtCsdGsEM3RpwG4_22dual_core_pdf_pipeline2ai7backendNtB2_9AiBackend21from_app_config_async
FN:91,_RNvMNtNtCsdGsEM3RpwG4_22dual_core_pdf_pipeline2ai7backendNtB2_9AiBackend4ping
FN:53,_RNvMNtNtCsdGsEM3RpwG4_22dual_core_pdf_pipeline2ai7backendNtB2_9AiBackend8new_mock
FN:212,_RNvMs_NtNtCsdGsEM3RpwG4_22dual_core_pdf_pipeline2ai7backendNtB4_9AiBackend20verify_transfer_math
FN:183,_RNvMs_NtNtCsdGsEM3RpwG4_22dual_core_pdf_pipeline2ai7backendNtB4_9AiBackend24validate_render_visually
FN:199,_RNvMs_NtNtCsdGsEM3RpwG4_22dual_core_pdf_pipeline2ai7backendNtB4_9AiBackend25plan_transaction_transfer
FN:155,_RNvMs_NtNtCsdGsEM3RpwG4_22dual_core_pdf_pipeline2ai7backendNtB4_9AiBackend27propose_balance_adjustments
FN:164,_RNvMs_NtNtCsdGsEM3RpwG4_22dual_core_pdf_pipeline2ai7backendNtB4_9AiBackend27validate_parse_completeness
FN:174,_RNvMs_NtNtCsdGsEM3RpwG4_22dual_core_pdf_pipeline2ai7backendNtB4_9AiBackend28verify_statement_mathematics
FN:220,_RNvMs_NtNtCsdGsEM3RpwG4_22dual_core_pdf_pipeline2ai7backendNtB4_9AiBackend29repair_extracted_transactions
FN:62,_RNCNvMNtNtCshN9TtrzEz6i_22dual_core_pdf_pipeline2ai7backendNtB4_9AiBackend21from_app_config_async0CseEmI1GKjWjI_22engine_statement_tests
FN:160,_RNCNvMs_NtNtCshN9TtrzEz6i_22dual_core_pdf_pipeline2ai7backendNtB6_9AiBackend27propose_balance_adjustments0CseEmI1GKjWjI_22engine_statement_tests
FN:227,_RNCNvMs_NtNtCshN9TtrzEz6i_22dual_core_pdf_pipeline2ai7backendNtB6_9AiBackend29repair_extracted_transactions0CseEmI1GKjWjI_22engine_statement_tests
FN:62,_RNCNvMNtNtCshN9TtrzEz6i_22dual_core_pdf_pipeline2ai7backendNtB4_9AiBackend21from_app_config_async0Csi3ESQQ38hK3_12ranking_test
FN:227,_RNCNvMs_NtNtCshN9TtrzEz6i_22dual_core_pdf_pipeline2ai7backendNtB6_9AiBackend29repair_extracted_transactions0Csi3ESQQ38hK3_12ranking_test
FN:204,_RNCNvMs_NtNtCshN9TtrzEz6i_22dual_core_pdf_pipeline2ai7backendNtB6_9AiBackend25plan_transaction_transfer0CsggDmH9at6wh_20transfer_retry_tests
FNDA:3,_RNCNvMs_NtNtCshN9TtrzEz6i_22dual_core_pdf_pipeline2ai7backendNtB6_9AiBackend28verify_statement_mathematics0Cs9eug7EGnCUa_16ai_backend_tests
FNDA:1,_RNCNvMNtNtCshN9TtrzEz6i_22dual_core_pdf_pipeline2ai7backendNtB4_9AiBackend21from_app_config_async0B8_
FNDA:0,_RNCNvMs_NtNtCshN9TtrzEz6i_22dual_core_pdf_pipeline2ai7backendNtB6_9AiBackend28verify_statement_mathematics0Ba_
FNDA:0,_RNCNvMs_NtNtCshN9TtrzEz6i_22dual_core_pdf_pipeline2ai7backendNtB6_9AiBackend29repair_extracted_transactions0Ba_
FNDA:3,_RNvMNtNtCshN9TtrzEz6i_22dual_core_pdf_pipeline2ai7backendNtB2_9AiBackend15from_app_config
FNDA:1,_RNvMNtNtCshN9TtrzEz6i_22dual_core_pdf_pipeline2ai7backendNtB2_9AiBackend21from_app_config_async
FNDA:0,_RNvMNtNtCshN9TtrzEz6i_22dual_core_pdf_pipeline2ai7backendNtB2_9AiBackend4ping
FNDA:9,_RNvMNtNtCshN9TtrzEz6i_22dual_core_pdf_pipeline2ai7backendNtB2_9AiBackend8new_mock
FNDA:0,_RNvMs_NtNtCshN9TtrzEz6i_22dual_core_pdf_pipeline2ai7backendNtB4_9AiBackend20verify_transfer_math
FNDA:0,_RNvMs_NtNtCshN9TtrzEz6i_22dual_core_pdf_pipeline2ai7backendNtB4_9AiBackend24validate_render_visually
FNDA:1,_RNvMs_NtNtCshN9TtrzEz6i_22dual_core_pdf_pipeline2ai7backendNtB4_9AiBackend25plan_transaction_transfer
FNDA:0,_RNvMs_NtNtCshN9TtrzEz6i_22dual_core_pdf_pipeline2ai7backendNtB4_9AiBackend27propose_balance_adjustments
FNDA:0,_RNvMs_NtNtCshN9TtrzEz6i_22dual_core_pdf_pipeline2ai7backendNtB4_9AiBackend27validate_parse_completeness
FNDA:3,_RNvMs_NtNtCshN9TtrzEz6i_22dual_core_pdf_pipeline2ai7backendNtB4_9AiBackend28verify_statement_mathematics
FNDA:2,_RNvMs_NtNtCshN9TtrzEz6i_22dual_core_pdf_pipeline2ai7backendNtB4_9AiBackend29repair_extracted_transactions
FNDA:0,_RNCNvMNtNtCshN9TtrzEz6i_22dual_core_pdf_pipeline2ai7backendNtB4_9AiBackend4ping0B8_
FNDA:0,_RNCNvMs_NtNtCshN9TtrzEz6i_22dual_core_pdf_pipeline2ai7backendNtB6_9AiBackend20verify_transfer_math0Ba_
FNDA:0,_RNCNvMs_NtNtCshN9TtrzEz6i_22dual_core_pdf_pipeline2ai7backendNtB6_9AiBackend24validate_render_visually0Ba_
FNDA:0,_RNCNvMs_NtNtCshN9TtrzEz6i_22dual_core_pdf_pipeline2ai7backendNtB6_9AiBackend25plan_transaction_transfer0Ba_
FNDA:0,_RNCNvMs_NtNtCshN9TtrzEz6i_22dual_core_pdf_pipeline2ai7backendNtB6_9AiBackend27propose_balance_adjustments0Ba_
FNDA:0,_RNCNvMs_NtNtCshN9TtrzEz6i_22dual_core_pdf_pipeline2ai7backendNtB6_9AiBackend27validate_parse_completeness0Ba_
FNDA:0,_RNCNvMNtNtCshN9TtrzEz6i_22dual_core_pdf_pipeline2ai7backendNtB4_9AiBackend21from_app_config_async0Csf6zF57cabuO_20ai_document_ai_tests
FNDA:0,_RNCNvMs_NtNtCshN9TtrzEz6i_22dual_core_pdf_pipeline2ai7backendNtB6_9AiBackend29repair_extracted_transactions0Csf6zF57cabuO_20ai_document_ai_tests
FNDA:0,_RNCNvMNtNtCshN9TtrzEz6i_22dual_core_pdf_pipeline2ai7backendNtB4_9AiBackend21from_app_config_async0CshaMNJSpjAve_7ai_live
FNDA:0,_RNCNvMs_NtNtCshN9TtrzEz6i_22dual_core_pdf_pipeline2ai7backendNtB6_9AiBackend29repair_extracted_transactions0CshaMNJSpjAve_7ai_live
FNDA:1,_RNCNvMs_NtNtCshN9TtrzEz6i_22dual_core_pdf_pipeline2ai7backendNtB6_9AiBackend29repair_extracted_transactions0Cs1dXm4FxIgQC_13ai_loop_tests
FNDA:1,_RNCNvMs_NtNtCshN9TtrzEz6i_22dual_core_pdf_pipeline2ai7backendNtB6_9AiBackend29repair_extracted_transactions0Cs8rgthVp5iEY_11chaos_tests
FNDA:0,_RNCNvMNtNtCsdGsEM3RpwG4_22dual_core_pdf_pipeline2ai7backendNtB4_9AiBackend21from_app_config_async0B8_
FNDA:0,_RNCNvMNtNtCsdGsEM3RpwG4_22dual_core_pdf_pipeline2ai7backendNtB4_9AiBackend4ping0B8_
FNDA:0,_RNCNvMs_NtNtCsdGsEM3RpwG4_22dual_core_pdf_pipeline2ai7backendNtB6_9AiBackend20verify_transfer_math0Ba_
FNDA:0,_RNCNvMs_NtNtCsdGsEM3RpwG4_22dual_core_pdf_pipeline2ai7backendNtB6_9AiBackend24validate_render_visually0Ba_
FNDA:0,_RNCNvMs_NtNtCsdGsEM3RpwG4_22dual_core_pdf_pipeline2ai7backendNtB6_9AiBackend25plan_transaction_transfer0Ba_
FNDA:0,_RNCNvMs_NtNtCsdGsEM3RpwG4_22dual_core_pdf_pipeline2ai7backendNtB6_9AiBackend27propose_balance_adjustments0Ba_
FNDA:0,_RNCNvMs_NtNtCsdGsEM3RpwG4_22dual_core_pdf_pipeline2ai7backendNtB6_9AiBackend27validate_parse_completeness0Ba_
FNDA:0,_RNCNvMs_NtNtCsdGsEM3RpwG4_22dual_core_pdf_pipeline2ai7backendNtB6_9AiBackend28verify_statement_mathematics0Ba_
FNDA:0,_RNCNvMs_NtNtCsdGsEM3RpwG4_22dual_core_pdf_pipeline2ai7backendNtB6_9AiBackend29repair_extracted_transactions0Ba_
FNDA:0,_RNvMNtNtCsdGsEM3RpwG4_22dual_core_pdf_pipeline2ai7backendNtB2_9AiBackend15from_app_config
FNDA:0,_RNvMNtNtCsdGsEM3RpwG4_22dual_core_pdf_pipeline2ai7backendNtB2_9AiBackend21from_app_config_async
FNDA:0,_RNvMNtNtCsdGsEM3RpwG4_22dual_core_pdf_pipeline2ai7backendNtB2_9AiBackend4ping
FNDA:0,_RNvMNtNtCsdGsEM3RpwG4_22dual_core_pdf_pipeline2ai7backendNtB2_9AiBackend8new_mock
FNDA:0,_RNvMs_NtNtCsdGsEM3RpwG4_22dual_core_pdf_pipeline2ai7backendNtB4_9AiBackend20verify_transfer_math
FNDA:0,_RNvMs_NtNtCsdGsEM3RpwG4_22dual_core_pdf_pipeline2ai7backendNtB4_9AiBackend24validate_render_visually
FNDA:0,_RNvMs_NtNtCsdGsEM3RpwG4_22dual_core_pdf_pipeline2ai7backendNtB4_9AiBackend25plan_transaction_transfer
FNDA:0,_RNvMs_NtNtCsdGsEM3RpwG4_22dual_core_pdf_pipeline2ai7backendNtB4_9AiBackend27propose_balance_adjustments
FNDA:0,_RNvMs_NtNtCsdGsEM3RpwG4_22dual_core_pdf_pipeline2ai7backendNtB4_9AiBackend27validate_parse_completeness
FNDA:0,_RNvMs_NtNtCsdGsEM3RpwG4_22dual_core_pdf_pipeline2ai7backendNtB4_9AiBackend28verify_statement_mathematics
FNDA:0,_RNvMs_NtNtCsdGsEM3RpwG4_22dual_core_pdf_pipeline2ai7backendNtB4_9AiBackend29repair_extracted_transactions
FNDA:0,_RNCNvMNtNtCshN9TtrzEz6i_22dual_core_pdf_pipeline2ai7backendNtB4_9AiBackend21from_app_config_async0CseEmI1GKjWjI_22engine_statement_tests
FNDA:0,_RNCNvMs_NtNtCshN9TtrzEz6i_22dual_core_pdf_pipeline2ai7backendNtB6_9AiBackend27propose_balance_adjustments0CseEmI1GKjWjI_22engine_statement_tests
FNDA:0,_RNCNvMs_NtNtCshN9TtrzEz6i_22dual_core_pdf_pipeline2ai7backendNtB6_9AiBackend29repair_extracted_transactions0CseEmI1GKjWjI_22engine_statement_tests
FNDA:0,_RNCNvMNtNtCshN9TtrzEz6i_22dual_core_pdf_pipeline2ai7backendNtB4_9AiBackend21from_app_config_async0Csi3ESQQ38hK3_12ranking_test
FNDA:0,_RNCNvMs_NtNtCshN9TtrzEz6i_22dual_core_pdf_pipeline2ai7backendNtB6_9AiBackend29repair_extracted_transactions0Csi3ESQQ38hK3_12ranking_test
FNDA:1,_RNCNvMs_NtNtCshN9TtrzEz6i_22dual_core_pdf_pipeline2ai7backendNtB6_9AiBackend25plan_transaction_transfer0CsggDmH9at6wh_20transfer_retry_tests
FNF:20
FNH:10
DA:24,3
DA:25,3
DA:26,3
DA:27,3
DA:29,3
DA:30,3
DA:31,3
DA:33,3
DA:34,3
DA:35,3
DA:36,3
DA:37,3
DA:39,3
DA:40,3
DA:41,3
DA:42,3
DA:43,3
DA:45,3
DA:46,3
DA:47,3
DA:48,3
DA:49,3
DA:50,3
DA:51,3
DA:53,9
DA:54,9
DA:55,9
DA:56,9
DA:57,9
DA:58,9
DA:59,9
DA:60,9
DA:62,1
DA:63,1
DA:64,1
DA:65,1
DA:67,1
DA:68,1
DA:69,1
DA:71,1
DA:72,1
DA:73,1
DA:74,1
DA:75,1
DA:77,1
DA:78,1
DA:79,1
DA:80,1
DA:81,1
DA:83,1
DA:84,1
DA:85,1
DA:86,1
DA:87,1
DA:88,1
DA:89,1
DA:91,0
DA:93,0
DA:94,0
DA:95,0
DA:96,0
DA:97,0
DA:155,0
DA:156,0
DA:157,0
DA:158,0
DA:159,0
DA:160,0
DA:161,0
DA:162,0
DA:164,0
DA:165,0
DA:166,0
DA:167,0
DA:168,0
DA:169,0
DA:170,0
DA:171,0
DA:172,0
DA:174,3
DA:175,3
DA:176,3
DA:177,3
DA:178,3
DA:179,3
DA:180,3
DA:183,0
DA:184,0
DA:185,0
DA:186,0
DA:187,0
DA:188,0
DA:189,0
DA:191,0
DA:192,0
DA:193,0
DA:194,0
DA:195,0
DA:197,0
DA:199,1
DA:200,1
DA:201,1
DA:202,1
DA:203,1
DA:204,1
DA:205,1
DA:206,1
DA:208,0
DA:210,1
DA:212,0
DA:213,0
DA:214,0
DA:215,0
DA:216,0
DA:217,0
DA:218,0
DA:220,2
DA:221,2
DA:222,2
DA:223,2
DA:224,2
DA:225,2
DA:226,2
DA:227,2
DA:228,2
DA:229,2
BRF:0
BRH:0
LF:135
LH:86
end_of_record
SF:/Volumes/Macintosh_HD/Users/user298993/Documents/GitHub/bank-statement-fidelity-editor/src/ai/docai_cache.rs
FN:169,_RNCNvMNtNtCshN9TtrzEz6i_22dual_core_pdf_pipeline2ai11docai_cacheNtB4_10DocAiCache3put0B8_
FN:63,_RNvMNtNtCshN9TtrzEz6i_22dual_core_pdf_pipeline2ai11docai_cacheNtB2_10DocAiCache12open_default
FN:110,_RNvMNtNtCshN9TtrzEz6i_22dual_core_pdf_pipeline2ai11docai_cacheNtB2_10DocAiCache3get
FN:153,_RNvMNtNtCshN9TtrzEz6i_22dual_core_pdf_pipeline2ai11docai_cacheNtB2_10DocAiCache3put
FN:70,_RNvMNtNtCshN9TtrzEz6i_22dual_core_pdf_pipeline2ai11docai_cacheNtB2_10DocAiCache4open
FN:81,_RNvMNtNtCshN9TtrzEz6i_22dual_core_pdf_pipeline2ai11docai_cacheNtB2_10DocAiCache8make_key
FN:106,_RNvMNtNtCshN9TtrzEz6i_22dual_core_pdf_pipeline2ai11docai_cacheNtB2_10DocAiCache8path_for
FN:186,_RNvNtNtCshN9TtrzEz6i_22dual_core_pdf_pipeline2ai11docai_cache9hex_lower
FN:63,_RNvMNtNtCsdGsEM3RpwG4_22dual_core_pdf_pipeline2ai11docai_cacheNtB2_10DocAiCache12open_default
FN:169,_RNCNvMNtNtCsdGsEM3RpwG4_22dual_core_pdf_pipeline2ai11docai_cacheNtB4_10DocAiCache3put0B8_
FN:110,_RNvMNtNtCsdGsEM3RpwG4_22dual_core_pdf_pipeline2ai11docai_cacheNtB2_10DocAiCache3get
FN:153,_RNvMNtNtCsdGsEM3RpwG4_22dual_core_pdf_pipeline2ai11docai_cacheNtB2_10DocAiCache3put
FN:70,_RNvMNtNtCsdGsEM3RpwG4_22dual_core_pdf_pipeline2ai11docai_cacheNtB2_10DocAiCache4open
FN:81,_RNvMNtNtCsdGsEM3RpwG4_22dual_core_pdf_pipeline2ai11docai_cacheNtB2_10DocAiCache8make_key
FN:106,_RNvMNtNtCsdGsEM3RpwG4_22dual_core_pdf_pipeline2ai11docai_cacheNtB2_10DocAiCache8path_for
FN:186,_RNvNtNtCsdGsEM3RpwG4_22dual_core_pdf_pipeline2ai11docai_cache9hex_lower
FN:200,_RNvNtNtNtCsdGsEM3RpwG4_22dual_core_pdf_pipeline2ai11docai_cache5tests16sample_statement
FN:239,_RNvNtNtNtCsdGsEM3RpwG4_22dual_core_pdf_pipeline2ai11docai_cache5testss_17miss_returns_none
FN:225,_RNvNtNtNtCsdGsEM3RpwG4_22dual_core_pdf_pipeline2ai11docai_cache5testss_23roundtrip_through_cache
FN:269,_RNvNtNtNtCsdGsEM3RpwG4_22dual_core_pdf_pipeline2ai11docai_cache5testss_32corrupt_entry_is_treated_as_miss
FN:246,_RNvNtNtNtCsdGsEM3RpwG4_22dual_core_pdf_pipeline2ai11docai_cache5testss_34key_changes_when_processor_changes
FN:258,_RNvNtNtNtCsdGsEM3RpwG4_22dual_core_pdf_pipeline2ai11docai_cache5testss_36key_changes_when_pdf_content_changes
FNDA:0,_RNCNvMNtNtCshN9TtrzEz6i_22dual_core_pdf_pipeline2ai11docai_cacheNtB4_10DocAiCache3put0B8_
FNDA:4,_RNvMNtNtCshN9TtrzEz6i_22dual_core_pdf_pipeline2ai11docai_cacheNtB2_10DocAiCache12open_default
FNDA:4,_RNvMNtNtCshN9TtrzEz6i_22dual_core_pdf_pipeline2ai11docai_cacheNtB2_10DocAiCache3get
FNDA:1,_RNvMNtNtCshN9TtrzEz6i_22dual_core_pdf_pipeline2ai11docai_cacheNtB2_10DocAiCache3put
FNDA:4,_RNvMNtNtCshN9TtrzEz6i_22dual_core_pdf_pipeline2ai11docai_cacheNtB2_10DocAiCache4open
FNDA:4,_RNvMNtNtCshN9TtrzEz6i_22dual_core_pdf_pipeline2ai11docai_cacheNtB2_10DocAiCache8make_key
FNDA:5,_RNvMNtNtCshN9TtrzEz6i_22dual_core_pdf_pipeline2ai11docai_cacheNtB2_10DocAiCache8path_for
FNDA:8,_RNvNtNtCshN9TtrzEz6i_22dual_core_pdf_pipeline2ai11docai_cache9hex_lower
FNDA:0,_RNvMNtNtCsdGsEM3RpwG4_22dual_core_pdf_pipeline2ai11docai_cacheNtB2_10DocAiCache12open_default
FNDA:0,_RNCNvMNtNtCsdGsEM3RpwG4_22dual_core_pdf_pipeline2ai11docai_cacheNtB4_10DocAiCache3put0B8_
FNDA:3,_RNvMNtNtCsdGsEM3RpwG4_22dual_core_pdf_pipeline2ai11docai_cacheNtB2_10DocAiCache3get
FNDA:1,_RNvMNtNtCsdGsEM3RpwG4_22dual_core_pdf_pipeline2ai11docai_cacheNtB2_10DocAiCache3put
FNDA:3,_RNvMNtNtCsdGsEM3RpwG4_22dual_core_pdf_pipeline2ai11docai_cacheNtB2_10DocAiCache4open
FNDA:5,_RNvMNtNtCsdGsEM3RpwG4_22dual_core_pdf_pipeline2ai11docai_cacheNtB2_10DocAiCache8make_key
FNDA:4,_RNvMNtNtCsdGsEM3RpwG4_22dual_core_pdf_pipeline2ai11docai_cacheNtB2_10DocAiCache8path_for
FNDA:10,_RNvNtNtCsdGsEM3RpwG4_22dual_core_pdf_pipeline2ai11docai_cache9hex_lower
FNDA:1,_RNvNtNtNtCsdGsEM3RpwG4_22dual_core_pdf_pipeline2ai11docai_cache5tests16sample_statement
FNDA:1,_RNvNtNtNtCsdGsEM3RpwG4_22dual_core_pdf_pipeline2ai11docai_cache5testss_17miss_returns_none
FNDA:1,_RNvNtNtNtCsdGsEM3RpwG4_22dual_core_pdf_pipeline2ai11docai_cache5testss_23roundtrip_through_cache
FNDA:1,_RNvNtNtNtCsdGsEM3RpwG4_22dual_core_pdf_pipeline2ai11docai_cache5testss_32corrupt_entry_is_treated_as_miss
FNDA:1,_RNvNtNtNtCsdGsEM3RpwG4_22dual_core_pdf_pipeline2ai11docai_cache5testss_34key_changes_when_processor_changes
FNDA:1,_RNvNtNtNtCsdGsEM3RpwG4_22dual_core_pdf_pipeline2ai11docai_cache5testss_36key_changes_when_pdf_content_changes
FNF:14
FNH:13
DA:63,4
DA:64,4
DA:65,4
DA:66,4
DA:68,4
DA:70,7
DA:71,7
DA:72,7
DA:73,7
DA:74,7
DA:75,7
DA:76,7
DA:77,7
DA:81,9
DA:82,9
DA:83,9
DA:84,9
DA:85,9
DA:86,9
DA:87,9
DA:88,9
DA:89,9
DA:90,9
DA:91,9
DA:93,9
DA:94,9
DA:95,9
DA:96,9
DA:97,9
DA:98,9
DA:99,9
DA:100,9
DA:101,9
DA:102,9
DA:103,9
DA:104,9
DA:106,9
DA:107,9
DA:108,9
DA:110,7
DA:111,7
DA:112,7
DA:114,4
DA:115,1
DA:116,1
DA:117,3
DA:119,3
DA:120,3
DA:122,3
DA:123,3
DA:124,0
DA:125,0
DA:126,0
DA:127,0
DA:130,0
DA:134,3
DA:135,3
DA:136,3
DA:137,3
DA:139,0
DA:140,0
DA:142,0
DA:144,0
DA:146,0
DA:147,0
DA:148,0
DA:151,7
DA:153,2
DA:154,2
DA:155,2
DA:156,2
DA:157,2
DA:158,2
DA:159,2
DA:160,2
DA:162,2
DA:163,2
DA:164,2
DA:166,2
DA:167,2
DA:168,2
DA:169,2
DA:172,2
DA:173,2
DA:174,2
DA:176,2
DA:179,2
DA:180,2
DA:181,2
DA:182,2
DA:183,2
DA:186,18
DA:187,18
DA:188,594
DA:189,576
DA:190,576
DA:191,18
DA:192,18
DA:200,1
DA:202,1
DA:203,1
DA:204,1
DA:205,1
DA:206,1
DA:207,1
DA:208,1
DA:209,1
DA:210,1
DA:211,1
DA:212,1
DA:213,1
DA:214,1
DA:215,1
DA:216,1
DA:217,1
DA:218,1
DA:219,1
DA:220,1
DA:221,1
DA:222,1
DA:225,1
DA:227,1
DA:228,1
DA:229,1
DA:230,1
DA:231,1
DA:232,1
DA:233,1
DA:234,1
DA:235,1
DA:236,1
DA:239,1
DA:240,1
DA:241,1
DA:242,1
DA:243,1
DA:246,1
DA:247,1
DA:248,1
DA:249,1
DA:250,1
DA:251,1
DA:252,1
DA:253,1
DA:254,1
DA:255,1
DA:258,1
DA:259,1
DA:260,1
DA:261,1
DA:262,1
DA:263,1
DA:264,1
DA:265,1
DA:266,1
DA:269,1
DA:270,1
DA:271,1
DA:272,1
DA:273,1
DA:274,1
BRF:0
BRH:0
LF:162
LH:149
end_of_record
SF:/Volumes/Macintosh_HD/Users/user298993/Documents/GitHub/bank-statement-fidelity-editor/src/ai/document_ai.rs
FN:275,_RNCNCNvMNtNtCshN9TtrzEz6i_22dual_core_pdf_pipeline2ai11document_aiNtB6_16DocumentAiClient15refresh_via_adc00Ba_
FN:279,_RNCNCNvMNtNtCshN9TtrzEz6i_22dual_core_pdf_pipeline2ai11document_aiNtB6_16DocumentAiClient15refresh_via_adc0s0_0Ba_
FN:276,_RNCNCNvMNtNtCshN9TtrzEz6i_22dual_core_pdf_pipeline2ai11document_aiNtB6_16DocumentAiClient15refresh_via_adc0s_0Ba_
FN:177,_RNCNCNvMNtNtCshN9TtrzEz6i_22dual_core_pdf_pipeline2ai11document_aiNtB6_16DocumentAiClient16get_access_token00Ba_
FN:215,_RNCNCNvMNtNtCshN9TtrzEz6i_22dual_core_pdf_pipeline2ai11document_aiNtB6_16DocumentAiClient16get_access_token0s0_0Ba_
FN:212,_RNCNCNvMNtNtCshN9TtrzEz6i_22dual_core_pdf_pipeline2ai11document_aiNtB6_16DocumentAiClient16get_access_token0s_0Ba_
FN:430,_RNCNCNvMNtNtCshN9TtrzEz6i_22dual_core_pdf_pipeline2ai11document_aiNtB6_16DocumentAiClient22parse_entire_statement00Ba_
FN:563,_RNCNCNvMNtNtCshN9TtrzEz6i_22dual_core_pdf_pipeline2ai11document_aiNtB6_16DocumentAiClient22parse_entire_statement0s0_0Ba_
FN:533,_RNCNCNvMNtNtCshN9TtrzEz6i_22dual_core_pdf_pipeline2ai11document_aiNtB6_16DocumentAiClient22parse_entire_statement0s_0Ba_
FN:261,_RNCNvMNtNtCshN9TtrzEz6i_22dual_core_pdf_pipeline2ai11document_aiNtB4_16DocumentAiClient15refresh_via_adc0B8_
FN:174,_RNCNvMNtNtCshN9TtrzEz6i_22dual_core_pdf_pipeline2ai11document_aiNtB4_16DocumentAiClient16get_access_token0B8_
FN:324,_RNCNvMNtNtCshN9TtrzEz6i_22dual_core_pdf_pipeline2ai11document_aiNtB4_16DocumentAiClient22parse_entire_statement0B8_
FN:1544,_RNCNvMNtNtCshN9TtrzEz6i_22dual_core_pdf_pipeline2ai11document_aiNtB4_16DocumentAiClient13get_operation0B8_
FN:1329,_RNCNvMNtNtCshN9TtrzEz6i_22dual_core_pdf_pipeline2ai11document_aiNtB4_16DocumentAiClient19set_default_version0B8_
FN:1514,_RNCNvMNtNtCshN9TtrzEz6i_22dual_core_pdf_pipeline2ai11document_aiNtB4_16DocumentAiClient26evaluate_processor_version0B8_
FN:603,_RNCNCNvMNtNtCshN9TtrzEz6i_22dual_core_pdf_pipeline2ai11document_aiNtB6_16DocumentAiClient13upload_to_gcs00Ba_
FN:1393,_RNCNCNvMNtNtCshN9TtrzEz6i_22dual_core_pdf_pipeline2ai11document_aiNtB6_16DocumentAiClient23list_processor_versions00Ba_
FN:835,_RNCNCNvMNtNtCshN9TtrzEz6i_22dual_core_pdf_pipeline2ai11document_aiNtB6_16DocumentAiClient30download_and_merge_gcs_outputs00Ba_
FN:986,_RNCNCNvMNtNtCshN9TtrzEz6i_22dual_core_pdf_pipeline2ai11document_aiNtB6_16DocumentAiClient30download_and_merge_gcs_outputs0s0_0Ba_
FN:962,_RNCNCNvMNtNtCshN9TtrzEz6i_22dual_core_pdf_pipeline2ai11document_aiNtB6_16DocumentAiClient30download_and_merge_gcs_outputs0s_0Ba_
FN:678,_RNCNvMNtNtCshN9TtrzEz6i_22dual_core_pdf_pipeline2ai11document_aiNtB4_16DocumentAiClient13parse_via_lro0B8_
FN:594,_RNCNvMNtNtCshN9TtrzEz6i_22dual_core_pdf_pipeline2ai11document_aiNtB4_16DocumentAiClient13upload_to_gcs0B8_
FN:582,_RNCNvMNtNtCshN9TtrzEz6i_22dual_core_pdf_pipeline2ai11document_aiNtB4_16DocumentAiClient17parse_smart_batch0B8_
FN:1378,_RNCNvMNtNtCshN9TtrzEz6i_22dual_core_pdf_pipeline2ai11document_aiNtB4_16DocumentAiClient23list_processor_versions0B8_
FN:1480,_RNCNvMNtNtCshN9TtrzEz6i_22dual_core_pdf_pipeline2ai11document_aiNtB4_16DocumentAiClient23train_processor_version0B8_
FN:1417,_RNCNvMNtNtCshN9TtrzEz6i_22dual_core_pdf_pipeline2ai11document_aiNtB4_16DocumentAiClient24deploy_processor_version0B8_
FN:1444,_RNCNvMNtNtCshN9TtrzEz6i_22dual_core_pdf_pipeline2ai11document_aiNtB4_16DocumentAiClient26undeploy_processor_version0B8_
FN:1568,_RNCNvMNtNtCshN9TtrzEz6i_22dual_core_pdf_pipeline2ai11document_aiNtB4_16DocumentAiClient29set_default_processor_version0B8_
FN:830,_RNCNvMNtNtCshN9TtrzEz6i_22dual_core_pdf_pipeline2ai11document_aiNtB4_16DocumentAiClient30download_and_merge_gcs_outputs0B8_
FN:1036,_RNCNCNvMNtNtCshN9TtrzEz6i_22dual_core_pdf_pipeline2ai11document_aiNtB6_16DocumentAiClient34parse_response_into_bank_statement00Ba_
FN:1044,_RNCNCNvMNtNtCshN9TtrzEz6i_22dual_core_pdf_pipeline2ai11document_aiNtB6_16DocumentAiClient34parse_response_into_bank_statement0s0_0Ba_
FN:1041,_RNCNCNvMNtNtCshN9TtrzEz6i_22dual_core_pdf_pipeline2ai11document_aiNtB6_16DocumentAiClient34parse_response_into_bank_statement0s_0Ba_
FN:1029,_RNCNvMNtNtCshN9TtrzEz6i_22dual_core_pdf_pipeline2ai11document_aiNtB4_16DocumentAiClient34parse_response_into_bank_statement0B8_
FN:1395,_RNCNCNCNvMNtNtCshN9TtrzEz6i_22dual_core_pdf_pipeline2ai11document_aiNtB8_16DocumentAiClient23list_processor_versions000Bc_
FN:1324,_RNCNCNvMNtNtCshN9TtrzEz6i_22dual_core_pdf_pipeline2ai11document_aiNtB6_16DocumentAiClient14poll_operation00Ba_
FN:1298,_RNCNCNvMNtNtCshN9TtrzEz6i_22dual_core_pdf_pipeline2ai11document_aiNtB6_16DocumentAiClient14start_training00Ba_
FN:1298,_RNCNCNvMNtNtCshN9TtrzEz6i_22dual_core_pdf_pipeline2ai11document_aiNtB6_16DocumentAiClient14start_training0s_0Ba_
FN:1266,_RNCNCNvMNtNtCshN9TtrzEz6i_22dual_core_pdf_pipeline2ai11document_aiNtB6_16DocumentAiClient23count_labeled_documents00Ba_
FN:1270,_RNCNCNvMNtNtCshN9TtrzEz6i_22dual_core_pdf_pipeline2ai11document_aiNtB6_16DocumentAiClient23count_labeled_documents0s_0Ba_
FN:1208,_RNCNvMNtNtCshN9TtrzEz6i_22dual_core_pdf_pipeline2ai11document_aiNtB4_16DocumentAiClient10authed_url0B8_
FN:1307,_RNCNvMNtNtCshN9TtrzEz6i_22dual_core_pdf_pipeline2ai11document_aiNtB4_16DocumentAiClient14poll_operation0B8_
FN:1277,_RNCNvMNtNtCshN9TtrzEz6i_22dual_core_pdf_pipeline2ai11document_aiNtB4_16DocumentAiClient14start_training0B8_
FN:1243,_RNCNvMNtNtCshN9TtrzEz6i_22dual_core_pdf_pipeline2ai11document_aiNtB4_16DocumentAiClient23count_labeled_documents0B8_
FN:313,_RNCNvMNtNtCshN9TtrzEz6i_22dual_core_pdf_pipeline2ai11document_aiNtB4_16DocumentAiClient4ping0B8_
FN:1001,_RNCNvMNtNtCshN9TtrzEz6i_22dual_core_pdf_pipeline2ai11document_aiNtB4_16DocumentAiClient18get_real_page_dims0B8_
FN:1063,_RNCNvMNtNtCshN9TtrzEz6i_22dual_core_pdf_pipeline2ai11document_aiNtB4_16DocumentAiClient34parse_response_into_bank_statements0_0B8_
FN:1071,_RNCNvMNtNtCshN9TtrzEz6i_22dual_core_pdf_pipeline2ai11document_aiNtB4_16DocumentAiClient34parse_response_into_bank_statements1_0B8_
FN:1072,_RNCNvMNtNtCshN9TtrzEz6i_22dual_core_pdf_pipeline2ai11document_aiNtB4_16DocumentAiClient34parse_response_into_bank_statements2_0B8_
FN:1076,_RNCNvMNtNtCshN9TtrzEz6i_22dual_core_pdf_pipeline2ai11document_aiNtB4_16DocumentAiClient34parse_response_into_bank_statements3_0B8_
FN:1077,_RNCNvMNtNtCshN9TtrzEz6i_22dual_core_pdf_pipeline2ai11document_aiNtB4_16DocumentAiClient34parse_response_into_bank_statements4_0B8_
FN:1078,_RNCNvMNtNtCshN9TtrzEz6i_22dual_core_pdf_pipeline2ai11document_aiNtB4_16DocumentAiClient34parse_response_into_bank_statements5_0B8_
FN:1083,_RNCNvMNtNtCshN9TtrzEz6i_22dual_core_pdf_pipeline2ai11document_aiNtB4_16DocumentAiClient34parse_response_into_bank_statements6_0B8_
FN:1136,_RNCNvMNtNtCshN9TtrzEz6i_22dual_core_pdf_pipeline2ai11document_aiNtB4_16DocumentAiClient34parse_response_into_bank_statements7_0B8_
FN:1137,_RNCNvMNtNtCshN9TtrzEz6i_22dual_core_pdf_pipeline2ai11document_aiNtB4_16DocumentAiClient34parse_response_into_bank_statements8_0B8_
FN:1141,_RNCNvMNtNtCshN9TtrzEz6i_22dual_core_pdf_pipeline2ai11document_aiNtB4_16DocumentAiClient34parse_response_into_bank_statements9_0B8_
FN:1059,_RNCNvMNtNtCshN9TtrzEz6i_22dual_core_pdf_pipeline2ai11document_aiNtB4_16DocumentAiClient34parse_response_into_bank_statements_0B8_
FN:1142,_RNCNvMNtNtCshN9TtrzEz6i_22dual_core_pdf_pipeline2ai11document_aiNtB4_16DocumentAiClient34parse_response_into_bank_statementsa_0B8_
FN:1143,_RNCNvMNtNtCshN9TtrzEz6i_22dual_core_pdf_pipeline2ai11document_aiNtB4_16DocumentAiClient34parse_response_into_bank_statementsb_0B8_
FN:1151,_RNCNvMNtNtCshN9TtrzEz6i_22dual_core_pdf_pipeline2ai11document_aiNtB4_16DocumentAiClient34parse_response_into_bank_statementsc_0B8_
FN:1153,_RNCNvMNtNtCshN9TtrzEz6i_22dual_core_pdf_pipeline2ai11document_aiNtB4_16DocumentAiClient34parse_response_into_bank_statementsd_0B8_
FN:1700,_RNCNvMs_NtNtCshN9TtrzEz6i_22dual_core_pdf_pipeline2ai11document_aiNtB6_12DocAiPageRef8page_idx0Ba_
FN:1833,_RNCNvNtNtCshN9TtrzEz6i_22dual_core_pdf_pipeline2ai11document_ai20entity_page_and_bbox0B7_
FN:1746,_RNCNvNtNtCshN9TtrzEz6i_22dual_core_pdf_pipeline2ai11document_ai23extract_number_property0B7_
FN:1733,_RNCNvNtNtCshN9TtrzEz6i_22dual_core_pdf_pipeline2ai11document_ai23extract_string_property0B7_
FN:1739,_RNCNvNtNtCshN9TtrzEz6i_22dual_core_pdf_pipeline2ai11document_ai23extract_string_propertys_0B7_
FN:1230,_RNvMNtNtCshN9TtrzEz6i_22dual_core_pdf_pipeline2ai11document_aiNtB2_16DocumentAiClient10apply_auth
FN:1208,_RNvMNtNtCshN9TtrzEz6i_22dual_core_pdf_pipeline2ai11document_aiNtB2_16DocumentAiClient10authed_url
FN:141,_RNvMNtNtCshN9TtrzEz6i_22dual_core_pdf_pipeline2ai11document_aiNtB2_16DocumentAiClient11process_url
FN:1362,_RNvMNtNtCshN9TtrzEz6i_22dual_core_pdf_pipeline2ai11document_aiNtB2_16DocumentAiClient11v1_base_url
FN:119,_RNvMNtNtCshN9TtrzEz6i_22dual_core_pdf_pipeline2ai11document_aiNtB2_16DocumentAiClient12new_for_test
FN:1541,_RNvMNtNtCshN9TtrzEz6i_22dual_core_pdf_pipeline2ai11document_aiNtB2_16DocumentAiClient13get_operation
FN:674,_RNvMNtNtCshN9TtrzEz6i_22dual_core_pdf_pipeline2ai11document_aiNtB2_16DocumentAiClient13parse_via_lro
FN:590,_RNvMNtNtCshN9TtrzEz6i_22dual_core_pdf_pipeline2ai11document_aiNtB2_16DocumentAiClient13upload_to_gcs
FN:1304,_RNvMNtNtCshN9TtrzEz6i_22dual_core_pdf_pipeline2ai11document_aiNtB2_16DocumentAiClient14poll_operation
FN:1277,_RNvMNtNtCshN9TtrzEz6i_22dual_core_pdf_pipeline2ai11document_aiNtB2_16DocumentAiClient14start_training
FN:91,_RNvMNtNtCshN9TtrzEz6i_22dual_core_pdf_pipeline2ai11document_aiNtB2_16DocumentAiClient15from_app_config
FN:261,_RNvMNtNtCshN9TtrzEz6i_22dual_core_pdf_pipeline2ai11document_aiNtB2_16DocumentAiClient15refresh_via_adc
FN:174,_RNvMNtNtCshN9TtrzEz6i_22dual_core_pdf_pipeline2ai11document_aiNtB2_16DocumentAiClient16get_access_token
FN:160,_RNvMNtNtCshN9TtrzEz6i_22dual_core_pdf_pipeline2ai11document_aiNtB2_16DocumentAiClient17batch_process_url
FN:577,_RNvMNtNtCshN9TtrzEz6i_22dual_core_pdf_pipeline2ai11document_aiNtB2_16DocumentAiClient17parse_smart_batch
FN:994,_RNvMNtNtCshN9TtrzEz6i_22dual_core_pdf_pipeline2ai11document_aiNtB2_16DocumentAiClient18get_real_page_dims
FN:1329,_RNvMNtNtCshN9TtrzEz6i_22dual_core_pdf_pipeline2ai11document_aiNtB2_16DocumentAiClient19set_default_version
FN:320,_RNvMNtNtCshN9TtrzEz6i_22dual_core_pdf_pipeline2ai11document_aiNtB2_16DocumentAiClient22parse_entire_statement
FN:1243,_RNvMNtNtCshN9TtrzEz6i_22dual_core_pdf_pipeline2ai11document_aiNtB2_16DocumentAiClient23count_labeled_documents
FN:1378,_RNvMNtNtCshN9TtrzEz6i_22dual_core_pdf_pipeline2ai11document_aiNtB2_16DocumentAiClient23list_processor_versions
FN:1476,_RNvMNtNtCshN9TtrzEz6i_22dual_core_pdf_pipeline2ai11document_aiNtB2_16DocumentAiClient23train_processor_version
FN:1417,_RNvMNtNtCshN9TtrzEz6i_22dual_core_pdf_pipeline2ai11document_aiNtB2_16DocumentAiClient24deploy_processor_version
FN:1514,_RNvMNtNtCshN9TtrzEz6i_22dual_core_pdf_pipeline2ai11document_aiNtB2_16DocumentAiClient26evaluate_processor_version
FN:1444,_RNvMNtNtCshN9TtrzEz6i_22dual_core_pdf_pipeline2ai11document_aiNtB2_16DocumentAiClient26undeploy_processor_version
FN:1565,_RNvMNtNtCshN9TtrzEz6i_22dual_core_pdf_pipeline2ai11document_aiNtB2_16DocumentAiClient29set_default_processor_version
FN:826,_RNvMNtNtCshN9TtrzEz6i_22dual_core_pdf_pipeline2ai11document_aiNtB2_16DocumentAiClient30download_and_merge_gcs_outputs
FN:1019,_RNvMNtNtCshN9TtrzEz6i_22dual_core_pdf_pipeline2ai11document_aiNtB2_16DocumentAiClient34parse_response_into_bank_statement
FN:313,_RNvMNtNtCshN9TtrzEz6i_22dual_core_pdf_pipeline2ai11document_aiNtB2_16DocumentAiClient4ping
FN:130,_RNvMNtNtCshN9TtrzEz6i_22dual_core_pdf_pipeline2ai11document_aiNtB2_16DocumentAiClient8new_mock
FN:1691,_RNvMs_NtNtCshN9TtrzEz6i_22dual_core_pdf_pipeline2ai11document_aiNtB4_12DocAiPageRef8page_idx
FN:1840,_RNvNtNtCshN9TtrzEz6i_22dual_core_pdf_pipeline2ai11document_ai13property_bbox
FN:1614,_RNvNtNtCshN9TtrzEz6i_22dual_core_pdf_pipeline2ai11document_ai19merge_chunk_results
FN:1820,_RNvNtNtCshN9TtrzEz6i_22dual_core_pdf_pipeline2ai11document_ai20entity_page_and_bbox
FN:1767,_RNvNtNtCshN9TtrzEz6i_22dual_core_pdf_pipeline2ai11document_ai23bbox_from_bounding_poly
FN:1745,_RNvNtNtCshN9TtrzEz6i_22dual_core_pdf_pipeline2ai11document_ai23extract_number_property
FN:1732,_RNvNtNtCshN9TtrzEz6i_22dual_core_pdf_pipeline2ai11document_ai23extract_string_property
FN:275,_RNCNCNvMNtNtCshN9TtrzEz6i_22dual_core_pdf_pipeline2ai11document_aiNtB6_16DocumentAiClient15refresh_via_adc00Csf6zF57cabuO_20ai_document_ai_tests
FN:279,_RNCNCNvMNtNtCshN9TtrzEz6i_22dual_core_pdf_pipeline2ai11document_aiNtB6_16DocumentAiClient15refresh_via_adc0s0_0Csf6zF57cabuO_20ai_document_ai_tests
FN:276,_RNCNCNvMNtNtCshN9TtrzEz6i_22dual_core_pdf_pipeline2ai11document_aiNtB6_16DocumentAiClient15refresh_via_adc0s_0Csf6zF57cabuO_20ai_document_ai_tests
FN:177,_RNCNCNvMNtNtCshN9TtrzEz6i_22dual_core_pdf_pipeline2ai11document_aiNtB6_16DocumentAiClient16get_access_token00Csf6zF57cabuO_20ai_document_ai_tests
FN:215,_RNCNCNvMNtNtCshN9TtrzEz6i_22dual_core_pdf_pipeline2ai11document_aiNtB6_16DocumentAiClient16get_access_token0s0_0Csf6zF57cabuO_20ai_document_ai_tests
FN:212,_RNCNCNvMNtNtCshN9TtrzEz6i_22dual_core_pdf_pipeline2ai11document_aiNtB6_16DocumentAiClient16get_access_token0s_0Csf6zF57cabuO_20ai_document_ai_tests
FN:430,_RNCNCNvMNtNtCshN9TtrzEz6i_22dual_core_pdf_pipeline2ai11document_aiNtB6_16DocumentAiClient22parse_entire_statement00Csf6zF57cabuO_20ai_document_ai_tests
FN:563,_RNCNCNvMNtNtCshN9TtrzEz6i_22dual_core_pdf_pipeline2ai11document_aiNtB6_16DocumentAiClient22parse_entire_statement0s0_0Csf6zF57cabuO_20ai_document_ai_tests
FN:533,_RNCNCNvMNtNtCshN9TtrzEz6i_22dual_core_pdf_pipeline2ai11document_aiNtB6_16DocumentAiClient22parse_entire_statement0s_0Csf6zF57cabuO_20ai_document_ai_tests
FN:261,_RNCNvMNtNtCshN9TtrzEz6i_22dual_core_pdf_pipeline2ai11document_aiNtB4_16DocumentAiClient15refresh_via_adc0Csf6zF57cabuO_20ai_document_ai_tests
FN:174,_RNCNvMNtNtCshN9TtrzEz6i_22dual_core_pdf_pipeline2ai11document_aiNtB4_16DocumentAiClient16get_access_token0Csf6zF57cabuO_20ai_document_ai_tests
FN:324,_RNCNvMNtNtCshN9TtrzEz6i_22dual_core_pdf_pipeline2ai11document_aiNtB4_16DocumentAiClient22parse_entire_statement0Csf6zF57cabuO_20ai_document_ai_tests
FN:275,_RNCNCNvMNtNtCshN9TtrzEz6i_22dual_core_pdf_pipeline2ai11document_aiNtB6_16DocumentAiClient15refresh_via_adc00CshaMNJSpjAve_7ai_live
FN:279,_RNCNCNvMNtNtCshN9TtrzEz6i_22dual_core_pdf_pipeline2ai11document_aiNtB6_16DocumentAiClient15refresh_via_adc0s0_0CshaMNJSpjAve_7ai_live
FN:276,_RNCNCNvMNtNtCshN9TtrzEz6i_22dual_core_pdf_pipeline2ai11document_aiNtB6_16DocumentAiClient15refresh_via_adc0s_0CshaMNJSpjAve_7ai_live
FN:177,_RNCNCNvMNtNtCshN9TtrzEz6i_22dual_core_pdf_pipeline2ai11document_aiNtB6_16DocumentAiClient16get_access_token00CshaMNJSpjAve_7ai_live
FN:215,_RNCNCNvMNtNtCshN9TtrzEz6i_22dual_core_pdf_pipeline2ai11document_aiNtB6_16DocumentAiClient16get_access_token0s0_0CshaMNJSpjAve_7ai_live
FN:212,_RNCNCNvMNtNtCshN9TtrzEz6i_22dual_core_pdf_pipeline2ai11document_aiNtB6_16DocumentAiClient16get_access_token0s_0CshaMNJSpjAve_7ai_live
FN:430,_RNCNCNvMNtNtCshN9TtrzEz6i_22dual_core_pdf_pipeline2ai11document_aiNtB6_16DocumentAiClient22parse_entire_statement00CshaMNJSpjAve_7ai_live
FN:563,_RNCNCNvMNtNtCshN9TtrzEz6i_22dual_core_pdf_pipeline2ai11document_aiNtB6_16DocumentAiClient22parse_entire_statement0s0_0CshaMNJSpjAve_7ai_live
FN:533,_RNCNCNvMNtNtCshN9TtrzEz6i_22dual_core_pdf_pipeline2ai11document_aiNtB6_16DocumentAiClient22parse_entire_statement0s_0CshaMNJSpjAve_7ai_live
FN:261,_RNCNvMNtNtCshN9TtrzEz6i_22dual_core_pdf_pipeline2ai11document_aiNtB4_16DocumentAiClient15refresh_via_adc0CshaMNJSpjAve_7ai_live
FN:174,_RNCNvMNtNtCshN9TtrzEz6i_22dual_core_pdf_pipeline2ai11document_aiNtB4_16DocumentAiClient16get_access_token0CshaMNJSpjAve_7ai_live
FN:324,_RNCNvMNtNtCshN9TtrzEz6i_22dual_core_pdf_pipeline2ai11document_aiNtB4_16DocumentAiClient22parse_entire_statement0CshaMNJSpjAve_7ai_live
FN:1036,_RNCNCNvMNtNtCsdGsEM3RpwG4_22dual_core_pdf_pipeline2ai11document_aiNtB6_16DocumentAiClient34parse_response_into_bank_statement00Ba_
FN:1044,_RNCNCNvMNtNtCsdGsEM3RpwG4_22dual_core_pdf_pipeline2ai11document_aiNtB6_16DocumentAiClient34parse_response_into_bank_statement0s0_0Ba_
FN:1041,_RNCNCNvMNtNtCsdGsEM3RpwG4_22dual_core_pdf_pipeline2ai11document_aiNtB6_16DocumentAiClient34parse_response_into_bank_statement0s_0Ba_
FN:1029,_RNCNvMNtNtCsdGsEM3RpwG4_22dual_core_pdf_pipeline2ai11document_aiNtB4_16DocumentAiClient34parse_response_into_bank_statement0B8_
FN:2047,_RNCNvNtNtNtCsdGsEM3RpwG4_22dual_core_pdf_pipeline2ai11document_ai5tests23fake_chunk_with_account0B9_
FN:1395,_RNCNCNCNvMNtNtCsdGsEM3RpwG4_22dual_core_pdf_pipeline2ai11document_aiNtB8_16DocumentAiClient23list_processor_versions000Bc_
FN:603,_RNCNCNvMNtNtCsdGsEM3RpwG4_22dual_core_pdf_pipeline2ai11document_aiNtB6_16DocumentAiClient13upload_to_gcs00Ba_
FN:1324,_RNCNCNvMNtNtCsdGsEM3RpwG4_22dual_core_pdf_pipeline2ai11document_aiNtB6_16DocumentAiClient14poll_operation00Ba_
FN:1298,_RNCNCNvMNtNtCsdGsEM3RpwG4_22dual_core_pdf_pipeline2ai11document_aiNtB6_16DocumentAiClient14start_training00Ba_
FN:1298,_RNCNCNvMNtNtCsdGsEM3RpwG4_22dual_core_pdf_pipeline2ai11document_aiNtB6_16DocumentAiClient14start_training0s_0Ba_
FN:275,_RNCNCNvMNtNtCsdGsEM3RpwG4_22dual_core_pdf_pipeline2ai11document_aiNtB6_16DocumentAiClient15refresh_via_adc00Ba_
FN:279,_RNCNCNvMNtNtCsdGsEM3RpwG4_22dual_core_pdf_pipeline2ai11document_aiNtB6_16DocumentAiClient15refresh_via_adc0s0_0Ba_
FN:276,_RNCNCNvMNtNtCsdGsEM3RpwG4_22dual_core_pdf_pipeline2ai11document_aiNtB6_16DocumentAiClient15refresh_via_adc0s_0Ba_
FN:177,_RNCNCNvMNtNtCsdGsEM3RpwG4_22dual_core_pdf_pipeline2ai11document_aiNtB6_16DocumentAiClient16get_access_token00Ba_
FN:215,_RNCNCNvMNtNtCsdGsEM3RpwG4_22dual_core_pdf_pipeline2ai11document_aiNtB6_16DocumentAiClient16get_access_token0s0_0Ba_
FN:212,_RNCNCNvMNtNtCsdGsEM3RpwG4_22dual_core_pdf_pipeline2ai11document_aiNtB6_16DocumentAiClient16get_access_token0s_0Ba_
FN:430,_RNCNCNvMNtNtCsdGsEM3RpwG4_22dual_core_pdf_pipeline2ai11document_aiNtB6_16DocumentAiClient22parse_entire_statement00Ba_
FN:563,_RNCNCNvMNtNtCsdGsEM3RpwG4_22dual_core_pdf_pipeline2ai11document_aiNtB6_16DocumentAiClient22parse_entire_statement0s0_0Ba_
FN:533,_RNCNCNvMNtNtCsdGsEM3RpwG4_22dual_core_pdf_pipeline2ai11document_aiNtB6_16DocumentAiClient22parse_entire_statement0s_0Ba_
FN:1266,_RNCNCNvMNtNtCsdGsEM3RpwG4_22dual_core_pdf_pipeline2ai11document_aiNtB6_16DocumentAiClient23count_labeled_documents00Ba_
FN:1270,_RNCNCNvMNtNtCsdGsEM3RpwG4_22dual_core_pdf_pipeline2ai11document_aiNtB6_16DocumentAiClient23count_labeled_documents0s_0Ba_
FN:1393,_RNCNCNvMNtNtCsdGsEM3RpwG4_22dual_core_pdf_pipeline2ai11document_aiNtB6_16DocumentAiClient23list_processor_versions00Ba_
FN:835,_RNCNCNvMNtNtCsdGsEM3RpwG4_22dual_core_pdf_pipeline2ai11document_aiNtB6_16DocumentAiClient30download_and_merge_gcs_outputs00Ba_
FN:986,_RNCNCNvMNtNtCsdGsEM3RpwG4_22dual_core_pdf_pipeline2ai11document_aiNtB6_16DocumentAiClient30download_and_merge_gcs_outputs0s0_0Ba_
FN:962,_RNCNCNvMNtNtCsdGsEM3RpwG4_22dual_core_pdf_pipeline2ai11document_aiNtB6_16DocumentAiClient30download_and_merge_gcs_outputs0s_0Ba_
FN:1208,_RNCNvMNtNtCsdGsEM3RpwG4_22dual_core_pdf_pipeline2ai11document_aiNtB4_16DocumentAiClient10authed_url0B8_
FN:1544,_RNCNvMNtNtCsdGsEM3RpwG4_22dual_core_pdf_pipeline2ai11document_aiNtB4_16DocumentAiClient13get_operation0B8_
FN:678,_RNCNvMNtNtCsdGsEM3RpwG4_22dual_core_pdf_pipeline2ai11document_aiNtB4_16DocumentAiClient13parse_via_lro0B8_
FN:594,_RNCNvMNtNtCsdGsEM3RpwG4_22dual_core_pdf_pipeline2ai11document_aiNtB4_16DocumentAiClient13upload_to_gcs0B8_
FN:1307,_RNCNvMNtNtCsdGsEM3RpwG4_22dual_core_pdf_pipeline2ai11document_aiNtB4_16DocumentAiClient14poll_operation0B8_
FN:1277,_RNCNvMNtNtCsdGsEM3RpwG4_22dual_core_pdf_pipeline2ai11document_aiNtB4_16DocumentAiClient14start_training0B8_
FN:261,_RNCNvMNtNtCsdGsEM3RpwG4_22dual_core_pdf_pipeline2ai11document_aiNtB4_16DocumentAiClient15refresh_via_adc0B8_
FN:174,_RNCNvMNtNtCsdGsEM3RpwG4_22dual_core_pdf_pipeline2ai11document_aiNtB4_16DocumentAiClient16get_access_token0B8_
FN:582,_RNCNvMNtNtCsdGsEM3RpwG4_22dual_core_pdf_pipeline2ai11document_aiNtB4_16DocumentAiClient17parse_smart_batch0B8_
FN:1001,_RNCNvMNtNtCsdGsEM3RpwG4_22dual_core_pdf_pipeline2ai11document_aiNtB4_16DocumentAiClient18get_real_page_dims0B8_
FN:1329,_RNCNvMNtNtCsdGsEM3RpwG4_22dual_core_pdf_pipeline2ai11document_aiNtB4_16DocumentAiClient19set_default_version0B8_
FN:324,_RNCNvMNtNtCsdGsEM3RpwG4_22dual_core_pdf_pipeline2ai11document_aiNtB4_16DocumentAiClient22parse_entire_statement0B8_
FN:1243,_RNCNvMNtNtCsdGsEM3RpwG4_22dual_core_pdf_pipeline2ai11document_aiNtB4_16DocumentAiClient23count_labeled_documents0B8_
FN:1378,_RNCNvMNtNtCsdGsEM3RpwG4_22dual_core_pdf_pipeline2ai11document_aiNtB4_16DocumentAiClient23list_processor_versions0B8_
FN:1480,_RNCNvMNtNtCsdGsEM3RpwG4_22dual_core_pdf_pipeline2ai11document_aiNtB4_16DocumentAiClient23train_processor_version0B8_
FN:1417,_RNCNvMNtNtCsdGsEM3RpwG4_22dual_core_pdf_pipeline2ai11document_aiNtB4_16DocumentAiClient24deploy_processor_version0B8_
FN:1514,_RNCNvMNtNtCsdGsEM3RpwG4_22dual_core_pdf_pipeline2ai11document_aiNtB4_16DocumentAiClient26evaluate_processor_version0B8_
FN:1444,_RNCNvMNtNtCsdGsEM3RpwG4_22dual_core_pdf_pipeline2ai11document_aiNtB4_16DocumentAiClient26undeploy_processor_version0B8_
FN:1568,_RNCNvMNtNtCsdGsEM3RpwG4_22dual_core_pdf_pipeline2ai11document_aiNtB4_16DocumentAiClient29set_default_processor_version0B8_
FN:830,_RNCNvMNtNtCsdGsEM3RpwG4_22dual_core_pdf_pipeline2ai11document_aiNtB4_16DocumentAiClient30download_and_merge_gcs_outputs0B8_
FN:313,_RNCNvMNtNtCsdGsEM3RpwG4_22dual_core_pdf_pipeline2ai11document_aiNtB4_16DocumentAiClient4ping0B8_
FN:1230,_RNvMNtNtCsdGsEM3RpwG4_22dual_core_pdf_pipeline2ai11document_aiNtB2_16DocumentAiClient10apply_auth
FN:1208,_RNvMNtNtCsdGsEM3RpwG4_22dual_core_pdf_pipeline2ai11document_aiNtB2_16DocumentAiClient10authed_url
FN:141,_RNvMNtNtCsdGsEM3RpwG4_22dual_core_pdf_pipeline2ai11document_aiNtB2_16DocumentAiClient11process_url
FN:1362,_RNvMNtNtCsdGsEM3RpwG4_22dual_core_pdf_pipeline2ai11document_aiNtB2_16DocumentAiClient11v1_base_url
FN:119,_RNvMNtNtCsdGsEM3RpwG4_22dual_core_pdf_pipeline2ai11document_aiNtB2_16DocumentAiClient12new_for_test
FN:1541,_RNvMNtNtCsdGsEM3RpwG4_22dual_core_pdf_pipeline2ai11document_aiNtB2_16DocumentAiClient13get_operation
FN:674,_RNvMNtNtCsdGsEM3RpwG4_22dual_core_pdf_pipeline2ai11document_aiNtB2_16DocumentAiClient13parse_via_lro
FN:590,_RNvMNtNtCsdGsEM3RpwG4_22dual_core_pdf_pipeline2ai11document_aiNtB2_16DocumentAiClient13upload_to_gcs
FN:1304,_RNvMNtNtCsdGsEM3RpwG4_22dual_core_pdf_pipeline2ai11document_aiNtB2_16DocumentAiClient14poll_operation
FN:1277,_RNvMNtNtCsdGsEM3RpwG4_22dual_core_pdf_pipeline2ai11document_aiNtB2_16DocumentAiClient14start_training
FN:261,_RNvMNtNtCsdGsEM3RpwG4_22dual_core_pdf_pipeline2ai11document_aiNtB2_16DocumentAiClient15refresh_via_adc
FN:174,_RNvMNtNtCsdGsEM3RpwG4_22dual_core_pdf_pipeline2ai11document_aiNtB2_16DocumentAiClient16get_access_token
FN:160,_RNvMNtNtCsdGsEM3RpwG4_22dual_core_pdf_pipeline2ai11document_aiNtB2_16DocumentAiClient17batch_process_url
FN:577,_RNvMNtNtCsdGsEM3RpwG4_22dual_core_pdf_pipeline2ai11document_aiNtB2_16DocumentAiClient17parse_smart_batch
FN:994,_RNvMNtNtCsdGsEM3RpwG4_22dual_core_pdf_pipeline2ai11document_aiNtB2_16DocumentAiClient18get_real_page_dims
FN:1329,_RNvMNtNtCsdGsEM3RpwG4_22dual_core_pdf_pipeline2ai11document_aiNtB2_16DocumentAiClient19set_default_version
FN:320,_RNvMNtNtCsdGsEM3RpwG4_22dual_core_pdf_pipeline2ai11document_aiNtB2_16DocumentAiClient22parse_entire_statement
FN:1243,_RNvMNtNtCsdGsEM3RpwG4_22dual_core_pdf_pipeline2ai11document_aiNtB2_16DocumentAiClient23count_labeled_documents
FN:1378,_RNvMNtNtCsdGsEM3RpwG4_22dual_core_pdf_pipeline2ai11document_aiNtB2_16DocumentAiClient23list_processor_versions
FN:1476,_RNvMNtNtCsdGsEM3RpwG4_22dual_core_pdf_pipeline2ai11document_aiNtB2_16DocumentAiClient23train_processor_version
FN:1417,_RNvMNtNtCsdGsEM3RpwG4_22dual_core_pdf_pipeline2ai11document_aiNtB2_16DocumentAiClient24deploy_processor_version
FN:1514,_RNvMNtNtCsdGsEM3RpwG4_22dual_core_pdf_pipeline2ai11document_aiNtB2_16DocumentAiClient26evaluate_processor_version
FN:1444,_RNvMNtNtCsdGsEM3RpwG4_22dual_core_pdf_pipeline2ai11document_aiNtB2_16DocumentAiClient26undeploy_processor_version
FN:1565,_RNvMNtNtCsdGsEM3RpwG4_22dual_core_pdf_pipeline2ai11document_aiNtB2_16DocumentAiClient29set_default_processor_version
FN:826,_RNvMNtNtCsdGsEM3RpwG4_22dual_core_pdf_pipeline2ai11document_aiNtB2_16DocumentAiClient30download_and_merge_gcs_outputs
FN:313,_RNvMNtNtCsdGsEM3RpwG4_22dual_core_pdf_pipeline2ai11document_aiNtB2_16DocumentAiClient4ping
FN:130,_RNvMNtNtCsdGsEM3RpwG4_22dual_core_pdf_pipeline2ai11document_aiNtB2_16DocumentAiClient8new_mock
FN:2061,_RNCNvNtNtNtCsdGsEM3RpwG4_22dual_core_pdf_pipeline2ai11document_ai5tests23fake_chunk_with_accounts_0B9_
FN:2027,_RNvNtNtNtCsdGsEM3RpwG4_22dual_core_pdf_pipeline2ai11document_ai5tests10fake_chunk
FN:2034,_RNvNtNtNtCsdGsEM3RpwG4_22dual_core_pdf_pipeline2ai11document_ai5tests23fake_chunk_with_account
FN:1943,_RNvNtNtNtCsdGsEM3RpwG4_22dual_core_pdf_pipeline2ai11document_ai5testss_15jwt_claim_shape
FN:2102,_RNvNtNtNtCsdGsEM3RpwG4_22dual_core_pdf_pipeline2ai11document_ai5testss_33merge_chunk_results_handles_empty
FN:2009,_RNvNtNtNtCsdGsEM3RpwG4_22dual_core_pdf_pipeline2ai11document_ai5testss_35from_app_config_requires_credential
FN:1985,_RNvNtNtNtCsdGsEM3RpwG4_22dual_core_pdf_pipeline2ai11document_ai5testss_38extract_helpers_pull_nested_properties
FN:2093,_RNvNtNtNtCsdGsEM3RpwG4_22dual_core_pdf_pipeline2ai11document_ai5testss_40merge_chunk_results_handles_single_chunk
FN:1864,_RNvNtNtNtCsdGsEM3RpwG4_22dual_core_pdf_pipeline2ai11document_ai5testss_40parse_response_into_bank_statement_works
FN:1918,_RNvNtNtNtCsdGsEM3RpwG4_22dual_core_pdf_pipeline2ai11document_ai5testss_46parse_response_handles_legacy_transaction_type
FN:2082,_RNvNtNtNtCsdGsEM3RpwG4_22dual_core_pdf_pipeline2ai11document_ai5testss_47merge_chunk_results_preserves_transaction_order
FN:2114,_RNvNtNtNtCsdGsEM3RpwG4_22dual_core_pdf_pipeline2ai11document_ai5testss_56parse_extracts_row_and_per_field_bboxes_from_page_anchor
FN:2241,_RNvNtNtNtCsdGsEM3RpwG4_22dual_core_pdf_pipeline2ai11document_ai5testss_57parse_falls_back_to_row_bbox_when_property_anchor_missing
FN:2067,_RNvNtNtNtCsdGsEM3RpwG4_22dual_core_pdf_pipeline2ai11document_ai5testss_63merge_chunk_results_sums_pages_keeps_first_opening_last_closing
FN:1063,_RNCNvMNtNtCsdGsEM3RpwG4_22dual_core_pdf_pipeline2ai11document_aiNtB4_16DocumentAiClient34parse_response_into_bank_statements0_0B8_
FN:1071,_RNCNvMNtNtCsdGsEM3RpwG4_22dual_core_pdf_pipeline2ai11document_aiNtB4_16DocumentAiClient34parse_response_into_bank_statements1_0B8_
FN:1072,_RNCNvMNtNtCsdGsEM3RpwG4_22dual_core_pdf_pipeline2ai11document_aiNtB4_16DocumentAiClient34parse_response_into_bank_statements2_0B8_
FN:1076,_RNCNvMNtNtCsdGsEM3RpwG4_22dual_core_pdf_pipeline2ai11document_aiNtB4_16DocumentAiClient34parse_response_into_bank_statements3_0B8_
FN:1077,_RNCNvMNtNtCsdGsEM3RpwG4_22dual_core_pdf_pipeline2ai11document_aiNtB4_16DocumentAiClient34parse_response_into_bank_statements4_0B8_
FN:1078,_RNCNvMNtNtCsdGsEM3RpwG4_22dual_core_pdf_pipeline2ai11document_aiNtB4_16DocumentAiClient34parse_response_into_bank_statements5_0B8_
FN:1083,_RNCNvMNtNtCsdGsEM3RpwG4_22dual_core_pdf_pipeline2ai11document_aiNtB4_16DocumentAiClient34parse_response_into_bank_statements6_0B8_
FN:1136,_RNCNvMNtNtCsdGsEM3RpwG4_22dual_core_pdf_pipeline2ai11document_aiNtB4_16DocumentAiClient34parse_response_into_bank_statements7_0B8_
FN:1137,_RNCNvMNtNtCsdGsEM3RpwG4_22dual_core_pdf_pipeline2ai11document_aiNtB4_16DocumentAiClient34parse_response_into_bank_statements8_0B8_
FN:1141,_RNCNvMNtNtCsdGsEM3RpwG4_22dual_core_pdf_pipeline2ai11document_aiNtB4_16DocumentAiClient34parse_response_into_bank_statements9_0B8_
FN:1059,_RNCNvMNtNtCsdGsEM3RpwG4_22dual_core_pdf_pipeline2ai11document_aiNtB4_16DocumentAiClient34parse_response_into_bank_statements_0B8_
FN:1142,_RNCNvMNtNtCsdGsEM3RpwG4_22dual_core_pdf_pipeline2ai11document_aiNtB4_16DocumentAiClient34parse_response_into_bank_statementsa_0B8_
FN:1143,_RNCNvMNtNtCsdGsEM3RpwG4_22dual_core_pdf_pipeline2ai11document_aiNtB4_16DocumentAiClient34parse_response_into_bank_statementsb_0B8_
FN:1151,_RNCNvMNtNtCsdGsEM3RpwG4_22dual_core_pdf_pipeline2ai11document_aiNtB4_16DocumentAiClient34parse_response_into_bank_statementsc_0B8_
FN:1153,_RNCNvMNtNtCsdGsEM3RpwG4_22dual_core_pdf_pipeline2ai11document_aiNtB4_16DocumentAiClient34parse_response_into_bank_statementsd_0B8_
FN:1700,_RNCNvMs_NtNtCsdGsEM3RpwG4_22dual_core_pdf_pipeline2ai11document_aiNtB6_12DocAiPageRef8page_idx0Ba_
FN:1833,_RNCNvNtNtCsdGsEM3RpwG4_22dual_core_pdf_pipeline2ai11document_ai20entity_page_and_bbox0B7_
FN:1746,_RNCNvNtNtCsdGsEM3RpwG4_22dual_core_pdf_pipeline2ai11document_ai23extract_number_property0B7_
FN:1733,_RNCNvNtNtCsdGsEM3RpwG4_22dual_core_pdf_pipeline2ai11document_ai23extract_string_property0B7_
FN:1739,_RNCNvNtNtCsdGsEM3RpwG4_22dual_core_pdf_pipeline2ai11document_ai23extract_string_propertys_0B7_
FN:91,_RNvMNtNtCsdGsEM3RpwG4_22dual_core_pdf_pipeline2ai11document_aiNtB2_16DocumentAiClient15from_app_config
FN:1019,_RNvMNtNtCsdGsEM3RpwG4_22dual_core_pdf_pipeline2ai11document_aiNtB2_16DocumentAiClient34parse_response_into_bank_statement
FN:1691,_RNvMs_NtNtCsdGsEM3RpwG4_22dual_core_pdf_pipeline2ai11document_aiNtB4_12DocAiPageRef8page_idx
FN:1840,_RNvNtNtCsdGsEM3RpwG4_22dual_core_pdf_pipeline2ai11document_ai13property_bbox
FN:1614,_RNvNtNtCsdGsEM3RpwG4_22dual_core_pdf_pipeline2ai11document_ai19merge_chunk_results
FN:1820,_RNvNtNtCsdGsEM3RpwG4_22dual_core_pdf_pipeline2ai11document_ai20entity_page_and_bbox
FN:1767,_RNvNtNtCsdGsEM3RpwG4_22dual_core_pdf_pipeline2ai11document_ai23bbox_from_bounding_poly
FN:1745,_RNvNtNtCsdGsEM3RpwG4_22dual_core_pdf_pipeline2ai11document_ai23extract_number_property
FN:1732,_RNvNtNtCsdGsEM3RpwG4_22dual_core_pdf_pipeline2ai11document_ai23extract_string_property
FN:275,_RNCNCNvMNtNtCshN9TtrzEz6i_22dual_core_pdf_pipeline2ai11document_aiNtB6_16DocumentAiClient15refresh_via_adc00CseEmI1GKjWjI_22engine_statement_tests
FN:279,_RNCNCNvMNtNtCshN9TtrzEz6i_22dual_core_pdf_pipeline2ai11document_aiNtB6_16DocumentAiClient15refresh_via_adc0s0_0CseEmI1GKjWjI_22engine_statement_tests
FN:276,_RNCNCNvMNtNtCshN9TtrzEz6i_22dual_core_pdf_pipeline2ai11document_aiNtB6_16DocumentAiClient15refresh_via_adc0s_0CseEmI1GKjWjI_22engine_statement_tests
FN:177,_RNCNCNvMNtNtCshN9TtrzEz6i_22dual_core_pdf_pipeline2ai11document_aiNtB6_16DocumentAiClient16get_access_token00CseEmI1GKjWjI_22engine_statement_tests
FN:215,_RNCNCNvMNtNtCshN9TtrzEz6i_22dual_core_pdf_pipeline2ai11document_aiNtB6_16DocumentAiClient16get_access_token0s0_0CseEmI1GKjWjI_22engine_statement_tests
FN:212,_RNCNCNvMNtNtCshN9TtrzEz6i_22dual_core_pdf_pipeline2ai11document_aiNtB6_16DocumentAiClient16get_access_token0s_0CseEmI1GKjWjI_22engine_statement_tests
FN:430,_RNCNCNvMNtNtCshN9TtrzEz6i_22dual_core_pdf_pipeline2ai11document_aiNtB6_16DocumentAiClient22parse_entire_statement00CseEmI1GKjWjI_22engine_statement_tests
FN:563,_RNCNCNvMNtNtCshN9TtrzEz6i_22dual_core_pdf_pipeline2ai11document_aiNtB6_16DocumentAiClient22parse_entire_statement0s0_0CseEmI1GKjWjI_22engine_statement_tests
FN:533,_RNCNCNvMNtNtCshN9TtrzEz6i_22dual_core_pdf_pipeline2ai11document_aiNtB6_16DocumentAiClient22parse_entire_statement0s_0CseEmI1GKjWjI_22engine_statement_tests
FN:261,_RNCNvMNtNtCshN9TtrzEz6i_22dual_core_pdf_pipeline2ai11document_aiNtB4_16DocumentAiClient15refresh_via_adc0CseEmI1GKjWjI_22engine_statement_tests
FN:174,_RNCNvMNtNtCshN9TtrzEz6i_22dual_core_pdf_pipeline2ai11document_aiNtB4_16DocumentAiClient16get_access_token0CseEmI1GKjWjI_22engine_statement_tests
FN:324,_RNCNvMNtNtCshN9TtrzEz6i_22dual_core_pdf_pipeline2ai11document_aiNtB4_16DocumentAiClient22parse_entire_statement0CseEmI1GKjWjI_22engine_statement_tests
FN:275,_RNCNCNvMNtNtCshN9TtrzEz6i_22dual_core_pdf_pipeline2ai11document_aiNtB6_16DocumentAiClient15refresh_via_adc00Csi3ESQQ38hK3_12ranking_test
FN:279,_RNCNCNvMNtNtCshN9TtrzEz6i_22dual_core_pdf_pipeline2ai11document_aiNtB6_16DocumentAiClient15refresh_via_adc0s0_0Csi3ESQQ38hK3_12ranking_test
FN:276,_RNCNCNvMNtNtCshN9TtrzEz6i_22dual_core_pdf_pipeline2ai11document_aiNtB6_16DocumentAiClient15refresh_via_adc0s_0Csi3ESQQ38hK3_12ranking_test
FN:177,_RNCNCNvMNtNtCshN9TtrzEz6i_22dual_core_pdf_pipeline2ai11document_aiNtB6_16DocumentAiClient16get_access_token00Csi3ESQQ38hK3_12ranking_test
FN:215,_RNCNCNvMNtNtCshN9TtrzEz6i_22dual_core_pdf_pipeline2ai11document_aiNtB6_16DocumentAiClient16get_access_token0s0_0Csi3ESQQ38hK3_12ranking_test
FN:212,_RNCNCNvMNtNtCshN9TtrzEz6i_22dual_core_pdf_pipeline2ai11document_aiNtB6_16DocumentAiClient16get_access_token0s_0Csi3ESQQ38hK3_12ranking_test
FN:430,_RNCNCNvMNtNtCshN9TtrzEz6i_22dual_core_pdf_pipeline2ai11document_aiNtB6_16DocumentAiClient22parse_entire_statement00Csi3ESQQ38hK3_12ranking_test
FN:563,_RNCNCNvMNtNtCshN9TtrzEz6i_22dual_core_pdf_pipeline2ai11document_aiNtB6_16DocumentAiClient22parse_entire_statement0s0_0Csi3ESQQ38hK3_12ranking_test
FN:533,_RNCNCNvMNtNtCshN9TtrzEz6i_22dual_core_pdf_pipeline2ai11document_aiNtB6_16DocumentAiClient22parse_entire_statement0s_0Csi3ESQQ38hK3_12ranking_test
FN:261,_RNCNvMNtNtCshN9TtrzEz6i_22dual_core_pdf_pipeline2ai11document_aiNtB4_16DocumentAiClient15refresh_via_adc0Csi3ESQQ38hK3_12ranking_test
FN:174,_RNCNvMNtNtCshN9TtrzEz6i_22dual_core_pdf_pipeline2ai11document_aiNtB4_16DocumentAiClient16get_access_token0Csi3ESQQ38hK3_12ranking_test
FN:324,_RNCNvMNtNtCshN9TtrzEz6i_22dual_core_pdf_pipeline2ai11document_aiNtB4_16DocumentAiClient22parse_entire_statement0Csi3ESQQ38hK3_12ranking_test
FN:275,_RNCNCNvMNtNtCshN9TtrzEz6i_22dual_core_pdf_pipeline2ai11document_aiNtB6_16DocumentAiClient15refresh_via_adc00Cs7XQKM2zb9vf_8validate
FN:279,_RNCNCNvMNtNtCshN9TtrzEz6i_22dual_core_pdf_pipeline2ai11document_aiNtB6_16DocumentAiClient15refresh_via_adc0s0_0Cs7XQKM2zb9vf_8validate
FN:276,_RNCNCNvMNtNtCshN9TtrzEz6i_22dual_core_pdf_pipeline2ai11document_aiNtB6_16DocumentAiClient15refresh_via_adc0s_0Cs7XQKM2zb9vf_8validate
FN:177,_RNCNCNvMNtNtCshN9TtrzEz6i_22dual_core_pdf_pipeline2ai11document_aiNtB6_16DocumentAiClient16get_access_token00Cs7XQKM2zb9vf_8validate
FN:215,_RNCNCNvMNtNtCshN9TtrzEz6i_22dual_core_pdf_pipeline2ai11document_aiNtB6_16DocumentAiClient16get_access_token0s0_0Cs7XQKM2zb9vf_8validate
FN:212,_RNCNCNvMNtNtCshN9TtrzEz6i_22dual_core_pdf_pipeline2ai11document_aiNtB6_16DocumentAiClient16get_access_token0s_0Cs7XQKM2zb9vf_8validate
FN:261,_RNCNvMNtNtCshN9TtrzEz6i_22dual_core_pdf_pipeline2ai11document_aiNtB4_16DocumentAiClient15refresh_via_adc0Cs7XQKM2zb9vf_8validate
FN:174,_RNCNvMNtNtCshN9TtrzEz6i_22dual_core_pdf_pipeline2ai11document_aiNtB4_16DocumentAiClient16get_access_token0Cs7XQKM2zb9vf_8validate
FN:313,_RNCNvMNtNtCshN9TtrzEz6i_22dual_core_pdf_pipeline2ai11document_aiNtB4_16DocumentAiClient4ping0Cs7XQKM2zb9vf_8validate
FNDA:0,_RNCNCNvMNtNtCshN9TtrzEz6i_22dual_core_pdf_pipeline2ai11document_aiNtB6_16DocumentAiClient15refresh_via_adc00Ba_
FNDA:0,_RNCNCNvMNtNtCshN9TtrzEz6i_22dual_core_pdf_pipeline2ai11document_aiNtB6_16DocumentAiClient15refresh_via_adc0s0_0Ba_
FNDA:0,_RNCNCNvMNtNtCshN9TtrzEz6i_22dual_core_pdf_pipeline2ai11document_aiNtB6_16DocumentAiClient15refresh_via_adc0s_0Ba_
FNDA:0,_RNCNCNvMNtNtCshN9TtrzEz6i_22dual_core_pdf_pipeline2ai11document_aiNtB6_16DocumentAiClient16get_access_token00Ba_
FNDA:0,_RNCNCNvMNtNtCshN9TtrzEz6i_22dual_core_pdf_pipeline2ai11document_aiNtB6_16DocumentAiClient16get_access_token0s0_0Ba_
FNDA:0,_RNCNCNvMNtNtCshN9TtrzEz6i_22dual_core_pdf_pipeline2ai11document_aiNtB6_16DocumentAiClient16get_access_token0s_0Ba_
FNDA:0,_RNCNCNvMNtNtCshN9TtrzEz6i_22dual_core_pdf_pipeline2ai11document_aiNtB6_16DocumentAiClient22parse_entire_statement00Ba_
FNDA:0,_RNCNCNvMNtNtCshN9TtrzEz6i_22dual_core_pdf_pipeline2ai11document_aiNtB6_16DocumentAiClient22parse_entire_statement0s0_0Ba_
FNDA:0,_RNCNCNvMNtNtCshN9TtrzEz6i_22dual_core_pdf_pipeline2ai11document_aiNtB6_16DocumentAiClient22parse_entire_statement0s_0Ba_
FNDA:0,_RNCNvMNtNtCshN9TtrzEz6i_22dual_core_pdf_pipeline2ai11document_aiNtB4_16DocumentAiClient15refresh_via_adc0B8_
FNDA:0,_RNCNvMNtNtCshN9TtrzEz6i_22dual_core_pdf_pipeline2ai11document_aiNtB4_16DocumentAiClient16get_access_token0B8_
FNDA:0,_RNCNvMNtNtCshN9TtrzEz6i_22dual_core_pdf_pipeline2ai11document_aiNtB4_16DocumentAiClient22parse_entire_statement0B8_
FNDA:0,_RNCNvMNtNtCshN9TtrzEz6i_22dual_core_pdf_pipeline2ai11document_aiNtB4_16DocumentAiClient13get_operation0B8_
FNDA:0,_RNCNvMNtNtCshN9TtrzEz6i_22dual_core_pdf_pipeline2ai11document_aiNtB4_16DocumentAiClient19set_default_version0B8_
FNDA:0,_RNCNvMNtNtCshN9TtrzEz6i_22dual_core_pdf_pipeline2ai11document_aiNtB4_16DocumentAiClient26evaluate_processor_version0B8_
FNDA:0,_RNCNCNvMNtNtCshN9TtrzEz6i_22dual_core_pdf_pipeline2ai11document_aiNtB6_16DocumentAiClient13upload_to_gcs00Ba_
FNDA:0,_RNCNCNvMNtNtCshN9TtrzEz6i_22dual_core_pdf_pipeline2ai11document_aiNtB6_16DocumentAiClient23list_processor_versions00Ba_
FNDA:0,_RNCNCNvMNtNtCshN9TtrzEz6i_22dual_core_pdf_pipeline2ai11document_aiNtB6_16DocumentAiClient30download_and_merge_gcs_outputs00Ba_
FNDA:0,_RNCNCNvMNtNtCshN9TtrzEz6i_22dual_core_pdf_pipeline2ai11document_aiNtB6_16DocumentAiClient30download_and_merge_gcs_outputs0s0_0Ba_
FNDA:0,_RNCNCNvMNtNtCshN9TtrzEz6i_22dual_core_pdf_pipeline2ai11document_aiNtB6_16DocumentAiClient30download_and_merge_gcs_outputs0s_0Ba_
FNDA:0,_RNCNvMNtNtCshN9TtrzEz6i_22dual_core_pdf_pipeline2ai11document_aiNtB4_16DocumentAiClient13parse_via_lro0B8_
FNDA:0,_RNCNvMNtNtCshN9TtrzEz6i_22dual_core_pdf_pipeline2ai11document_aiNtB4_16DocumentAiClient13upload_to_gcs0B8_
FNDA:0,_RNCNvMNtNtCshN9TtrzEz6i_22dual_core_pdf_pipeline2ai11document_aiNtB4_16DocumentAiClient17parse_smart_batch0B8_
FNDA:0,_RNCNvMNtNtCshN9TtrzEz6i_22dual_core_pdf_pipeline2ai11document_aiNtB4_16DocumentAiClient23list_processor_versions0B8_
FNDA:0,_RNCNvMNtNtCshN9TtrzEz6i_22dual_core_pdf_pipeline2ai11document_aiNtB4_16DocumentAiClient23train_processor_version0B8_
FNDA:0,_RNCNvMNtNtCshN9TtrzEz6i_22dual_core_pdf_pipeline2ai11document_aiNtB4_16DocumentAiClient24deploy_processor_version0B8_
FNDA:0,_RNCNvMNtNtCshN9TtrzEz6i_22dual_core_pdf_pipeline2ai11document_aiNtB4_16DocumentAiClient26undeploy_processor_version0B8_
FNDA:0,_RNCNvMNtNtCshN9TtrzEz6i_22dual_core_pdf_pipeline2ai11document_aiNtB4_16DocumentAiClient29set_default_processor_version0B8_
FNDA:0,_RNCNvMNtNtCshN9TtrzEz6i_22dual_core_pdf_pipeline2ai11document_aiNtB4_16DocumentAiClient30download_and_merge_gcs_outputs0B8_
FNDA:0,_RNCNCNvMNtNtCshN9TtrzEz6i_22dual_core_pdf_pipeline2ai11document_aiNtB6_16DocumentAiClient34parse_response_into_bank_statement00Ba_
FNDA:0,_RNCNCNvMNtNtCshN9TtrzEz6i_22dual_core_pdf_pipeline2ai11document_aiNtB6_16DocumentAiClient34parse_response_into_bank_statement0s0_0Ba_
FNDA:0,_RNCNCNvMNtNtCshN9TtrzEz6i_22dual_core_pdf_pipeline2ai11document_aiNtB6_16DocumentAiClient34parse_response_into_bank_statement0s_0Ba_
FNDA:1,_RNCNvMNtNtCshN9TtrzEz6i_22dual_core_pdf_pipeline2ai11document_aiNtB4_16DocumentAiClient34parse_response_into_bank_statement0B8_
FNDA:0,_RNCNCNCNvMNtNtCshN9TtrzEz6i_22dual_core_pdf_pipeline2ai11document_aiNtB8_16DocumentAiClient23list_processor_versions000Bc_
FNDA:0,_RNCNCNvMNtNtCshN9TtrzEz6i_22dual_core_pdf_pipeline2ai11document_aiNtB6_16DocumentAiClient14poll_operation00Ba_
FNDA:0,_RNCNCNvMNtNtCshN9TtrzEz6i_22dual_core_pdf_pipeline2ai11document_aiNtB6_16DocumentAiClient14start_training00Ba_
FNDA:0,_RNCNCNvMNtNtCshN9TtrzEz6i_22dual_core_pdf_pipeline2ai11document_aiNtB6_16DocumentAiClient14start_training0s_0Ba_
FNDA:0,_RNCNCNvMNtNtCshN9TtrzEz6i_22dual_core_pdf_pipeline2ai11document_aiNtB6_16DocumentAiClient23count_labeled_documents00Ba_
FNDA:0,_RNCNCNvMNtNtCshN9TtrzEz6i_22dual_core_pdf_pipeline2ai11document_aiNtB6_16DocumentAiClient23count_labeled_documents0s_0Ba_
FNDA:0,_RNCNvMNtNtCshN9TtrzEz6i_22dual_core_pdf_pipeline2ai11document_aiNtB4_16DocumentAiClient10authed_url0B8_
FNDA:0,_RNCNvMNtNtCshN9TtrzEz6i_22dual_core_pdf_pipeline2ai11document_aiNtB4_16DocumentAiClient14poll_operation0B8_
FNDA:0,_RNCNvMNtNtCshN9TtrzEz6i_22dual_core_pdf_pipeline2ai11document_aiNtB4_16DocumentAiClient14start_training0B8_
FNDA:0,_RNCNvMNtNtCshN9TtrzEz6i_22dual_core_pdf_pipeline2ai11document_aiNtB4_16DocumentAiClient23count_labeled_documents0B8_
FNDA:0,_RNCNvMNtNtCshN9TtrzEz6i_22dual_core_pdf_pipeline2ai11document_aiNtB4_16DocumentAiClient4ping0B8_
FNDA:0,_RNCNvMNtNtCshN9TtrzEz6i_22dual_core_pdf_pipeline2ai11document_aiNtB4_16DocumentAiClient18get_real_page_dims0B8_
FNDA:2,_RNCNvMNtNtCshN9TtrzEz6i_22dual_core_pdf_pipeline2ai11document_aiNtB4_16DocumentAiClient34parse_response_into_bank_statements0_0B8_
FNDA:0,_RNCNvMNtNtCshN9TtrzEz6i_22dual_core_pdf_pipeline2ai11document_aiNtB4_16DocumentAiClient34parse_response_into_bank_statements1_0B8_
FNDA:0,_RNCNvMNtNtCshN9TtrzEz6i_22dual_core_pdf_pipeline2ai11document_aiNtB4_16DocumentAiClient34parse_response_into_bank_statements2_0B8_
FNDA:0,_RNCNvMNtNtCshN9TtrzEz6i_22dual_core_pdf_pipeline2ai11document_aiNtB4_16DocumentAiClient34parse_response_into_bank_statements3_0B8_
FNDA:0,_RNCNvMNtNtCshN9TtrzEz6i_22dual_core_pdf_pipeline2ai11document_aiNtB4_16DocumentAiClient34parse_response_into_bank_statements4_0B8_
FNDA:0,_RNCNvMNtNtCshN9TtrzEz6i_22dual_core_pdf_pipeline2ai11document_aiNtB4_16DocumentAiClient34parse_response_into_bank_statements5_0B8_
FNDA:0,_RNCNvMNtNtCshN9TtrzEz6i_22dual_core_pdf_pipeline2ai11document_aiNtB4_16DocumentAiClient34parse_response_into_bank_statements6_0B8_
FNDA:0,_RNCNvMNtNtCshN9TtrzEz6i_22dual_core_pdf_pipeline2ai11document_aiNtB4_16DocumentAiClient34parse_response_into_bank_statements7_0B8_
FNDA:0,_RNCNvMNtNtCshN9TtrzEz6i_22dual_core_pdf_pipeline2ai11document_aiNtB4_16DocumentAiClient34parse_response_into_bank_statements8_0B8_
FNDA:0,_RNCNvMNtNtCshN9TtrzEz6i_22dual_core_pdf_pipeline2ai11document_aiNtB4_16DocumentAiClient34parse_response_into_bank_statements9_0B8_
FNDA:0,_RNCNvMNtNtCshN9TtrzEz6i_22dual_core_pdf_pipeline2ai11document_aiNtB4_16DocumentAiClient34parse_response_into_bank_statements_0B8_
FNDA:0,_RNCNvMNtNtCshN9TtrzEz6i_22dual_core_pdf_pipeline2ai11document_aiNtB4_16DocumentAiClient34parse_response_into_bank_statementsa_0B8_
FNDA:0,_RNCNvMNtNtCshN9TtrzEz6i_22dual_core_pdf_pipeline2ai11document_aiNtB4_16DocumentAiClient34parse_response_into_bank_statementsb_0B8_
FNDA:0,_RNCNvMNtNtCshN9TtrzEz6i_22dual_core_pdf_pipeline2ai11document_aiNtB4_16DocumentAiClient34parse_response_into_bank_statementsc_0B8_
FNDA:0,_RNCNvMNtNtCshN9TtrzEz6i_22dual_core_pdf_pipeline2ai11document_aiNtB4_16DocumentAiClient34parse_response_into_bank_statementsd_0B8_
FNDA:0,_RNCNvMs_NtNtCshN9TtrzEz6i_22dual_core_pdf_pipeline2ai11document_aiNtB6_12DocAiPageRef8page_idx0Ba_
FNDA:0,_RNCNvNtNtCshN9TtrzEz6i_22dual_core_pdf_pipeline2ai11document_ai20entity_page_and_bbox0B7_
FNDA:0,_RNCNvNtNtCshN9TtrzEz6i_22dual_core_pdf_pipeline2ai11document_ai23extract_number_property0B7_
FNDA:0,_RNCNvNtNtCshN9TtrzEz6i_22dual_core_pdf_pipeline2ai11document_ai23extract_string_property0B7_
FNDA:0,_RNCNvNtNtCshN9TtrzEz6i_22dual_core_pdf_pipeline2ai11document_ai23extract_string_propertys_0B7_
FNDA:0,_RNvMNtNtCshN9TtrzEz6i_22dual_core_pdf_pipeline2ai11document_aiNtB2_16DocumentAiClient10apply_auth
FNDA:0,_RNvMNtNtCshN9TtrzEz6i_22dual_core_pdf_pipeline2ai11document_aiNtB2_16DocumentAiClient10authed_url
FNDA:2,_RNvMNtNtCshN9TtrzEz6i_22dual_core_pdf_pipeline2ai11document_aiNtB2_16DocumentAiClient11process_url
FNDA:0,_RNvMNtNtCshN9TtrzEz6i_22dual_core_pdf_pipeline2ai11document_aiNtB2_16DocumentAiClient11v1_base_url
FNDA:2,_RNvMNtNtCshN9TtrzEz6i_22dual_core_pdf_pipeline2ai11document_aiNtB2_16DocumentAiClient12new_for_test
FNDA:0,_RNvMNtNtCshN9TtrzEz6i_22dual_core_pdf_pipeline2ai11document_aiNtB2_16DocumentAiClient13get_operation
FNDA:0,_RNvMNtNtCshN9TtrzEz6i_22dual_core_pdf_pipeline2ai11document_aiNtB2_16DocumentAiClient13parse_via_lro
FNDA:0,_RNvMNtNtCshN9TtrzEz6i_22dual_core_pdf_pipeline2ai11document_aiNtB2_16DocumentAiClient13upload_to_gcs
FNDA:0,_RNvMNtNtCshN9TtrzEz6i_22dual_core_pdf_pipeline2ai11document_aiNtB2_16DocumentAiClient14poll_operation
FNDA:0,_RNvMNtNtCshN9TtrzEz6i_22dual_core_pdf_pipeline2ai11document_aiNtB2_16DocumentAiClient14start_training
FNDA:16,_RNvMNtNtCshN9TtrzEz6i_22dual_core_pdf_pipeline2ai11document_aiNtB2_16DocumentAiClient15from_app_config
FNDA:0,_RNvMNtNtCshN9TtrzEz6i_22dual_core_pdf_pipeline2ai11document_aiNtB2_16DocumentAiClient15refresh_via_adc
FNDA:0,_RNvMNtNtCshN9TtrzEz6i_22dual_core_pdf_pipeline2ai11document_aiNtB2_16DocumentAiClient16get_access_token
FNDA:0,_RNvMNtNtCshN9TtrzEz6i_22dual_core_pdf_pipeline2ai11document_aiNtB2_16DocumentAiClient17batch_process_url
FNDA:0,_RNvMNtNtCshN9TtrzEz6i_22dual_core_pdf_pipeline2ai11document_aiNtB2_16DocumentAiClient17parse_smart_batch
FNDA:2,_RNvMNtNtCshN9TtrzEz6i_22dual_core_pdf_pipeline2ai11document_aiNtB2_16DocumentAiClient18get_real_page_dims
FNDA:0,_RNvMNtNtCshN9TtrzEz6i_22dual_core_pdf_pipeline2ai11document_aiNtB2_16DocumentAiClient19set_default_version
FNDA:3,_RNvMNtNtCshN9TtrzEz6i_22dual_core_pdf_pipeline2ai11document_aiNtB2_16DocumentAiClient22parse_entire_statement
FNDA:0,_RNvMNtNtCshN9TtrzEz6i_22dual_core_pdf_pipeline2ai11document_aiNtB2_16DocumentAiClient23count_labeled_documents
FNDA:0,_RNvMNtNtCshN9TtrzEz6i_22dual_core_pdf_pipeline2ai11document_aiNtB2_16DocumentAiClient23list_processor_versions
FNDA:0,_RNvMNtNtCshN9TtrzEz6i_22dual_core_pdf_pipeline2ai11document_aiNtB2_16DocumentAiClient23train_processor_version
FNDA:0,_RNvMNtNtCshN9TtrzEz6i_22dual_core_pdf_pipeline2ai11document_aiNtB2_16DocumentAiClient24deploy_processor_version
FNDA:0,_RNvMNtNtCshN9TtrzEz6i_22dual_core_pdf_pipeline2ai11document_aiNtB2_16DocumentAiClient26evaluate_processor_version
FNDA:0,_RNvMNtNtCshN9TtrzEz6i_22dual_core_pdf_pipeline2ai11document_aiNtB2_16DocumentAiClient26undeploy_processor_version
FNDA:0,_RNvMNtNtCshN9TtrzEz6i_22dual_core_pdf_pipeline2ai11document_aiNtB2_16DocumentAiClient29set_default_processor_version
FNDA:0,_RNvMNtNtCshN9TtrzEz6i_22dual_core_pdf_pipeline2ai11document_aiNtB2_16DocumentAiClient30download_and_merge_gcs_outputs
FNDA:1,_RNvMNtNtCshN9TtrzEz6i_22dual_core_pdf_pipeline2ai11document_aiNtB2_16DocumentAiClient34parse_response_into_bank_statement
FNDA:0,_RNvMNtNtCshN9TtrzEz6i_22dual_core_pdf_pipeline2ai11document_aiNtB2_16DocumentAiClient4ping
FNDA:6,_RNvMNtNtCshN9TtrzEz6i_22dual_core_pdf_pipeline2ai11document_aiNtB2_16DocumentAiClient8new_mock
FNDA:0,_RNvMs_NtNtCshN9TtrzEz6i_22dual_core_pdf_pipeline2ai11document_aiNtB4_12DocAiPageRef8page_idx
FNDA:0,_RNvNtNtCshN9TtrzEz6i_22dual_core_pdf_pipeline2ai11document_ai13property_bbox
FNDA:0,_RNvNtNtCshN9TtrzEz6i_22dual_core_pdf_pipeline2ai11document_ai19merge_chunk_results
FNDA:2,_RNvNtNtCshN9TtrzEz6i_22dual_core_pdf_pipeline2ai11document_ai20entity_page_and_bbox
FNDA:0,_RNvNtNtCshN9TtrzEz6i_22dual_core_pdf_pipeline2ai11document_ai23bbox_from_bounding_poly
FNDA:0,_RNvNtNtCshN9TtrzEz6i_22dual_core_pdf_pipeline2ai11document_ai23extract_number_property
FNDA:0,_RNvNtNtCshN9TtrzEz6i_22dual_core_pdf_pipeline2ai11document_ai23extract_string_property
FNDA:0,_RNCNCNvMNtNtCshN9TtrzEz6i_22dual_core_pdf_pipeline2ai11document_aiNtB6_16DocumentAiClient15refresh_via_adc00Csf6zF57cabuO_20ai_document_ai_tests
FNDA:0,_RNCNCNvMNtNtCshN9TtrzEz6i_22dual_core_pdf_pipeline2ai11document_aiNtB6_16DocumentAiClient15refresh_via_adc0s0_0Csf6zF57cabuO_20ai_document_ai_tests
FNDA:0,_RNCNCNvMNtNtCshN9TtrzEz6i_22dual_core_pdf_pipeline2ai11document_aiNtB6_16DocumentAiClient15refresh_via_adc0s_0Csf6zF57cabuO_20ai_document_ai_tests
FNDA:0,_RNCNCNvMNtNtCshN9TtrzEz6i_22dual_core_pdf_pipeline2ai11document_aiNtB6_16DocumentAiClient16get_access_token00Csf6zF57cabuO_20ai_document_ai_tests
FNDA:0,_RNCNCNvMNtNtCshN9TtrzEz6i_22dual_core_pdf_pipeline2ai11document_aiNtB6_16DocumentAiClient16get_access_token0s0_0Csf6zF57cabuO_20ai_document_ai_tests
FNDA:0,_RNCNCNvMNtNtCshN9TtrzEz6i_22dual_core_pdf_pipeline2ai11document_aiNtB6_16DocumentAiClient16get_access_token0s_0Csf6zF57cabuO_20ai_document_ai_tests
FNDA:0,_RNCNCNvMNtNtCshN9TtrzEz6i_22dual_core_pdf_pipeline2ai11document_aiNtB6_16DocumentAiClient22parse_entire_statement00Csf6zF57cabuO_20ai_document_ai_tests
FNDA:0,_RNCNCNvMNtNtCshN9TtrzEz6i_22dual_core_pdf_pipeline2ai11document_aiNtB6_16DocumentAiClient22parse_entire_statement0s0_0Csf6zF57cabuO_20ai_document_ai_tests
FNDA:0,_RNCNCNvMNtNtCshN9TtrzEz6i_22dual_core_pdf_pipeline2ai11document_aiNtB6_16DocumentAiClient22parse_entire_statement0s_0Csf6zF57cabuO_20ai_document_ai_tests
FNDA:0,_RNCNvMNtNtCshN9TtrzEz6i_22dual_core_pdf_pipeline2ai11document_aiNtB4_16DocumentAiClient15refresh_via_adc0Csf6zF57cabuO_20ai_document_ai_tests
FNDA:0,_RNCNvMNtNtCshN9TtrzEz6i_22dual_core_pdf_pipeline2ai11document_aiNtB4_16DocumentAiClient16get_access_token0Csf6zF57cabuO_20ai_document_ai_tests
FNDA:2,_RNCNvMNtNtCshN9TtrzEz6i_22dual_core_pdf_pipeline2ai11document_aiNtB4_16DocumentAiClient22parse_entire_statement0Csf6zF57cabuO_20ai_document_ai_tests
FNDA:0,_RNCNCNvMNtNtCshN9TtrzEz6i_22dual_core_pdf_pipeline2ai11document_aiNtB6_16DocumentAiClient15refresh_via_adc00CshaMNJSpjAve_7ai_live
FNDA:0,_RNCNCNvMNtNtCshN9TtrzEz6i_22dual_core_pdf_pipeline2ai11document_aiNtB6_16DocumentAiClient15refresh_via_adc0s0_0CshaMNJSpjAve_7ai_live
FNDA:0,_RNCNCNvMNtNtCshN9TtrzEz6i_22dual_core_pdf_pipeline2ai11document_aiNtB6_16DocumentAiClient15refresh_via_adc0s_0CshaMNJSpjAve_7ai_live
FNDA:0,_RNCNCNvMNtNtCshN9TtrzEz6i_22dual_core_pdf_pipeline2ai11document_aiNtB6_16DocumentAiClient16get_access_token00CshaMNJSpjAve_7ai_live
FNDA:0,_RNCNCNvMNtNtCshN9TtrzEz6i_22dual_core_pdf_pipeline2ai11document_aiNtB6_16DocumentAiClient16get_access_token0s0_0CshaMNJSpjAve_7ai_live
FNDA:0,_RNCNCNvMNtNtCshN9TtrzEz6i_22dual_core_pdf_pipeline2ai11document_aiNtB6_16DocumentAiClient16get_access_token0s_0CshaMNJSpjAve_7ai_live
FNDA:0,_RNCNCNvMNtNtCshN9TtrzEz6i_22dual_core_pdf_pipeline2ai11document_aiNtB6_16DocumentAiClient22parse_entire_statement00CshaMNJSpjAve_7ai_live
FNDA:0,_RNCNCNvMNtNtCshN9TtrzEz6i_22dual_core_pdf_pipeline2ai11document_aiNtB6_16DocumentAiClient22parse_entire_statement0s0_0CshaMNJSpjAve_7ai_live
FNDA:0,_RNCNCNvMNtNtCshN9TtrzEz6i_22dual_core_pdf_pipeline2ai11document_aiNtB6_16DocumentAiClient22parse_entire_statement0s_0CshaMNJSpjAve_7ai_live
FNDA:0,_RNCNvMNtNtCshN9TtrzEz6i_22dual_core_pdf_pipeline2ai11document_aiNtB4_16DocumentAiClient15refresh_via_adc0CshaMNJSpjAve_7ai_live
FNDA:0,_RNCNvMNtNtCshN9TtrzEz6i_22dual_core_pdf_pipeline2ai11document_aiNtB4_16DocumentAiClient16get_access_token0CshaMNJSpjAve_7ai_live
FNDA:0,_RNCNvMNtNtCshN9TtrzEz6i_22dual_core_pdf_pipeline2ai11document_aiNtB4_16DocumentAiClient22parse_entire_statement0CshaMNJSpjAve_7ai_live
FNDA:0,_RNCNCNvMNtNtCsdGsEM3RpwG4_22dual_core_pdf_pipeline2ai11document_aiNtB6_16DocumentAiClient34parse_response_into_bank_statement00Ba_
FNDA:0,_RNCNCNvMNtNtCsdGsEM3RpwG4_22dual_core_pdf_pipeline2ai11document_aiNtB6_16DocumentAiClient34parse_response_into_bank_statement0s0_0Ba_
FNDA:0,_RNCNCNvMNtNtCsdGsEM3RpwG4_22dual_core_pdf_pipeline2ai11document_aiNtB6_16DocumentAiClient34parse_response_into_bank_statement0s_0Ba_
FNDA:4,_RNCNvMNtNtCsdGsEM3RpwG4_22dual_core_pdf_pipeline2ai11document_aiNtB4_16DocumentAiClient34parse_response_into_bank_statement0B8_
FNDA:12,_RNCNvNtNtNtCsdGsEM3RpwG4_22dual_core_pdf_pipeline2ai11document_ai5tests23fake_chunk_with_account0B9_
FNDA:0,_RNCNCNCNvMNtNtCsdGsEM3RpwG4_22dual_core_pdf_pipeline2ai11document_aiNtB8_16DocumentAiClient23list_processor_versions000Bc_
FNDA:0,_RNCNCNvMNtNtCsdGsEM3RpwG4_22dual_core_pdf_pipeline2ai11document_aiNtB6_16DocumentAiClient13upload_to_gcs00Ba_
FNDA:0,_RNCNCNvMNtNtCsdGsEM3RpwG4_22dual_core_pdf_pipeline2ai11document_aiNtB6_16DocumentAiClient14poll_operation00Ba_
FNDA:0,_RNCNCNvMNtNtCsdGsEM3RpwG4_22dual_core_pdf_pipeline2ai11document_aiNtB6_16DocumentAiClient14start_training00Ba_
FNDA:0,_RNCNCNvMNtNtCsdGsEM3RpwG4_22dual_core_pdf_pipeline2ai11document_aiNtB6_16DocumentAiClient14start_training0s_0Ba_
FNDA:0,_RNCNCNvMNtNtCsdGsEM3RpwG4_22dual_core_pdf_pipeline2ai11document_aiNtB6_16DocumentAiClient15refresh_via_adc00Ba_
FNDA:0,_RNCNCNvMNtNtCsdGsEM3RpwG4_22dual_core_pdf_pipeline2ai11document_aiNtB6_16DocumentAiClient15refresh_via_adc0s0_0Ba_
FNDA:0,_RNCNCNvMNtNtCsdGsEM3RpwG4_22dual_core_pdf_pipeline2ai11document_aiNtB6_16DocumentAiClient15refresh_via_adc0s_0Ba_
FNDA:0,_RNCNCNvMNtNtCsdGsEM3RpwG4_22dual_core_pdf_pipeline2ai11document_aiNtB6_16DocumentAiClient16get_access_token00Ba_
FNDA:0,_RNCNCNvMNtNtCsdGsEM3RpwG4_22dual_core_pdf_pipeline2ai11document_aiNtB6_16DocumentAiClient16get_access_token0s0_0Ba_
FNDA:0,_RNCNCNvMNtNtCsdGsEM3RpwG4_22dual_core_pdf_pipeline2ai11document_aiNtB6_16DocumentAiClient16get_access_token0s_0Ba_
FNDA:0,_RNCNCNvMNtNtCsdGsEM3RpwG4_22dual_core_pdf_pipeline2ai11document_aiNtB6_16DocumentAiClient22parse_entire_statement00Ba_
FNDA:0,_RNCNCNvMNtNtCsdGsEM3RpwG4_22dual_core_pdf_pipeline2ai11document_aiNtB6_16DocumentAiClient22parse_entire_statement0s0_0Ba_
FNDA:0,_RNCNCNvMNtNtCsdGsEM3RpwG4_22dual_core_pdf_pipeline2ai11document_aiNtB6_16DocumentAiClient22parse_entire_statement0s_0Ba_
FNDA:0,_RNCNCNvMNtNtCsdGsEM3RpwG4_22dual_core_pdf_pipeline2ai11document_aiNtB6_16DocumentAiClient23count_labeled_documents00Ba_
FNDA:0,_RNCNCNvMNtNtCsdGsEM3RpwG4_22dual_core_pdf_pipeline2ai11document_aiNtB6_16DocumentAiClient23count_labeled_documents0s_0Ba_
FNDA:0,_RNCNCNvMNtNtCsdGsEM3RpwG4_22dual_core_pdf_pipeline2ai11document_aiNtB6_16DocumentAiClient23list_processor_versions00Ba_
FNDA:0,_RNCNCNvMNtNtCsdGsEM3RpwG4_22dual_core_pdf_pipeline2ai11document_aiNtB6_16DocumentAiClient30download_and_merge_gcs_outputs00Ba_
FNDA:0,_RNCNCNvMNtNtCsdGsEM3RpwG4_22dual_core_pdf_pipeline2ai11document_aiNtB6_16DocumentAiClient30download_and_merge_gcs_outputs0s0_0Ba_
FNDA:0,_RNCNCNvMNtNtCsdGsEM3RpwG4_22dual_core_pdf_pipeline2ai11document_aiNtB6_16DocumentAiClient30download_and_merge_gcs_outputs0s_0Ba_
FNDA:0,_RNCNvMNtNtCsdGsEM3RpwG4_22dual_core_pdf_pipeline2ai11document_aiNtB4_16DocumentAiClient10authed_url0B8_
FNDA:0,_RNCNvMNtNtCsdGsEM3RpwG4_22dual_core_pdf_pipeline2ai11document_aiNtB4_16DocumentAiClient13get_operation0B8_
FNDA:0,_RNCNvMNtNtCsdGsEM3RpwG4_22dual_core_pdf_pipeline2ai11document_aiNtB4_16DocumentAiClient13parse_via_lro0B8_
FNDA:0,_RNCNvMNtNtCsdGsEM3RpwG4_22dual_core_pdf_pipeline2ai11document_aiNtB4_16DocumentAiClient13upload_to_gcs0B8_
FNDA:0,_RNCNvMNtNtCsdGsEM3RpwG4_22dual_core_pdf_pipeline2ai11document_aiNtB4_16DocumentAiClient14poll_operation0B8_
FNDA:0,_RNCNvMNtNtCsdGsEM3RpwG4_22dual_core_pdf_pipeline2ai11document_aiNtB4_16DocumentAiClient14start_training0B8_
FNDA:0,_RNCNvMNtNtCsdGsEM3RpwG4_22dual_core_pdf_pipeline2ai11document_aiNtB4_16DocumentAiClient15refresh_via_adc0B8_
FNDA:0,_RNCNvMNtNtCsdGsEM3RpwG4_22dual_core_pdf_pipeline2ai11document_aiNtB4_16DocumentAiClient16get_access_token0B8_
FNDA:0,_RNCNvMNtNtCsdGsEM3RpwG4_22dual_core_pdf_pipeline2ai11document_aiNtB4_16DocumentAiClient17parse_smart_batch0B8_
FNDA:0,_RNCNvMNtNtCsdGsEM3RpwG4_22dual_core_pdf_pipeline2ai11document_aiNtB4_16DocumentAiClient18get_real_page_dims0B8_
FNDA:0,_RNCNvMNtNtCsdGsEM3RpwG4_22dual_core_pdf_pipeline2ai11document_aiNtB4_16DocumentAiClient19set_default_version0B8_
FNDA:0,_RNCNvMNtNtCsdGsEM3RpwG4_22dual_core_pdf_pipeline2ai11document_aiNtB4_16DocumentAiClient22parse_entire_statement0B8_
FNDA:0,_RNCNvMNtNtCsdGsEM3RpwG4_22dual_core_pdf_pipeline2ai11document_aiNtB4_16DocumentAiClient23count_labeled_documents0B8_
FNDA:0,_RNCNvMNtNtCsdGsEM3RpwG4_22dual_core_pdf_pipeline2ai11document_aiNtB4_16DocumentAiClient23list_processor_versions0B8_
FNDA:0,_RNCNvMNtNtCsdGsEM3RpwG4_22dual_core_pdf_pipeline2ai11document_aiNtB4_16DocumentAiClient23train_processor_version0B8_
FNDA:0,_RNCNvMNtNtCsdGsEM3RpwG4_22dual_core_pdf_pipeline2ai11document_aiNtB4_16DocumentAiClient24deploy_processor_version0B8_
FNDA:0,_RNCNvMNtNtCsdGsEM3RpwG4_22dual_core_pdf_pipeline2ai11document_aiNtB4_16DocumentAiClient26evaluate_processor_version0B8_
FNDA:0,_RNCNvMNtNtCsdGsEM3RpwG4_22dual_core_pdf_pipeline2ai11document_aiNtB4_16DocumentAiClient26undeploy_processor_version0B8_
FNDA:0,_RNCNvMNtNtCsdGsEM3RpwG4_22dual_core_pdf_pipeline2ai11document_aiNtB4_16DocumentAiClient29set_default_processor_version0B8_
FNDA:0,_RNCNvMNtNtCsdGsEM3RpwG4_22dual_core_pdf_pipeline2ai11document_aiNtB4_16DocumentAiClient30download_and_merge_gcs_outputs0B8_
FNDA:0,_RNCNvMNtNtCsdGsEM3RpwG4_22dual_core_pdf_pipeline2ai11document_aiNtB4_16DocumentAiClient4ping0B8_
FNDA:0,_RNvMNtNtCsdGsEM3RpwG4_22dual_core_pdf_pipeline2ai11document_aiNtB2_16DocumentAiClient10apply_auth
FNDA:0,_RNvMNtNtCsdGsEM3RpwG4_22dual_core_pdf_pipeline2ai11document_aiNtB2_16DocumentAiClient10authed_url
FNDA:0,_RNvMNtNtCsdGsEM3RpwG4_22dual_core_pdf_pipeline2ai11document_aiNtB2_16DocumentAiClient11process_url
FNDA:0,_RNvMNtNtCsdGsEM3RpwG4_22dual_core_pdf_pipeline2ai11document_aiNtB2_16DocumentAiClient11v1_base_url
FNDA:0,_RNvMNtNtCsdGsEM3RpwG4_22dual_core_pdf_pipeline2ai11document_aiNtB2_16DocumentAiClient12new_for_test
FNDA:0,_RNvMNtNtCsdGsEM3RpwG4_22dual_core_pdf_pipeline2ai11document_aiNtB2_16DocumentAiClient13get_operation
FNDA:0,_RNvMNtNtCsdGsEM3RpwG4_22dual_core_pdf_pipeline2ai11document_aiNtB2_16DocumentAiClient13parse_via_lro
FNDA:0,_RNvMNtNtCsdGsEM3RpwG4_22dual_core_pdf_pipeline2ai11document_aiNtB2_16DocumentAiClient13upload_to_gcs
FNDA:0,_RNvMNtNtCsdGsEM3RpwG4_22dual_core_pdf_pipeline2ai11document_aiNtB2_16DocumentAiClient14poll_operation
FNDA:0,_RNvMNtNtCsdGsEM3RpwG4_22dual_core_pdf_pipeline2ai11document_aiNtB2_16DocumentAiClient14start_training
FNDA:0,_RNvMNtNtCsdGsEM3RpwG4_22dual_core_pdf_pipeline2ai11document_aiNtB2_16DocumentAiClient15refresh_via_adc
FNDA:0,_RNvMNtNtCsdGsEM3RpwG4_22dual_core_pdf_pipeline2ai11document_aiNtB2_16DocumentAiClient16get_access_token
FNDA:0,_RNvMNtNtCsdGsEM3RpwG4_22dual_core_pdf_pipeline2ai11document_aiNtB2_16DocumentAiClient17batch_process_url
FNDA:0,_RNvMNtNtCsdGsEM3RpwG4_22dual_core_pdf_pipeline2ai11document_aiNtB2_16DocumentAiClient17parse_smart_batch
FNDA:0,_RNvMNtNtCsdGsEM3RpwG4_22dual_core_pdf_pipeline2ai11document_aiNtB2_16DocumentAiClient18get_real_page_dims
FNDA:0,_RNvMNtNtCsdGsEM3RpwG4_22dual_core_pdf_pipeline2ai11document_aiNtB2_16DocumentAiClient19set_default_version
FNDA:0,_RNvMNtNtCsdGsEM3RpwG4_22dual_core_pdf_pipeline2ai11document_aiNtB2_16DocumentAiClient22parse_entire_statement
FNDA:0,_RNvMNtNtCsdGsEM3RpwG4_22dual_core_pdf_pipeline2ai11document_aiNtB2_16DocumentAiClient23count_labeled_documents
FNDA:0,_RNvMNtNtCsdGsEM3RpwG4_22dual_core_pdf_pipeline2ai11document_aiNtB2_16DocumentAiClient23list_processor_versions
FNDA:0,_RNvMNtNtCsdGsEM3RpwG4_22dual_core_pdf_pipeline2ai11document_aiNtB2_16DocumentAiClient23train_processor_version
FNDA:0,_RNvMNtNtCsdGsEM3RpwG4_22dual_core_pdf_pipeline2ai11document_aiNtB2_16DocumentAiClient24deploy_processor_version
FNDA:0,_RNvMNtNtCsdGsEM3RpwG4_22dual_core_pdf_pipeline2ai11document_aiNtB2_16DocumentAiClient26evaluate_processor_version
FNDA:0,_RNvMNtNtCsdGsEM3RpwG4_22dual_core_pdf_pipeline2ai11document_aiNtB2_16DocumentAiClient26undeploy_processor_version
FNDA:0,_RNvMNtNtCsdGsEM3RpwG4_22dual_core_pdf_pipeline2ai11document_aiNtB2_16DocumentAiClient29set_default_processor_version
FNDA:0,_RNvMNtNtCsdGsEM3RpwG4_22dual_core_pdf_pipeline2ai11document_aiNtB2_16DocumentAiClient30download_and_merge_gcs_outputs
FNDA:0,_RNvMNtNtCsdGsEM3RpwG4_22dual_core_pdf_pipeline2ai11document_aiNtB2_16DocumentAiClient4ping
FNDA:0,_RNvMNtNtCsdGsEM3RpwG4_22dual_core_pdf_pipeline2ai11document_aiNtB2_16DocumentAiClient8new_mock
FNDA:2,_RNCNvNtNtNtCsdGsEM3RpwG4_22dual_core_pdf_pipeline2ai11document_ai5tests23fake_chunk_with_accounts_0B9_
FNDA:3,_RNvNtNtNtCsdGsEM3RpwG4_22dual_core_pdf_pipeline2ai11document_ai5tests10fake_chunk
FNDA:5,_RNvNtNtNtCsdGsEM3RpwG4_22dual_core_pdf_pipeline2ai11document_ai5tests23fake_chunk_with_account
FNDA:1,_RNvNtNtNtCsdGsEM3RpwG4_22dual_core_pdf_pipeline2ai11document_ai5testss_15jwt_claim_shape
FNDA:1,_RNvNtNtNtCsdGsEM3RpwG4_22dual_core_pdf_pipeline2ai11document_ai5testss_33merge_chunk_results_handles_empty
FNDA:1,_RNvNtNtNtCsdGsEM3RpwG4_22dual_core_pdf_pipeline2ai11document_ai5testss_35from_app_config_requires_credential
FNDA:1,_RNvNtNtNtCsdGsEM3RpwG4_22dual_core_pdf_pipeline2ai11document_ai5testss_38extract_helpers_pull_nested_properties
FNDA:1,_RNvNtNtNtCsdGsEM3RpwG4_22dual_core_pdf_pipeline2ai11document_ai5testss_40merge_chunk_results_handles_single_chunk
FNDA:1,_RNvNtNtNtCsdGsEM3RpwG4_22dual_core_pdf_pipeline2ai11document_ai5testss_40parse_response_into_bank_statement_works
FNDA:1,_RNvNtNtNtCsdGsEM3RpwG4_22dual_core_pdf_pipeline2ai11document_ai5testss_46parse_response_handles_legacy_transaction_type
FNDA:1,_RNvNtNtNtCsdGsEM3RpwG4_22dual_core_pdf_pipeline2ai11document_ai5testss_47merge_chunk_results_preserves_transaction_order
FNDA:1,_RNvNtNtNtCsdGsEM3RpwG4_22dual_core_pdf_pipeline2ai11document_ai5testss_56parse_extracts_row_and_per_field_bboxes_from_page_anchor
FNDA:1,_RNvNtNtNtCsdGsEM3RpwG4_22dual_core_pdf_pipeline2ai11document_ai5testss_57parse_falls_back_to_row_bbox_when_property_anchor_missing
FNDA:1,_RNvNtNtNtCsdGsEM3RpwG4_22dual_core_pdf_pipeline2ai11document_ai5testss_63merge_chunk_results_sums_pages_keeps_first_opening_last_closing
FNDA:0,_RNCNvMNtNtCsdGsEM3RpwG4_22dual_core_pdf_pipeline2ai11document_aiNtB4_16DocumentAiClient34parse_response_into_bank_statements0_0B8_
FNDA:2,_RNCNvMNtNtCsdGsEM3RpwG4_22dual_core_pdf_pipeline2ai11document_aiNtB4_16DocumentAiClient34parse_response_into_bank_statements1_0B8_
FNDA:2,_RNCNvMNtNtCsdGsEM3RpwG4_22dual_core_pdf_pipeline2ai11document_aiNtB4_16DocumentAiClient34parse_response_into_bank_statements2_0B8_
FNDA:1,_RNCNvMNtNtCsdGsEM3RpwG4_22dual_core_pdf_pipeline2ai11document_aiNtB4_16DocumentAiClient34parse_response_into_bank_statements3_0B8_
FNDA:1,_RNCNvMNtNtCsdGsEM3RpwG4_22dual_core_pdf_pipeline2ai11document_aiNtB4_16DocumentAiClient34parse_response_into_bank_statements4_0B8_
FNDA:1,_RNCNvMNtNtCsdGsEM3RpwG4_22dual_core_pdf_pipeline2ai11document_aiNtB4_16DocumentAiClient34parse_response_into_bank_statements5_0B8_
FNDA:3,_RNCNvMNtNtCsdGsEM3RpwG4_22dual_core_pdf_pipeline2ai11document_aiNtB4_16DocumentAiClient34parse_response_into_bank_statements6_0B8_
FNDA:0,_RNCNvMNtNtCsdGsEM3RpwG4_22dual_core_pdf_pipeline2ai11document_aiNtB4_16DocumentAiClient34parse_response_into_bank_statements7_0B8_
FNDA:0,_RNCNvMNtNtCsdGsEM3RpwG4_22dual_core_pdf_pipeline2ai11document_aiNtB4_16DocumentAiClient34parse_response_into_bank_statements8_0B8_
FNDA:1,_RNCNvMNtNtCsdGsEM3RpwG4_22dual_core_pdf_pipeline2ai11document_aiNtB4_16DocumentAiClient34parse_response_into_bank_statements9_0B8_
FNDA:0,_RNCNvMNtNtCsdGsEM3RpwG4_22dual_core_pdf_pipeline2ai11document_aiNtB4_16DocumentAiClient34parse_response_into_bank_statements_0B8_
FNDA:1,_RNCNvMNtNtCsdGsEM3RpwG4_22dual_core_pdf_pipeline2ai11document_aiNtB4_16DocumentAiClient34parse_response_into_bank_statementsa_0B8_
FNDA:1,_RNCNvMNtNtCsdGsEM3RpwG4_22dual_core_pdf_pipeline2ai11document_aiNtB4_16DocumentAiClient34parse_response_into_bank_statementsb_0B8_
FNDA:0,_RNCNvMNtNtCsdGsEM3RpwG4_22dual_core_pdf_pipeline2ai11document_aiNtB4_16DocumentAiClient34parse_response_into_bank_statementsc_0B8_
FNDA:1,_RNCNvMNtNtCsdGsEM3RpwG4_22dual_core_pdf_pipeline2ai11document_aiNtB4_16DocumentAiClient34parse_response_into_bank_statementsd_0B8_
FNDA:0,_RNCNvMs_NtNtCsdGsEM3RpwG4_22dual_core_pdf_pipeline2ai11document_aiNtB6_12DocAiPageRef8page_idx0Ba_
FNDA:6,_RNCNvNtNtCsdGsEM3RpwG4_22dual_core_pdf_pipeline2ai11document_ai20entity_page_and_bbox0B7_
FNDA:41,_RNCNvNtNtCsdGsEM3RpwG4_22dual_core_pdf_pipeline2ai11document_ai23extract_number_property0B7_
FNDA:26,_RNCNvNtNtCsdGsEM3RpwG4_22dual_core_pdf_pipeline2ai11document_ai23extract_string_property0B7_
FNDA:7,_RNCNvNtNtCsdGsEM3RpwG4_22dual_core_pdf_pipeline2ai11document_ai23extract_string_propertys_0B7_
FNDA:1,_RNvMNtNtCsdGsEM3RpwG4_22dual_core_pdf_pipeline2ai11document_aiNtB2_16DocumentAiClient15from_app_config
FNDA:4,_RNvMNtNtCsdGsEM3RpwG4_22dual_core_pdf_pipeline2ai11document_aiNtB2_16DocumentAiClient34parse_response_into_bank_statement
FNDA:6,_RNvMs_NtNtCsdGsEM3RpwG4_22dual_core_pdf_pipeline2ai11document_aiNtB4_12DocAiPageRef8page_idx
FNDA:20,_RNvNtNtCsdGsEM3RpwG4_22dual_core_pdf_pipeline2ai11document_ai13property_bbox
FNDA:4,_RNvNtNtCsdGsEM3RpwG4_22dual_core_pdf_pipeline2ai11document_ai19merge_chunk_results
FNDA:18,_RNvNtNtCsdGsEM3RpwG4_22dual_core_pdf_pipeline2ai11document_ai20entity_page_and_bbox
FNDA:6,_RNvNtNtCsdGsEM3RpwG4_22dual_core_pdf_pipeline2ai11document_ai23bbox_from_bounding_poly
FNDA:20,_RNvNtNtCsdGsEM3RpwG4_22dual_core_pdf_pipeline2ai11document_ai23extract_number_property
FNDA:20,_RNvNtNtCsdGsEM3RpwG4_22dual_core_pdf_pipeline2ai11document_ai23extract_string_property
FNDA:0,_RNCNCNvMNtNtCshN9TtrzEz6i_22dual_core_pdf_pipeline2ai11document_aiNtB6_16DocumentAiClient15refresh_via_adc00CseEmI1GKjWjI_22engine_statement_tests
FNDA:0,_RNCNCNvMNtNtCshN9TtrzEz6i_22dual_core_pdf_pipeline2ai11document_aiNtB6_16DocumentAiClient15refresh_via_adc0s0_0CseEmI1GKjWjI_22engine_statement_tests
FNDA:0,_RNCNCNvMNtNtCshN9TtrzEz6i_22dual_core_pdf_pipeline2ai11document_aiNtB6_16DocumentAiClient15refresh_via_adc0s_0CseEmI1GKjWjI_22engine_statement_tests
FNDA:0,_RNCNCNvMNtNtCshN9TtrzEz6i_22dual_core_pdf_pipeline2ai11document_aiNtB6_16DocumentAiClient16get_access_token00CseEmI1GKjWjI_22engine_statement_tests
FNDA:0,_RNCNCNvMNtNtCshN9TtrzEz6i_22dual_core_pdf_pipeline2ai11document_aiNtB6_16DocumentAiClient16get_access_token0s0_0CseEmI1GKjWjI_22engine_statement_tests
FNDA:0,_RNCNCNvMNtNtCshN9TtrzEz6i_22dual_core_pdf_pipeline2ai11document_aiNtB6_16DocumentAiClient16get_access_token0s_0CseEmI1GKjWjI_22engine_statement_tests
FNDA:0,_RNCNCNvMNtNtCshN9TtrzEz6i_22dual_core_pdf_pipeline2ai11document_aiNtB6_16DocumentAiClient22parse_entire_statement00CseEmI1GKjWjI_22engine_statement_tests
FNDA:0,_RNCNCNvMNtNtCshN9TtrzEz6i_22dual_core_pdf_pipeline2ai11document_aiNtB6_16DocumentAiClient22parse_entire_statement0s0_0CseEmI1GKjWjI_22engine_statement_tests
FNDA:0,_RNCNCNvMNtNtCshN9TtrzEz6i_22dual_core_pdf_pipeline2ai11document_aiNtB6_16DocumentAiClient22parse_entire_statement0s_0CseEmI1GKjWjI_22engine_statement_tests
FNDA:0,_RNCNvMNtNtCshN9TtrzEz6i_22dual_core_pdf_pipeline2ai11document_aiNtB4_16DocumentAiClient15refresh_via_adc0CseEmI1GKjWjI_22engine_statement_tests
FNDA:0,_RNCNvMNtNtCshN9TtrzEz6i_22dual_core_pdf_pipeline2ai11document_aiNtB4_16DocumentAiClient16get_access_token0CseEmI1GKjWjI_22engine_statement_tests
FNDA:1,_RNCNvMNtNtCshN9TtrzEz6i_22dual_core_pdf_pipeline2ai11document_aiNtB4_16DocumentAiClient22parse_entire_statement0CseEmI1GKjWjI_22engine_statement_tests
FNDA:0,_RNCNCNvMNtNtCshN9TtrzEz6i_22dual_core_pdf_pipeline2ai11document_aiNtB6_16DocumentAiClient15refresh_via_adc00Csi3ESQQ38hK3_12ranking_test
FNDA:0,_RNCNCNvMNtNtCshN9TtrzEz6i_22dual_core_pdf_pipeline2ai11document_aiNtB6_16DocumentAiClient15refresh_via_adc0s0_0Csi3ESQQ38hK3_12ranking_test
FNDA:0,_RNCNCNvMNtNtCshN9TtrzEz6i_22dual_core_pdf_pipeline2ai11document_aiNtB6_16DocumentAiClient15refresh_via_adc0s_0Csi3ESQQ38hK3_12ranking_test
FNDA:0,_RNCNCNvMNtNtCshN9TtrzEz6i_22dual_core_pdf_pipeline2ai11document_aiNtB6_16DocumentAiClient16get_access_token00Csi3ESQQ38hK3_12ranking_test
FNDA:0,_RNCNCNvMNtNtCshN9TtrzEz6i_22dual_core_pdf_pipeline2ai11document_aiNtB6_16DocumentAiClient16get_access_token0s0_0Csi3ESQQ38hK3_12ranking_test
FNDA:0,_RNCNCNvMNtNtCshN9TtrzEz6i_22dual_core_pdf_pipeline2ai11document_aiNtB6_16DocumentAiClient16get_access_token0s_0Csi3ESQQ38hK3_12ranking_test
FNDA:0,_RNCNCNvMNtNtCshN9TtrzEz6i_22dual_core_pdf_pipeline2ai11document_aiNtB6_16DocumentAiClient22parse_entire_statement00Csi3ESQQ38hK3_12ranking_test
FNDA:0,_RNCNCNvMNtNtCshN9TtrzEz6i_22dual_core_pdf_pipeline2ai11document_aiNtB6_16DocumentAiClient22parse_entire_statement0s0_0Csi3ESQQ38hK3_12ranking_test
FNDA:0,_RNCNCNvMNtNtCshN9TtrzEz6i_22dual_core_pdf_pipeline2ai11document_aiNtB6_16DocumentAiClient22parse_entire_statement0s_0Csi3ESQQ38hK3_12ranking_test
FNDA:0,_RNCNvMNtNtCshN9TtrzEz6i_22dual_core_pdf_pipeline2ai11document_aiNtB4_16DocumentAiClient15refresh_via_adc0Csi3ESQQ38hK3_12ranking_test
FNDA:0,_RNCNvMNtNtCshN9TtrzEz6i_22dual_core_pdf_pipeline2ai11document_aiNtB4_16DocumentAiClient16get_access_token0Csi3ESQQ38hK3_12ranking_test
FNDA:0,_RNCNvMNtNtCshN9TtrzEz6i_22dual_core_pdf_pipeline2ai11document_aiNtB4_16DocumentAiClient22parse_entire_statement0Csi3ESQQ38hK3_12ranking_test
FNDA:0,_RNCNCNvMNtNtCshN9TtrzEz6i_22dual_core_pdf_pipeline2ai11document_aiNtB6_16DocumentAiClient15refresh_via_adc00Cs7XQKM2zb9vf_8validate
FNDA:0,_RNCNCNvMNtNtCshN9TtrzEz6i_22dual_core_pdf_pipeline2ai11document_aiNtB6_16DocumentAiClient15refresh_via_adc0s0_0Cs7XQKM2zb9vf_8validate
FNDA:0,_RNCNCNvMNtNtCshN9TtrzEz6i_22dual_core_pdf_pipeline2ai11document_aiNtB6_16DocumentAiClient15refresh_via_adc0s_0Cs7XQKM2zb9vf_8validate
FNDA:0,_RNCNCNvMNtNtCshN9TtrzEz6i_22dual_core_pdf_pipeline2ai11document_aiNtB6_16DocumentAiClient16get_access_token00Cs7XQKM2zb9vf_8validate
FNDA:0,_RNCNCNvMNtNtCshN9TtrzEz6i_22dual_core_pdf_pipeline2ai11document_aiNtB6_16DocumentAiClient16get_access_token0s0_0Cs7XQKM2zb9vf_8validate
FNDA:0,_RNCNCNvMNtNtCshN9TtrzEz6i_22dual_core_pdf_pipeline2ai11document_aiNtB6_16DocumentAiClient16get_access_token0s_0Cs7XQKM2zb9vf_8validate
FNDA:0,_RNCNvMNtNtCshN9TtrzEz6i_22dual_core_pdf_pipeline2ai11document_aiNtB4_16DocumentAiClient15refresh_via_adc0Cs7XQKM2zb9vf_8validate
FNDA:0,_RNCNvMNtNtCshN9TtrzEz6i_22dual_core_pdf_pipeline2ai11document_aiNtB4_16DocumentAiClient16get_access_token0Cs7XQKM2zb9vf_8validate
FNDA:0,_RNCNvMNtNtCshN9TtrzEz6i_22dual_core_pdf_pipeline2ai11document_aiNtB4_16DocumentAiClient4ping0Cs7XQKM2zb9vf_8validate
FNF:116
FNH:46
DA:91,17
DA:93,17
DA:117,17
DA:119,2
DA:120,2
DA:121,2
DA:122,2
DA:123,2
DA:124,2
DA:125,2
DA:126,2
DA:127,2
DA:128,2
DA:130,6
DA:131,6
DA:132,6
DA:133,6
DA:134,6
DA:135,6
DA:136,6
DA:137,6
DA:138,6
DA:139,6
DA:141,2
DA:142,2
DA:143,2
DA:146,0
DA:147,0
DA:154,2
DA:155,0
DA:156,2
DA:158,2
DA:160,0
DA:161,0
DA:162,0
DA:168,0
DA:169,0
DA:170,0
DA:172,0
DA:174,0
DA:175,0
DA:176,0
DA:177,0
DA:178,0
DA:181,0
DA:182,0
DA:183,0
DA:184,0
DA:185,0
DA:186,0
DA:191,0
DA:192,0
DA:193,0
DA:194,0
DA:195,0
DA:196,0
DA:201,0
DA:203,0
DA:204,0
DA:205,0
DA:207,0
DA:208,0
DA:210,0
DA:211,0
DA:212,0
DA:213,0
DA:214,0
DA:215,0
DA:217,0
DA:218,0
DA:219,0
DA:220,0
DA:221,0
DA:222,0
DA:223,0
DA:225,0
DA:226,0
DA:227,0
DA:228,0
DA:230,0
DA:231,0
DA:232,0
DA:233,0
DA:234,0
DA:235,0
DA:236,0
DA:237,0
DA:238,0
DA:240,0
DA:242,0
DA:243,0
DA:245,0
DA:247,0
DA:249,0
DA:250,0
DA:251,0
DA:252,0
DA:253,0
DA:255,0
DA:256,0
DA:261,0
DA:262,0
DA:263,0
DA:267,0
DA:268,0
DA:269,0
DA:270,0
DA:271,0
DA:272,0
DA:273,0
DA:274,0
DA:275,0
DA:276,0
DA:277,0
DA:278,0
DA:279,0
DA:280,0
DA:281,0
DA:283,0
DA:284,0
DA:285,0
DA:286,0
DA:287,0
DA:288,0
DA:289,0
DA:290,0
DA:291,0
DA:292,0
DA:293,0
DA:295,0
DA:297,0
DA:298,0
DA:300,0
DA:302,0
DA:303,0
DA:304,0
DA:305,0
DA:306,0
DA:307,0
DA:308,0
DA:309,0
DA:313,0
DA:316,0
DA:317,0
DA:318,0
DA:320,3
DA:321,3
DA:322,3
DA:323,3
DA:324,3
DA:325,3
DA:326,1
DA:327,1
DA:328,1
DA:329,1
DA:330,1
DA:331,1
DA:332,1
DA:333,1
DA:334,2
DA:339,2
DA:341,2
DA:342,0
DA:343,0
DA:344,0
DA:347,2
DA:348,2
DA:349,2
DA:350,2
DA:351,2
DA:352,2
DA:353,2
DA:355,2
DA:357,0
DA:359,2
DA:360,2
DA:361,0
DA:362,0
DA:363,2
DA:364,0
DA:366,2
DA:368,2
DA:369,2
DA:370,2
DA:371,2
DA:372,2
DA:373,2
DA:378,2
DA:379,2
DA:380,2
DA:382,2
DA:383,2
DA:386,5
DA:387,5
DA:388,5
DA:389,5
DA:390,5
DA:391,4
DA:393,3
DA:394,3
DA:395,3
DA:396,0
DA:400,3
DA:401,3
DA:402,2
DA:403,2
DA:404,2
DA:405,2
DA:407,0
DA:408,2
DA:409,2
DA:410,2
DA:412,0
DA:413,0
DA:414,0
DA:415,0
DA:416,0
DA:417,0
DA:421,0
DA:422,0
DA:423,0
DA:424,0
DA:425,0
DA:430,2
DA:431,0
DA:432,0
DA:433,0
DA:434,0
DA:435,0
DA:436,2
DA:437,2
DA:438,1
DA:439,1
DA:440,1
DA:441,1
DA:442,0
DA:443,1
DA:444,0
DA:445,1
DA:447,1
DA:448,1
DA:449,1
DA:450,1
DA:451,1
DA:452,1
DA:454,0
DA:455,0
DA:460,1
DA:463,0
DA:464,0
DA:465,0
DA:470,0
DA:473,0
DA:474,0
DA:475,0
DA:476,0
DA:477,0
DA:479,0
DA:480,0
DA:482,0
DA:483,0
DA:486,0
DA:487,0
DA:488,0
DA:489,0
DA:490,0
DA:491,0
DA:492,0
DA:493,0
DA:495,0
DA:496,0
DA:497,0
DA:501,0
DA:502,0
DA:503,0
DA:504,0
DA:505,0
DA:506,0
DA:508,0
DA:509,0
DA:512,0
DA:513,0
DA:514,0
DA:516,0
DA:517,0
DA:518,0
DA:519,0
DA:520,0
DA:524,0
DA:525,0
DA:526,0
DA:527,0
DA:528,0
DA:533,0
DA:534,0
DA:535,0
DA:536,0
DA:537,0
DA:538,0
DA:540,0
DA:542,0
DA:543,0
DA:545,0
DA:547,0
DA:548,0
DA:550,0
DA:551,0
DA:553,0
DA:554,0
DA:555,0
DA:556,0
DA:557,0
DA:561,0
DA:562,0
DA:563,0
DA:564,0
DA:565,0
DA:566,0
DA:567,0
DA:568,0
DA:569,0
DA:570,0
DA:571,0
DA:572,0
DA:573,3
DA:577,0
DA:578,0
DA:579,0
DA:580,0
DA:581,0
DA:582,0
DA:583,0
DA:584,0
DA:586,0
DA:588,0
DA:590,0
DA:591,0
DA:592,0
DA:593,0
DA:594,0
DA:595,0
DA:596,0
DA:597,0
DA:598,0
DA:599,0
DA:600,0
DA:601,0
DA:602,0
DA:603,0
DA:604,0
DA:605,0
DA:606,0
DA:607,0
DA:608,0
DA:610,0
DA:613,0
DA:614,0
DA:616,0
DA:618,0
DA:619,0
DA:620,0
DA:621,0
DA:623,0
DA:624,0
DA:625,0
DA:626,0
DA:627,0
DA:628,0
DA:629,0
DA:630,0
DA:631,0
DA:633,0
DA:634,0
DA:635,0
DA:636,0
DA:638,0
DA:639,0
DA:640,0
DA:644,0
DA:645,0
DA:646,0
DA:647,0
DA:648,0
DA:649,0
DA:650,0
DA:652,0
DA:653,0
DA:654,0
DA:655,0
DA:656,0
DA:660,0
DA:661,0
DA:662,0
DA:663,0
DA:664,0
DA:665,0
DA:666,0
DA:671,0
DA:672,0
DA:674,0
DA:675,0
DA:676,0
DA:677,0
DA:678,0
DA:679,0
DA:680,0
DA:682,0
DA:683,0
DA:684,0
DA:685,0
DA:689,0
DA:690,0
DA:691,0
DA:692,0
DA:693,0
DA:694,0
DA:695,0
DA:699,0
DA:700,0
DA:701,0
DA:706,0
DA:707,0
DA:708,0
DA:709,0
DA:710,0
DA:711,0
DA:712,0
DA:713,0
DA:714,0
DA:715,0
DA:716,0
DA:717,0
DA:719,0
DA:720,0
DA:721,0
DA:722,0
DA:724,0
DA:725,0
DA:726,0
DA:730,0
DA:731,0
DA:732,0
DA:733,0
DA:734,0
DA:735,0
DA:736,0
DA:738,0
DA:739,0
DA:740,0
DA:741,0
DA:742,0
DA:746,0
DA:747,0
DA:748,0
DA:749,0
DA:750,0
DA:751,0
DA:752,0
DA:757,0
DA:758,0
DA:761,0
DA:762,0
DA:763,0
DA:766,0
DA:767,0
DA:768,0
DA:769,0
DA:770,0
DA:771,0
DA:772,0
DA:773,0
DA:774,0
DA:776,0
DA:777,0
DA:778,0
DA:779,0
DA:781,0
DA:782,0
DA:783,0
DA:784,0
DA:785,0
DA:787,0
DA:788,0
DA:789,0
DA:790,0
DA:791,0
DA:792,0
DA:793,0
DA:798,0
DA:799,0
DA:800,0
DA:801,0
DA:802,0
DA:806,0
DA:807,0
DA:808,0
DA:809,0
DA:811,0
DA:812,0
DA:813,0
DA:814,0
DA:815,0
DA:816,0
DA:817,0
DA:818,0
DA:819,0
DA:822,0
DA:823,0
DA:824,0
DA:826,0
DA:827,0
DA:828,0
DA:829,0
DA:830,0
DA:831,0
DA:832,0
DA:833,0
DA:834,0
DA:835,0
DA:836,0
DA:837,0
DA:838,0
DA:839,0
DA:841,0
DA:842,0
DA:844,0
DA:846,0
DA:847,0
DA:848,0
DA:849,0
DA:850,0
DA:851,0
DA:852,0
DA:853,0
DA:854,0
DA:856,0
DA:857,0
DA:858,0
DA:859,0
DA:861,0
DA:862,0
DA:863,0
DA:864,0
DA:865,0
DA:866,0
DA:867,0
DA:868,0
DA:869,0
DA:870,0
DA:871,0
DA:873,0
DA:874,0
DA:875,0
DA:876,0
DA:877,0
DA:878,0
DA:879,0
DA:880,0
DA:881,0
DA:882,0
DA:883,0
DA:884,0
DA:885,0
DA:889,0
DA:891,0
DA:892,0
DA:893,0
DA:894,0
DA:895,0
DA:896,0
DA:897,0
DA:899,0
DA:901,0
DA:902,0
DA:903,0
DA:904,0
DA:905,0
DA:906,0
DA:907,0
DA:908,0
DA:909,0
DA:911,0
DA:912,0
DA:913,0
DA:914,0
DA:915,0
DA:917,0
DA:918,0
DA:921,0
DA:922,0
DA:923,0
DA:924,0
DA:925,0
DA:926,0
DA:927,0
DA:929,0
DA:930,0
DA:931,0
DA:932,0
DA:935,0
DA:936,0
DA:937,0
DA:938,0
DA:939,0
DA:940,0
DA:941,0
DA:946,0
DA:947,0
DA:948,0
DA:949,0
DA:950,0
DA:954,0
DA:958,0
DA:959,0
DA:960,0
DA:961,0
DA:962,0
DA:963,0
DA:964,0
DA:965,0
DA:966,0
DA:967,0
DA:968,0
DA:969,0
DA:971,0
DA:973,0
DA:974,0
DA:976,0
DA:977,0
DA:978,0
DA:979,0
DA:980,0
DA:984,0
DA:985,0
DA:986,0
DA:987,0
DA:988,0
DA:989,0
DA:991,0
DA:992,0
DA:994,2
DA:995,2
DA:996,2
DA:997,2
DA:998,2
DA:999,2
DA:1000,0
DA:1001,0
DA:1002,0
DA:1003,0
DA:1004,0
DA:1005,0
DA:1007,0
DA:1008,0
DA:1009,0
DA:1010,0
DA:1011,0
DA:1012,2
DA:1013,0
DA:1015,0
DA:1016,2
DA:1017,2
DA:1019,5
DA:1020,5
DA:1021,5
DA:1022,5
DA:1023,5
DA:1024,5
DA:1026,5
DA:1027,5
DA:1028,5
DA:1029,5
DA:1030,5
DA:1031,1
DA:1032,0
DA:1033,1
DA:1034,4
DA:1036,5
DA:1037,0
DA:1038,0
DA:1039,0
DA:1040,0
DA:1041,5
DA:1042,0
DA:1043,0
DA:1044,5
DA:1045,0
DA:1046,0
DA:1047,5
DA:1048,5
DA:1049,5
DA:1051,5
DA:1052,5
DA:1053,5
DA:1054,5
DA:1056,15
DA:1057,10
DA:1058,10
DA:1059,10
DA:1060,0
DA:1061,0
DA:1062,10
DA:1063,10
DA:1064,2
DA:1065,2
DA:1066,2
DA:1068,10
DA:1069,10
DA:1070,4
DA:1071,4
DA:1072,4
DA:1073,4
DA:1075,4
DA:1076,4
DA:1077,4
DA:1078,4
DA:1080,4
DA:1081,4
DA:1082,4
DA:1083,4
DA:1085,4
DA:1086,1
DA:1087,3
DA:1089,3
DA:1090,3
DA:1091,3
DA:1092,3
DA:1093,3
DA:1094,3
DA:1095,3
DA:1096,3
DA:1097,3
DA:1098,3
DA:1099,3
DA:1100,3
DA:1101,3
DA:1102,3
DA:1103,3
DA:1105,3
DA:1106,3
DA:1107,3
DA:1108,3
DA:1109,3
DA:1110,3
DA:1111,3
DA:1112,3
DA:1113,3
DA:1114,3
DA:1115,3
DA:1116,3
DA:1118,6
DA:1119,1
DA:1120,1
DA:1121,1
DA:1122,1
DA:1123,1
DA:1124,1
DA:1125,1
DA:1126,1
DA:1127,1
DA:1128,1
DA:1129,1
DA:1130,1
DA:1131,1
DA:1132,1
DA:1133,1
DA:1135,1
DA:1136,1
DA:1137,1
DA:1138,1
DA:1140,1
DA:1141,1
DA:1142,1
DA:1143,1
DA:1145,1
DA:1146,1
DA:1147,1
DA:1148,1
DA:1149,1
DA:1150,1
DA:1151,1
DA:1152,1
DA:1153,1
DA:1154,1
DA:1155,1
DA:1156,1
DA:1157,1
DA:1160,5
DA:1161,2
DA:1162,2
DA:1163,2
DA:1165,3
DA:1166,2
DA:1167,2
DA:1168,2
DA:1170,1
DA:1171,1
DA:1172,1
DA:1173,1
DA:1175,0
DA:1179,5
DA:1180,5
DA:1181,5
DA:1182,5
DA:1183,5
DA:1184,5
DA:1185,5
DA:1186,5
DA:1187,5
DA:1208,0
DA:1210,0
DA:1211,0
DA:1212,0
DA:1215,0
DA:1216,0
DA:1217,0
DA:1218,0
DA:1219,0
DA:1220,0
DA:1221,0
DA:1222,0
DA:1223,0
DA:1224,0
DA:1225,0
DA:1226,0
DA:1230,0
DA:1231,0
DA:1232,0
DA:1233,0
DA:1234,0
DA:1235,0
DA:1236,0
DA:1237,0
DA:1239,0
DA:1243,0
DA:1244,0
DA:1245,0
DA:1248,0
DA:1249,0
DA:1250,0
DA:1251,0
DA:1252,0
DA:1254,0
DA:1255,0
DA:1257,0
DA:1258,0
DA:1259,0
DA:1260,0
DA:1261,0
DA:1262,0
DA:1263,0
DA:1264,0
DA:1265,0
DA:1266,0
DA:1267,0
DA:1268,0
DA:1269,0
DA:1270,0
DA:1271,0
DA:1272,0
DA:1273,0
DA:1277,0
DA:1278,0
DA:1279,0
DA:1282,0
DA:1283,0
DA:1284,0
DA:1285,0
DA:1288,0
DA:1289,0
DA:1290,0
DA:1291,0
DA:1293,0
DA:1294,0
DA:1296,0
DA:1297,0
DA:1298,0
DA:1299,0
DA:1300,0
DA:1301,0
DA:1304,0
DA:1305,0
DA:1306,0
DA:1307,0
DA:1308,0
DA:1309,0
DA:1312,0
DA:1313,0
DA:1314,0
DA:1315,0
DA:1316,0
DA:1318,0
DA:1319,0
DA:1321,0
DA:1322,0
DA:1323,0
DA:1324,0
DA:1325,0
DA:1326,0
DA:1329,0
DA:1330,0
DA:1331,0
DA:1334,0
DA:1335,0
DA:1336,0
DA:1337,0
DA:1341,0
DA:1342,0
DA:1343,0
DA:1344,0
DA:1346,0
DA:1347,0
DA:1349,0
DA:1350,0
DA:1351,0
DA:1362,0
DA:1363,0
DA:1364,0
DA:1366,0
DA:1367,0
DA:1374,0
DA:1378,0
DA:1379,0
DA:1380,0
DA:1381,0
DA:1383,0
DA:1385,0
DA:1386,0
DA:1388,0
DA:1390,0
DA:1391,0
DA:1392,0
DA:1393,0
DA:1394,0
DA:1395,0
DA:1397,0
DA:1398,0
DA:1399,0
DA:1400,0
DA:1401,0
DA:1402,0
DA:1404,0
DA:1407,0
DA:1408,0
DA:1409,0
DA:1410,0
DA:1412,0
DA:1413,0
DA:1417,0
DA:1418,0
DA:1419,0
DA:1420,0
DA:1423,0
DA:1424,0
DA:1425,0
DA:1426,0
DA:1427,0
DA:1428,0
DA:1429,0
DA:1430,0
DA:1432,0
DA:1434,0
DA:1435,0
DA:1437,0
DA:1439,0
DA:1440,0
DA:1441,0
DA:1444,0
DA:1445,0
DA:1446,0
DA:1447,0
DA:1450,0
DA:1451,0
DA:1452,0
DA:1453,0
DA:1454,0
DA:1455,0
DA:1456,0
DA:1457,0
DA:1459,0
DA:1461,0
DA:1462,0
DA:1464,0
DA:1466,0
DA:1467,0
DA:1468,0
DA:1476,0
DA:1477,0
DA:1478,0
DA:1479,0
DA:1480,0
DA:1481,0
DA:1482,0
DA:1484,0
DA:1485,0
DA:1486,0
DA:1490,0
DA:1491,0
DA:1492,0
DA:1494,0
DA:1495,0
DA:1496,0
DA:1497,0
DA:1498,0
DA:1499,0
DA:1500,0
DA:1502,0
DA:1504,0
DA:1505,0
DA:1507,0
DA:1509,0
DA:1510,0
DA:1511,0
DA:1514,0
DA:1515,0
DA:1516,0
DA:1517,0
DA:1520,0
DA:1521,0
DA:1522,0
DA:1523,0
DA:1524,0
DA:1525,0
DA:1526,0
DA:1527,0
DA:1529,0
DA:1531,0
DA:1532,0
DA:1534,0
DA:1536,0
DA:1537,0
DA:1538,0
DA:1541,0
DA:1542,0
DA:1543,0
DA:1544,0
DA:1545,0
DA:1546,0
DA:1549,0
DA:1550,0
DA:1552,0
DA:1554,0
DA:1555,0
DA:1557,0
DA:1559,0
DA:1560,0
DA:1561,0
DA:1562,0
DA:1565,0
DA:1566,0
DA:1567,0
DA:1568,0
DA:1569,0
DA:1570,0
DA:1572,0
DA:1573,0
DA:1577,0
DA:1578,0
DA:1579,0
DA:1580,0
DA:1581,0
DA:1582,0
DA:1583,0
DA:1584,0
DA:1585,0
DA:1587,0
DA:1589,0
DA:1590,0
DA:1592,0
DA:1594,0
DA:1595,0
DA:1596,0
DA:1614,4
DA:1615,4
DA:1616,4
DA:1617,4
DA:1618,4
DA:1619,4
DA:1620,4
DA:1621,4
DA:1622,4
DA:1623,5
DA:1624,5
DA:1625,5
DA:1626,5
DA:1627,3
DA:1628,3
DA:1629,3
DA:1630,5
DA:1632,4
DA:1633,4
DA:1691,6
DA:1692,6
DA:1693,6
DA:1694,6
DA:1695,0
DA:1696,0
DA:1697,0
DA:1700,0
DA:1701,0
DA:1702,0
DA:1703,0
DA:1705,0
DA:1706,0
DA:1708,0
DA:1709,0
DA:1710,0
DA:1713,6
DA:1732,20
DA:1733,26
DA:1734,20
DA:1735,7
DA:1736,7
DA:1737,0
DA:1738,7
DA:1739,7
DA:1741,13
DA:1743,20
DA:1745,20
DA:1746,41
DA:1747,20
DA:1748,6
DA:1749,6
DA:1750,6
DA:1751,6
DA:1752,6
DA:1753,0
DA:1754,0
DA:1755,0
DA:1759,0
DA:1760,0
DA:1763,14
DA:1765,20
DA:1767,6
DA:1768,6
DA:1769,6
DA:1770,6
DA:1771,6
DA:1772,6
DA:1773,6
DA:1774,6
DA:1776,0
DA:1779,6
DA:1780,0
DA:1781,6
DA:1783,6
DA:1784,6
DA:1785,6
DA:1786,6
DA:1788,30
DA:1789,24
DA:1790,24
DA:1792,0
DA:1793,0
DA:1796,24
DA:1797,24
DA:1799,0
DA:1800,0
DA:1803,24
DA:1804,24
DA:1805,24
DA:1806,24
DA:1809,6
DA:1810,6
DA:1811,6
DA:1812,6
DA:1813,6
DA:1814,6
DA:1815,6
DA:1816,0
DA:1817,6
DA:1818,6
DA:1820,20
DA:1821,20
DA:1822,20
DA:1823,20
DA:1824,20
DA:1825,14
DA:1826,14
DA:1828,6
DA:1829,0
DA:1830,0
DA:1832,6
DA:1833,6
DA:1834,6
DA:1835,0
DA:1836,6
DA:1837,6
DA:1838,20
DA:1840,20
DA:1841,20
DA:1842,20
DA:1843,20
DA:1844,20
DA:1845,57
DA:1846,125
DA:1847,88
DA:1848,10
DA:1849,10
DA:1850,4
DA:1851,6
DA:1852,78
DA:1855,16
DA:1856,20
DA:1864,1
DA:1867,1
DA:1868,1
DA:1869,1
DA:1870,1
DA:1871,1
DA:1872,1
DA:1873,1
DA:1874,1
DA:1875,1
DA:1876,1
DA:1877,1
DA:1878,1
DA:1879,1
DA:1880,1
DA:1881,1
DA:1882,1
DA:1883,1
DA:1884,1
DA:1885,1
DA:1886,1
DA:1887,1
DA:1888,1
DA:1889,1
DA:1890,1
DA:1891,1
DA:1892,1
DA:1893,1
DA:1894,1
DA:1895,1
DA:1896,1
DA:1897,1
DA:1898,1
DA:1899,1
DA:1901,0
DA:1903,1
DA:1904,1
DA:1905,1
DA:1906,1
DA:1907,1
DA:1908,1
DA:1909,1
DA:1910,1
DA:1911,1
DA:1912,1
DA:1913,0
DA:1915,1
DA:1918,1
DA:1920,1
DA:1921,1
DA:1922,1
DA:1923,1
DA:1924,1
DA:1925,1
DA:1926,1
DA:1927,1
DA:1928,1
DA:1929,1
DA:1930,1
DA:1931,1
DA:1932,1
DA:1933,1
DA:1934,1
DA:1935,1
DA:1936,1
DA:1937,1
DA:1938,1
DA:1939,1
DA:1940,1
DA:1943,1
DA:1944,1
DA:1945,1
DA:1946,1
DA:1947,1
DA:1948,1
DA:1950,1
DA:1951,1
DA:1952,1
DA:1953,1
DA:1954,1
DA:1955,1
DA:1956,1
DA:1957,1
DA:1958,1
DA:1959,1
DA:1960,1
DA:1962,1
DA:1963,1
DA:1964,1
DA:1965,1
DA:1967,1
DA:1968,1
DA:1969,1
DA:1970,1
DA:1971,1
DA:1972,1
DA:1973,1
DA:1974,1
DA:1975,1
DA:1978,1
DA:1979,1
DA:1982,1
DA:1985,1
DA:1986,1
DA:1987,1
DA:1988,1
DA:1989,1
DA:1990,1
DA:1991,1
DA:1992,1
DA:1993,1
DA:1994,1
DA:1996,1
DA:1997,1
DA:1998,1
DA:2001,1
DA:2002,1
DA:2003,1
DA:2005,1
DA:2006,1
DA:2009,1
DA:2010,1
DA:2011,1
DA:2012,1
DA:2013,1
DA:2014,1
DA:2015,1
DA:2016,1
DA:2017,1
DA:2018,1
DA:2019,1
DA:2020,1
DA:2021,1
DA:2023,1
DA:2024,1
DA:2025,1
DA:2027,3
DA:2028,3
DA:2029,3
DA:2030,3
DA:2031,3
DA:2032,3
DA:2033,3
DA:2034,5
DA:2035,5
DA:2036,5
DA:2037,5
DA:2038,5
DA:2039,5
DA:2040,5
DA:2042,5
DA:2043,5
DA:2044,5
DA:2045,5
DA:2046,5
DA:2047,12
DA:2048,12
DA:2049,12
DA:2050,12
DA:2051,12
DA:2052,12
DA:2053,12
DA:2054,12
DA:2055,12
DA:2056,12
DA:2057,12
DA:2058,5
DA:2059,5
DA:2060,5
DA:2061,5
DA:2062,5
DA:2064,5
DA:2067,1
DA:2069,1
DA:2070,1
DA:2071,1
DA:2073,1
DA:2074,1
DA:2075,1
DA:2076,1
DA:2077,1
DA:2078,1
DA:2079,1
DA:2082,1
DA:2083,1
DA:2084,1
DA:2085,1
DA:2087,1
DA:2088,1
DA:2089,1
DA:2090,1
DA:2093,1
DA:2094,1
DA:2095,1
DA:2096,1
DA:2097,1
DA:2098,1
DA:2099,1
DA:2102,1
DA:2103,1
DA:2104,1
DA:2105,1
DA:2106,1
DA:2114,1
DA:2115,1
DA:2116,1
DA:2117,1
DA:2118,1
DA:2119,1
DA:2120,1
DA:2121,1
DA:2122,1
DA:2123,1
DA:2124,1
DA:2125,1
DA:2126,1
DA:2127,1
DA:2128,1
DA:2129,1
DA:2130,1
DA:2131,1
DA:2132,1
DA:2133,1
DA:2134,1
DA:2135,1
DA:2136,1
DA:2137,1
DA:2138,1
DA:2139,1
DA:2140,1
DA:2141,1
DA:2142,1
DA:2143,1
DA:2144,1
DA:2145,1
DA:2146,1
DA:2147,1
DA:2148,1
DA:2149,1
DA:2150,1
DA:2151,1
DA:2152,1
DA:2153,1
DA:2154,1
DA:2155,1
DA:2156,1
DA:2157,1
DA:2158,1
DA:2159,1
DA:2160,1
DA:2161,1
DA:2162,1
DA:2163,1
DA:2164,1
DA:2165,1
DA:2166,1
DA:2167,1
DA:2168,1
DA:2169,1
DA:2170,1
DA:2171,1
DA:2172,1
DA:2173,1
DA:2174,1
DA:2175,1
DA:2176,1
DA:2177,1
DA:2178,1
DA:2179,1
DA:2180,1
DA:2181,1
DA:2182,1
DA:2183,1
DA:2184,1
DA:2185,1
DA:2186,1
DA:2187,1
DA:2188,1
DA:2189,1
DA:2190,1
DA:2191,1
DA:2193,1
DA:2195,1
DA:2196,1
DA:2197,1
DA:2198,1
DA:2199,1
DA:2202,1
DA:2203,1
DA:2204,1
DA:2205,1
DA:2207,1
DA:2208,1
DA:2209,0
DA:2210,0
DA:2212,1
DA:2213,1
DA:2214,0
DA:2215,0
DA:2218,1
DA:2219,1
DA:2220,1
DA:2221,1
DA:2222,1
DA:2223,1
DA:2226,1
DA:2227,1
DA:2228,0
DA:2229,0
DA:2230,0
DA:2231,0
DA:2232,0
DA:2234,1
DA:2241,1
DA:2244,1
DA:2245,1
DA:2246,1
DA:2247,1
DA:2248,1
DA:2249,1
DA:2250,1
DA:2251,1
DA:2252,1
DA:2253,1
DA:2254,1
DA:2255,1
DA:2256,1
DA:2257,1
DA:2258,1
DA:2259,1
DA:2260,1
DA:2261,1
DA:2262,1
DA:2263,1
DA:2264,1
DA:2265,1
DA:2266,1
DA:2267,1
DA:2268,1
DA:2269,1
DA:2270,1
DA:2271,1
DA:2272,1
DA:2273,1
DA:2274,1
DA:2275,0
DA:2277,1
BRF:0
BRH:0
LF:1626
LH:697
end_of_record
SF:/Volumes/Macintosh_HD/Users/user298993/Documents/GitHub/bank-statement-fidelity-editor/src/ai/gemini_client.rs
FN:329,_RNCNCNvMs1_NtNtCshN9TtrzEz6i_22dual_core_pdf_pipeline2ai13gemini_clientNtB9_12GeminiClient13post_generate00Cs9eug7EGnCUa_16ai_backend_tests
FN:395,_RNCNCNvMs1_NtNtCshN9TtrzEz6i_22dual_core_pdf_pipeline2ai13gemini_clientNtB9_12GeminiClient13post_generate0s0_0Cs9eug7EGnCUa_16ai_backend_tests
FN:370,_RNCNCNvMs1_NtNtCshN9TtrzEz6i_22dual_core_pdf_pipeline2ai13gemini_clientNtB9_12GeminiClient13post_generate0s_0Cs9eug7EGnCUa_16ai_backend_tests
FN:325,_RNCNvMs1_NtNtCshN9TtrzEz6i_22dual_core_pdf_pipeline2ai13gemini_clientNtB7_12GeminiClient13post_generate0Cs9eug7EGnCUa_16ai_backend_tests
FN:418,_RNCNvMs1_NtNtCshN9TtrzEz6i_22dual_core_pdf_pipeline2ai13gemini_clientNtB7_12GeminiClient17post_generate_pro0Cs9eug7EGnCUa_16ai_backend_tests
FN:750,_RNCNvMs1_NtNtCshN9TtrzEz6i_22dual_core_pdf_pipeline2ai13gemini_clientNtB7_12GeminiClient28verify_statement_mathematics0Cs9eug7EGnCUa_16ai_backend_tests
FN:1359,_RNCNCNCNCNvNtNtCshN9TtrzEz6i_22dual_core_pdf_pipeline2ai13gemini_client21mint_gcp_access_tokens0_0s0_000Bd_
FN:1367,_RNCNCNCNCNvNtNtCshN9TtrzEz6i_22dual_core_pdf_pipeline2ai13gemini_client21mint_gcp_access_tokens0_0s0_00s_0Bd_
FN:1349,_RNCNCNCNvNtNtCshN9TtrzEz6i_22dual_core_pdf_pipeline2ai13gemini_client21mint_gcp_access_tokens0_0s0_00Bb_
FN:1347,_RNCNCNvNtNtCshN9TtrzEz6i_22dual_core_pdf_pipeline2ai13gemini_client21mint_gcp_access_tokens0_0s0_0B9_
FN:1195,_RNCNCNCNCNvNtNtCshN9TtrzEz6i_22dual_core_pdf_pipeline2ai13gemini_client27mint_gcp_access_token_async0s0_000Bd_
FN:1205,_RNCNCNCNCNvNtNtCshN9TtrzEz6i_22dual_core_pdf_pipeline2ai13gemini_client27mint_gcp_access_token_async0s0_00s_0Bd_
FN:1185,_RNCNCNCNvNtNtCshN9TtrzEz6i_22dual_core_pdf_pipeline2ai13gemini_client27mint_gcp_access_token_async0s0_00Bb_
FN:329,_RNCNCNvMs1_NtNtCshN9TtrzEz6i_22dual_core_pdf_pipeline2ai13gemini_clientNtB9_12GeminiClient13post_generate00Bd_
FN:395,_RNCNCNvMs1_NtNtCshN9TtrzEz6i_22dual_core_pdf_pipeline2ai13gemini_clientNtB9_12GeminiClient13post_generate0s0_0Bd_
FN:370,_RNCNCNvMs1_NtNtCshN9TtrzEz6i_22dual_core_pdf_pipeline2ai13gemini_clientNtB9_12GeminiClient13post_generate0s_0Bd_
FN:263,_RNCNCNvMs1_NtNtCshN9TtrzEz6i_22dual_core_pdf_pipeline2ai13gemini_clientNtB9_12GeminiClient21from_app_config_async00Bd_
FN:737,_RNCNCNvMs1_NtNtCshN9TtrzEz6i_22dual_core_pdf_pipeline2ai13gemini_clientNtB9_12GeminiClient29repair_extracted_transactions00Bd_
FN:740,_RNCNCNvMs1_NtNtCshN9TtrzEz6i_22dual_core_pdf_pipeline2ai13gemini_clientNtB9_12GeminiClient29repair_extracted_transactions0s_0Bd_
FN:1182,_RNCNCNvNtNtCshN9TtrzEz6i_22dual_core_pdf_pipeline2ai13gemini_client27mint_gcp_access_token_async00B9_
FN:1206,_RNCNCNvNtNtCshN9TtrzEz6i_22dual_core_pdf_pipeline2ai13gemini_client27mint_gcp_access_token_async0s0_0B9_
FN:1211,_RNCNCNvNtNtCshN9TtrzEz6i_22dual_core_pdf_pipeline2ai13gemini_client27mint_gcp_access_token_async0s1_0B9_
FN:1213,_RNCNCNvNtNtCshN9TtrzEz6i_22dual_core_pdf_pipeline2ai13gemini_client27mint_gcp_access_token_async0s2_0B9_
FN:1239,_RNCNCNvNtNtCshN9TtrzEz6i_22dual_core_pdf_pipeline2ai13gemini_client27mint_gcp_access_token_async0s3_0B9_
FN:1241,_RNCNCNvNtNtCshN9TtrzEz6i_22dual_core_pdf_pipeline2ai13gemini_client27mint_gcp_access_token_async0s4_0B9_
FN:1256,_RNCNCNvNtNtCshN9TtrzEz6i_22dual_core_pdf_pipeline2ai13gemini_client27mint_gcp_access_token_async0s5_0B9_
FN:1257,_RNCNCNvNtNtCshN9TtrzEz6i_22dual_core_pdf_pipeline2ai13gemini_client27mint_gcp_access_token_async0s6_0B9_
FN:1263,_RNCNCNvNtNtCshN9TtrzEz6i_22dual_core_pdf_pipeline2ai13gemini_client27mint_gcp_access_token_async0s7_0B9_
FN:1265,_RNCNCNvNtNtCshN9TtrzEz6i_22dual_core_pdf_pipeline2ai13gemini_client27mint_gcp_access_token_async0s8_0B9_
FN:1286,_RNCNCNvNtNtCshN9TtrzEz6i_22dual_core_pdf_pipeline2ai13gemini_client27mint_gcp_access_token_async0s9_0B9_
FN:1183,_RNCNCNvNtNtCshN9TtrzEz6i_22dual_core_pdf_pipeline2ai13gemini_client27mint_gcp_access_token_async0s_0B9_
FN:1287,_RNCNCNvNtNtCshN9TtrzEz6i_22dual_core_pdf_pipeline2ai13gemini_client27mint_gcp_access_token_async0sa_0B9_
FN:325,_RNCNvMs1_NtNtCshN9TtrzEz6i_22dual_core_pdf_pipeline2ai13gemini_clientNtB7_12GeminiClient13post_generate0Bb_
FN:418,_RNCNvMs1_NtNtCshN9TtrzEz6i_22dual_core_pdf_pipeline2ai13gemini_clientNtB7_12GeminiClient17post_generate_pro0Bb_
FN:244,_RNCNvMs1_NtNtCshN9TtrzEz6i_22dual_core_pdf_pipeline2ai13gemini_clientNtB7_12GeminiClient21from_app_config_async0Bb_
FN:750,_RNCNvMs1_NtNtCshN9TtrzEz6i_22dual_core_pdf_pipeline2ai13gemini_clientNtB7_12GeminiClient28verify_statement_mathematics0Bb_
FN:687,_RNCNvMs1_NtNtCshN9TtrzEz6i_22dual_core_pdf_pipeline2ai13gemini_clientNtB7_12GeminiClient29repair_extracted_transactions0Bb_
FN:1176,_RNCNvNtNtCshN9TtrzEz6i_22dual_core_pdf_pipeline2ai13gemini_client27mint_gcp_access_token_async0B7_
FN:1087,_RNCNCNvMs1_NtNtCshN9TtrzEz6i_22dual_core_pdf_pipeline2ai13gemini_clientNtB9_12GeminiClient20verify_transfer_math0s0_0Bd_
FN:1084,_RNCNCNvMs1_NtNtCshN9TtrzEz6i_22dual_core_pdf_pipeline2ai13gemini_clientNtB9_12GeminiClient20verify_transfer_math0s_0Bd_
FN:894,_RNCNCNvMs1_NtNtCshN9TtrzEz6i_22dual_core_pdf_pipeline2ai13gemini_clientNtB9_12GeminiClient24validate_render_visually00Bd_
FN:896,_RNCNCNvMs1_NtNtCshN9TtrzEz6i_22dual_core_pdf_pipeline2ai13gemini_clientNtB9_12GeminiClient24validate_render_visually0s_0Bd_
FN:991,_RNCNCNvMs1_NtNtCshN9TtrzEz6i_22dual_core_pdf_pipeline2ai13gemini_clientNtB9_12GeminiClient25plan_transaction_transfer00Bd_
FN:994,_RNCNCNvMs1_NtNtCshN9TtrzEz6i_22dual_core_pdf_pipeline2ai13gemini_clientNtB9_12GeminiClient25plan_transaction_transfer0s_0Bd_
FN:1133,_RNCNCNvMs1_NtNtCshN9TtrzEz6i_22dual_core_pdf_pipeline2ai13gemini_clientNtB9_12GeminiClient27apply_natural_language_edit00Bd_
FN:1153,_RNCNCNvMs1_NtNtCshN9TtrzEz6i_22dual_core_pdf_pipeline2ai13gemini_clientNtB9_12GeminiClient27apply_natural_language_edit0s0_0Bd_
FN:1149,_RNCNCNvMs1_NtNtCshN9TtrzEz6i_22dual_core_pdf_pipeline2ai13gemini_clientNtB9_12GeminiClient27apply_natural_language_edit0s_0Bd_
FN:567,_RNCNCNvMs1_NtNtCshN9TtrzEz6i_22dual_core_pdf_pipeline2ai13gemini_clientNtB9_12GeminiClient27propose_balance_adjustments00Bd_
FN:570,_RNCNCNvMs1_NtNtCshN9TtrzEz6i_22dual_core_pdf_pipeline2ai13gemini_clientNtB9_12GeminiClient27propose_balance_adjustments0s_0Bd_
FN:1009,_RNCNvMs1_NtNtCshN9TtrzEz6i_22dual_core_pdf_pipeline2ai13gemini_clientNtB7_12GeminiClient20verify_transfer_math0Bb_
FN:814,_RNCNvMs1_NtNtCshN9TtrzEz6i_22dual_core_pdf_pipeline2ai13gemini_clientNtB7_12GeminiClient24validate_render_visually0Bb_
FN:909,_RNCNvMs1_NtNtCshN9TtrzEz6i_22dual_core_pdf_pipeline2ai13gemini_clientNtB7_12GeminiClient25plan_transaction_transfer0Bb_
FN:1096,_RNCNvMs1_NtNtCshN9TtrzEz6i_22dual_core_pdf_pipeline2ai13gemini_clientNtB7_12GeminiClient27apply_natural_language_edit0Bb_
FN:496,_RNCNvMs1_NtNtCshN9TtrzEz6i_22dual_core_pdf_pipeline2ai13gemini_clientNtB7_12GeminiClient27propose_balance_adjustments0Bb_
FN:1336,_RNCNCNvNtNtCshN9TtrzEz6i_22dual_core_pdf_pipeline2ai13gemini_client21mint_gcp_access_tokens0_00B9_
FN:1344,_RNCNCNvNtNtCshN9TtrzEz6i_22dual_core_pdf_pipeline2ai13gemini_client21mint_gcp_access_tokens0_0s_0B9_
FN:112,_RNCNvMs0_NtNtCshN9TtrzEz6i_22dual_core_pdf_pipeline2ai13gemini_clientNtB7_18GeminiVisionReport13should_reject0Bb_
FN:219,_RNCNvMs1_NtNtCshN9TtrzEz6i_22dual_core_pdf_pipeline2ai13gemini_clientNtB7_12GeminiClient15from_app_config0Bb_
FN:1307,_RNCNvNtNtCshN9TtrzEz6i_22dual_core_pdf_pipeline2ai13gemini_client21mint_gcp_access_token0B7_
FN:1329,_RNCNvNtNtCshN9TtrzEz6i_22dual_core_pdf_pipeline2ai13gemini_client21mint_gcp_access_tokens0_0B7_
FN:1376,_RNCNvNtNtCshN9TtrzEz6i_22dual_core_pdf_pipeline2ai13gemini_client21mint_gcp_access_tokens1_0B7_
FN:1378,_RNCNvNtNtCshN9TtrzEz6i_22dual_core_pdf_pipeline2ai13gemini_client21mint_gcp_access_tokens2_0B7_
FN:1404,_RNCNvNtNtCshN9TtrzEz6i_22dual_core_pdf_pipeline2ai13gemini_client21mint_gcp_access_tokens3_0B7_
FN:1406,_RNCNvNtNtCshN9TtrzEz6i_22dual_core_pdf_pipeline2ai13gemini_client21mint_gcp_access_tokens4_0B7_
FN:1417,_RNCNvNtNtCshN9TtrzEz6i_22dual_core_pdf_pipeline2ai13gemini_client21mint_gcp_access_tokens5_0B7_
FN:1418,_RNCNvNtNtCshN9TtrzEz6i_22dual_core_pdf_pipeline2ai13gemini_client21mint_gcp_access_tokens6_0B7_
FN:1424,_RNCNvNtNtCshN9TtrzEz6i_22dual_core_pdf_pipeline2ai13gemini_client21mint_gcp_access_tokens7_0B7_
FN:1426,_RNCNvNtNtCshN9TtrzEz6i_22dual_core_pdf_pipeline2ai13gemini_client21mint_gcp_access_tokens8_0B7_
FN:1445,_RNCNvNtNtCshN9TtrzEz6i_22dual_core_pdf_pipeline2ai13gemini_client21mint_gcp_access_tokens9_0B7_
FN:1308,_RNCNvNtNtCshN9TtrzEz6i_22dual_core_pdf_pipeline2ai13gemini_client21mint_gcp_access_tokens_0B7_
FN:1446,_RNCNvNtNtCshN9TtrzEz6i_22dual_core_pdf_pipeline2ai13gemini_client21mint_gcp_access_tokensa_0B7_
FN:1457,_RNCNvNvNtNtCshN9TtrzEz6i_22dual_core_pdf_pipeline2ai13gemini_client9scrub_pii9RE_DIGITS0B9_
FN:26,_RNvMNtNtCshN9TtrzEz6i_22dual_core_pdf_pipeline2ai13gemini_clientNtB2_17GeminiBalancePlan8validate
FN:105,_RNvMs0_NtNtCshN9TtrzEz6i_22dual_core_pdf_pipeline2ai13gemini_clientNtB5_18GeminiVisionReport13should_reject
FN:120,_RNvMs0_NtNtCshN9TtrzEz6i_22dual_core_pdf_pipeline2ai13gemini_clientNtB5_18GeminiVisionReport8validate
FN:321,_RNvMs1_NtNtCshN9TtrzEz6i_22dual_core_pdf_pipeline2ai13gemini_clientNtB5_12GeminiClient13post_generate
FN:457,_RNvMs1_NtNtCshN9TtrzEz6i_22dual_core_pdf_pipeline2ai13gemini_clientNtB5_12GeminiClient13with_base_url
FN:198,_RNvMs1_NtNtCshN9TtrzEz6i_22dual_core_pdf_pipeline2ai13gemini_clientNtB5_12GeminiClient15from_app_config
FN:415,_RNvMs1_NtNtCshN9TtrzEz6i_22dual_core_pdf_pipeline2ai13gemini_clientNtB5_12GeminiClient17post_generate_pro
FN:1005,_RNvMs1_NtNtCshN9TtrzEz6i_22dual_core_pdf_pipeline2ai13gemini_clientNtB5_12GeminiClient20verify_transfer_math
FN:244,_RNvMs1_NtNtCshN9TtrzEz6i_22dual_core_pdf_pipeline2ai13gemini_clientNtB5_12GeminiClient21from_app_config_async
FN:810,_RNvMs1_NtNtCshN9TtrzEz6i_22dual_core_pdf_pipeline2ai13gemini_clientNtB5_12GeminiClient24validate_render_visually
FN:904,_RNvMs1_NtNtCshN9TtrzEz6i_22dual_core_pdf_pipeline2ai13gemini_clientNtB5_12GeminiClient25plan_transaction_transfer
FN:1092,_RNvMs1_NtNtCshN9TtrzEz6i_22dual_core_pdf_pipeline2ai13gemini_clientNtB5_12GeminiClient27apply_natural_language_edit
FN:491,_RNvMs1_NtNtCshN9TtrzEz6i_22dual_core_pdf_pipeline2ai13gemini_clientNtB5_12GeminiClient27propose_balance_adjustments
FN:583,_RNvMs1_NtNtCshN9TtrzEz6i_22dual_core_pdf_pipeline2ai13gemini_clientNtB5_12GeminiClient27validate_parse_completeness
FN:746,_RNvMs1_NtNtCshN9TtrzEz6i_22dual_core_pdf_pipeline2ai13gemini_clientNtB5_12GeminiClient28verify_statement_mathematics
FN:680,_RNvMs1_NtNtCshN9TtrzEz6i_22dual_core_pdf_pipeline2ai13gemini_clientNtB5_12GeminiClient29repair_extracted_transactions
FN:468,_RNvMs1_NtNtCshN9TtrzEz6i_22dual_core_pdf_pipeline2ai13gemini_clientNtB5_12GeminiClient4ping
FN:294,_RNvMs1_NtNtCshN9TtrzEz6i_22dual_core_pdf_pipeline2ai13gemini_clientNtB5_12GeminiClient8endpoint
FN:61,_RNvMs_NtNtCshN9TtrzEz6i_22dual_core_pdf_pipeline2ai13gemini_clientNtB4_24GeminiCompletenessReport8validate
FN:422,_RNvNCNvMs1_NtNtCshN9TtrzEz6i_22dual_core_pdf_pipeline2ai13gemini_clientNtB9_12GeminiClient17post_generate_pro016should_fall_back
FN:1301,_RNvNtNtCshN9TtrzEz6i_22dual_core_pdf_pipeline2ai13gemini_client21mint_gcp_access_token
FN:1174,_RNvNtNtCshN9TtrzEz6i_22dual_core_pdf_pipeline2ai13gemini_client27mint_gcp_access_token_async
FN:1454,_RNvNtNtCshN9TtrzEz6i_22dual_core_pdf_pipeline2ai13gemini_client9scrub_pii
FN:1015,_RNCNCNvMs1_NtNtCshN9TtrzEz6i_22dual_core_pdf_pipeline2ai13gemini_clientNtB9_12GeminiClient20verify_transfer_math00Bd_
FN:1462,_RNCNvNtNtCshN9TtrzEz6i_22dual_core_pdf_pipeline2ai13gemini_client9scrub_pii0B7_
FN:468,_RNCNvMs1_NtNtCshN9TtrzEz6i_22dual_core_pdf_pipeline2ai13gemini_clientNtB7_12GeminiClient4ping0Bb_
FN:636,_RNCNCNvMs1_NtNtCshN9TtrzEz6i_22dual_core_pdf_pipeline2ai13gemini_clientNtB9_12GeminiClient27validate_parse_completeness00Bd_
FN:659,_RNCNCNvMs1_NtNtCshN9TtrzEz6i_22dual_core_pdf_pipeline2ai13gemini_clientNtB9_12GeminiClient27validate_parse_completeness0s0_0Bd_
FN:663,_RNCNCNvMs1_NtNtCshN9TtrzEz6i_22dual_core_pdf_pipeline2ai13gemini_clientNtB9_12GeminiClient27validate_parse_completeness0s1_0Bd_
FN:640,_RNCNCNvMs1_NtNtCshN9TtrzEz6i_22dual_core_pdf_pipeline2ai13gemini_clientNtB9_12GeminiClient27validate_parse_completeness0s_0Bd_
FN:589,_RNCNvMs1_NtNtCshN9TtrzEz6i_22dual_core_pdf_pipeline2ai13gemini_clientNtB7_12GeminiClient27validate_parse_completeness0Bb_
FN:1195,_RNCNCNCNCNvNtNtCshN9TtrzEz6i_22dual_core_pdf_pipeline2ai13gemini_client27mint_gcp_access_token_async0s0_000Csf6zF57cabuO_20ai_document_ai_tests
FN:1205,_RNCNCNCNCNvNtNtCshN9TtrzEz6i_22dual_core_pdf_pipeline2ai13gemini_client27mint_gcp_access_token_async0s0_00s_0Csf6zF57cabuO_20ai_document_ai_tests
FN:1185,_RNCNCNCNvNtNtCshN9TtrzEz6i_22dual_core_pdf_pipeline2ai13gemini_client27mint_gcp_access_token_async0s0_00Csf6zF57cabuO_20ai_document_ai_tests
FN:329,_RNCNCNvMs1_NtNtCshN9TtrzEz6i_22dual_core_pdf_pipeline2ai13gemini_clientNtB9_12GeminiClient13post_generate00Csf6zF57cabuO_20ai_document_ai_tests
FN:395,_RNCNCNvMs1_NtNtCshN9TtrzEz6i_22dual_core_pdf_pipeline2ai13gemini_clientNtB9_12GeminiClient13post_generate0s0_0Csf6zF57cabuO_20ai_document_ai_tests
FN:370,_RNCNCNvMs1_NtNtCshN9TtrzEz6i_22dual_core_pdf_pipeline2ai13gemini_clientNtB9_12GeminiClient13post_generate0s_0Csf6zF57cabuO_20ai_document_ai_tests
FN:263,_RNCNCNvMs1_NtNtCshN9TtrzEz6i_22dual_core_pdf_pipeline2ai13gemini_clientNtB9_12GeminiClient21from_app_config_async00Csf6zF57cabuO_20ai_document_ai_tests
FN:737,_RNCNCNvMs1_NtNtCshN9TtrzEz6i_22dual_core_pdf_pipeline2ai13gemini_clientNtB9_12GeminiClient29repair_extracted_transactions00Csf6zF57cabuO_20ai_document_ai_tests
FN:740,_RNCNCNvMs1_NtNtCshN9TtrzEz6i_22dual_core_pdf_pipeline2ai13gemini_clientNtB9_12GeminiClient29repair_extracted_transactions0s_0Csf6zF57cabuO_20ai_document_ai_tests
FN:1182,_RNCNCNvNtNtCshN9TtrzEz6i_22dual_core_pdf_pipeline2ai13gemini_client27mint_gcp_access_token_async00Csf6zF57cabuO_20ai_document_ai_tests
FN:1206,_RNCNCNvNtNtCshN9TtrzEz6i_22dual_core_pdf_pipeline2ai13gemini_client27mint_gcp_access_token_async0s0_0Csf6zF57cabuO_20ai_document_ai_tests
FN:1211,_RNCNCNvNtNtCshN9TtrzEz6i_22dual_core_pdf_pipeline2ai13gemini_client27mint_gcp_access_token_async0s1_0Csf6zF57cabuO_20ai_document_ai_tests
FN:1213,_RNCNCNvNtNtCshN9TtrzEz6i_22dual_core_pdf_pipeline2ai13gemini_client27mint_gcp_access_token_async0s2_0Csf6zF57cabuO_20ai_document_ai_tests
FN:1239,_RNCNCNvNtNtCshN9TtrzEz6i_22dual_core_pdf_pipeline2ai13gemini_client27mint_gcp_access_token_async0s3_0Csf6zF57cabuO_20ai_document_ai_tests
FN:1241,_RNCNCNvNtNtCshN9TtrzEz6i_22dual_core_pdf_pipeline2ai13gemini_client27mint_gcp_access_token_async0s4_0Csf6zF57cabuO_20ai_document_ai_tests
FN:1256,_RNCNCNvNtNtCshN9TtrzEz6i_22dual_core_pdf_pipeline2ai13gemini_client27mint_gcp_access_token_async0s5_0Csf6zF57cabuO_20ai_document_ai_tests
FN:1257,_RNCNCNvNtNtCshN9TtrzEz6i_22dual_core_pdf_pipeline2ai13gemini_client27mint_gcp_access_token_async0s6_0Csf6zF57cabuO_20ai_document_ai_tests
FN:1263,_RNCNCNvNtNtCshN9TtrzEz6i_22dual_core_pdf_pipeline2ai13gemini_client27mint_gcp_access_token_async0s7_0Csf6zF57cabuO_20ai_document_ai_tests
FN:1265,_RNCNCNvNtNtCshN9TtrzEz6i_22dual_core_pdf_pipeline2ai13gemini_client27mint_gcp_access_token_async0s8_0Csf6zF57cabuO_20ai_document_ai_tests
FN:1286,_RNCNCNvNtNtCshN9TtrzEz6i_22dual_core_pdf_pipeline2ai13gemini_client27mint_gcp_access_token_async0s9_0Csf6zF57cabuO_20ai_document_ai_tests
FN:1183,_RNCNCNvNtNtCshN9TtrzEz6i_22dual_core_pdf_pipeline2ai13gemini_client27mint_gcp_access_token_async0s_0Csf6zF57cabuO_20ai_document_ai_tests
FN:1287,_RNCNCNvNtNtCshN9TtrzEz6i_22dual_core_pdf_pipeline2ai13gemini_client27mint_gcp_access_token_async0sa_0Csf6zF57cabuO_20ai_document_ai_tests
FN:325,_RNCNvMs1_NtNtCshN9TtrzEz6i_22dual_core_pdf_pipeline2ai13gemini_clientNtB7_12GeminiClient13post_generate0Csf6zF57cabuO_20ai_document_ai_tests
FN:418,_RNCNvMs1_NtNtCshN9TtrzEz6i_22dual_core_pdf_pipeline2ai13gemini_clientNtB7_12GeminiClient17post_generate_pro0Csf6zF57cabuO_20ai_document_ai_tests
FN:244,_RNCNvMs1_NtNtCshN9TtrzEz6i_22dual_core_pdf_pipeline2ai13gemini_clientNtB7_12GeminiClient21from_app_config_async0Csf6zF57cabuO_20ai_document_ai_tests
FN:687,_RNCNvMs1_NtNtCshN9TtrzEz6i_22dual_core_pdf_pipeline2ai13gemini_clientNtB7_12GeminiClient29repair_extracted_transactions0Csf6zF57cabuO_20ai_document_ai_tests
FN:1176,_RNCNvNtNtCshN9TtrzEz6i_22dual_core_pdf_pipeline2ai13gemini_client27mint_gcp_access_token_async0Csf6zF57cabuO_20ai_document_ai_tests
FN:329,_RNCNCNvMs1_NtNtCshN9TtrzEz6i_22dual_core_pdf_pipeline2ai13gemini_clientNtB9_12GeminiClient13post_generate00CstetqExZF4E_22ai_gemini_client_tests
FN:395,_RNCNCNvMs1_NtNtCshN9TtrzEz6i_22dual_core_pdf_pipeline2ai13gemini_clientNtB9_12GeminiClient13post_generate0s0_0CstetqExZF4E_22ai_gemini_client_tests
FN:370,_RNCNCNvMs1_NtNtCshN9TtrzEz6i_22dual_core_pdf_pipeline2ai13gemini_clientNtB9_12GeminiClient13post_generate0s_0CstetqExZF4E_22ai_gemini_client_tests
FN:567,_RNCNCNvMs1_NtNtCshN9TtrzEz6i_22dual_core_pdf_pipeline2ai13gemini_clientNtB9_12GeminiClient27propose_balance_adjustments00CstetqExZF4E_22ai_gemini_client_tests
FN:570,_RNCNCNvMs1_NtNtCshN9TtrzEz6i_22dual_core_pdf_pipeline2ai13gemini_clientNtB9_12GeminiClient27propose_balance_adjustments0s_0CstetqExZF4E_22ai_gemini_client_tests
FN:325,_RNCNvMs1_NtNtCshN9TtrzEz6i_22dual_core_pdf_pipeline2ai13gemini_clientNtB7_12GeminiClient13post_generate0CstetqExZF4E_22ai_gemini_client_tests
FN:418,_RNCNvMs1_NtNtCshN9TtrzEz6i_22dual_core_pdf_pipeline2ai13gemini_clientNtB7_12GeminiClient17post_generate_pro0CstetqExZF4E_22ai_gemini_client_tests
FN:496,_RNCNvMs1_NtNtCshN9TtrzEz6i_22dual_core_pdf_pipeline2ai13gemini_clientNtB7_12GeminiClient27propose_balance_adjustments0CstetqExZF4E_22ai_gemini_client_tests
FN:1195,_RNCNCNCNCNvNtNtCshN9TtrzEz6i_22dual_core_pdf_pipeline2ai13gemini_client27mint_gcp_access_token_async0s0_000CshaMNJSpjAve_7ai_live
FN:1205,_RNCNCNCNCNvNtNtCshN9TtrzEz6i_22dual_core_pdf_pipeline2ai13gemini_client27mint_gcp_access_token_async0s0_00s_0CshaMNJSpjAve_7ai_live
FN:1185,_RNCNCNCNvNtNtCshN9TtrzEz6i_22dual_core_pdf_pipeline2ai13gemini_client27mint_gcp_access_token_async0s0_00CshaMNJSpjAve_7ai_live
FN:329,_RNCNCNvMs1_NtNtCshN9TtrzEz6i_22dual_core_pdf_pipeline2ai13gemini_clientNtB9_12GeminiClient13post_generate00CshaMNJSpjAve_7ai_live
FN:395,_RNCNCNvMs1_NtNtCshN9TtrzEz6i_22dual_core_pdf_pipeline2ai13gemini_clientNtB9_12GeminiClient13post_generate0s0_0CshaMNJSpjAve_7ai_live
FN:370,_RNCNCNvMs1_NtNtCshN9TtrzEz6i_22dual_core_pdf_pipeline2ai13gemini_clientNtB9_12GeminiClient13post_generate0s_0CshaMNJSpjAve_7ai_live
FN:263,_RNCNCNvMs1_NtNtCshN9TtrzEz6i_22dual_core_pdf_pipeline2ai13gemini_clientNtB9_12GeminiClient21from_app_config_async00CshaMNJSpjAve_7ai_live
FN:567,_RNCNCNvMs1_NtNtCshN9TtrzEz6i_22dual_core_pdf_pipeline2ai13gemini_clientNtB9_12GeminiClient27propose_balance_adjustments00CshaMNJSpjAve_7ai_live
FN:570,_RNCNCNvMs1_NtNtCshN9TtrzEz6i_22dual_core_pdf_pipeline2ai13gemini_clientNtB9_12GeminiClient27propose_balance_adjustments0s_0CshaMNJSpjAve_7ai_live
FN:737,_RNCNCNvMs1_NtNtCshN9TtrzEz6i_22dual_core_pdf_pipeline2ai13gemini_clientNtB9_12GeminiClient29repair_extracted_transactions00CshaMNJSpjAve_7ai_live
FN:740,_RNCNCNvMs1_NtNtCshN9TtrzEz6i_22dual_core_pdf_pipeline2ai13gemini_clientNtB9_12GeminiClient29repair_extracted_transactions0s_0CshaMNJSpjAve_7ai_live
FN:1182,_RNCNCNvNtNtCshN9TtrzEz6i_22dual_core_pdf_pipeline2ai13gemini_client27mint_gcp_access_token_async00CshaMNJSpjAve_7ai_live
FN:1206,_RNCNCNvNtNtCshN9TtrzEz6i_22dual_core_pdf_pipeline2ai13gemini_client27mint_gcp_access_token_async0s0_0CshaMNJSpjAve_7ai_live
FN:1211,_RNCNCNvNtNtCshN9TtrzEz6i_22dual_core_pdf_pipeline2ai13gemini_client27mint_gcp_access_token_async0s1_0CshaMNJSpjAve_7ai_live
FN:1213,_RNCNCNvNtNtCshN9TtrzEz6i_22dual_core_pdf_pipeline2ai13gemini_client27mint_gcp_access_token_async0s2_0CshaMNJSpjAve_7ai_live
FN:1239,_RNCNCNvNtNtCshN9TtrzEz6i_22dual_core_pdf_pipeline2ai13gemini_client27mint_gcp_access_token_async0s3_0CshaMNJSpjAve_7ai_live
FN:1241,_RNCNCNvNtNtCshN9TtrzEz6i_22dual_core_pdf_pipeline2ai13gemini_client27mint_gcp_access_token_async0s4_0CshaMNJSpjAve_7ai_live
FN:1256,_RNCNCNvNtNtCshN9TtrzEz6i_22dual_core_pdf_pipeline2ai13gemini_client27mint_gcp_access_token_async0s5_0CshaMNJSpjAve_7ai_live
FN:1257,_RNCNCNvNtNtCshN9TtrzEz6i_22dual_core_pdf_pipeline2ai13gemini_client27mint_gcp_access_token_async0s6_0CshaMNJSpjAve_7ai_live
FN:1263,_RNCNCNvNtNtCshN9TtrzEz6i_22dual_core_pdf_pipeline2ai13gemini_client27mint_gcp_access_token_async0s7_0CshaMNJSpjAve_7ai_live
FN:1265,_RNCNCNvNtNtCshN9TtrzEz6i_22dual_core_pdf_pipeline2ai13gemini_client27mint_gcp_access_token_async0s8_0CshaMNJSpjAve_7ai_live
FN:1286,_RNCNCNvNtNtCshN9TtrzEz6i_22dual_core_pdf_pipeline2ai13gemini_client27mint_gcp_access_token_async0s9_0CshaMNJSpjAve_7ai_live
FN:1183,_RNCNCNvNtNtCshN9TtrzEz6i_22dual_core_pdf_pipeline2ai13gemini_client27mint_gcp_access_token_async0s_0CshaMNJSpjAve_7ai_live
FN:1287,_RNCNCNvNtNtCshN9TtrzEz6i_22dual_core_pdf_pipeline2ai13gemini_client27mint_gcp_access_token_async0sa_0CshaMNJSpjAve_7ai_live
FN:325,_RNCNvMs1_NtNtCshN9TtrzEz6i_22dual_core_pdf_pipeline2ai13gemini_clientNtB7_12GeminiClient13post_generate0CshaMNJSpjAve_7ai_live
FN:418,_RNCNvMs1_NtNtCshN9TtrzEz6i_22dual_core_pdf_pipeline2ai13gemini_clientNtB7_12GeminiClient17post_generate_pro0CshaMNJSpjAve_7ai_live
FN:244,_RNCNvMs1_NtNtCshN9TtrzEz6i_22dual_core_pdf_pipeline2ai13gemini_clientNtB7_12GeminiClient21from_app_config_async0CshaMNJSpjAve_7ai_live
FN:496,_RNCNvMs1_NtNtCshN9TtrzEz6i_22dual_core_pdf_pipeline2ai13gemini_clientNtB7_12GeminiClient27propose_balance_adjustments0CshaMNJSpjAve_7ai_live
FN:687,_RNCNvMs1_NtNtCshN9TtrzEz6i_22dual_core_pdf_pipeline2ai13gemini_clientNtB7_12GeminiClient29repair_extracted_transactions0CshaMNJSpjAve_7ai_live
FN:1176,_RNCNvNtNtCshN9TtrzEz6i_22dual_core_pdf_pipeline2ai13gemini_client27mint_gcp_access_token_async0CshaMNJSpjAve_7ai_live
FN:329,_RNCNCNvMs1_NtNtCshN9TtrzEz6i_22dual_core_pdf_pipeline2ai13gemini_clientNtB9_12GeminiClient13post_generate00Cs1dXm4FxIgQC_13ai_loop_tests
FN:395,_RNCNCNvMs1_NtNtCshN9TtrzEz6i_22dual_core_pdf_pipeline2ai13gemini_clientNtB9_12GeminiClient13post_generate0s0_0Cs1dXm4FxIgQC_13ai_loop_tests
FN:370,_RNCNCNvMs1_NtNtCshN9TtrzEz6i_22dual_core_pdf_pipeline2ai13gemini_clientNtB9_12GeminiClient13post_generate0s_0Cs1dXm4FxIgQC_13ai_loop_tests
FN:737,_RNCNCNvMs1_NtNtCshN9TtrzEz6i_22dual_core_pdf_pipeline2ai13gemini_clientNtB9_12GeminiClient29repair_extracted_transactions00Cs1dXm4FxIgQC_13ai_loop_tests
FN:740,_RNCNCNvMs1_NtNtCshN9TtrzEz6i_22dual_core_pdf_pipeline2ai13gemini_clientNtB9_12GeminiClient29repair_extracted_transactions0s_0Cs1dXm4FxIgQC_13ai_loop_tests
FN:325,_RNCNvMs1_NtNtCshN9TtrzEz6i_22dual_core_pdf_pipeline2ai13gemini_clientNtB7_12GeminiClient13post_generate0Cs1dXm4FxIgQC_13ai_loop_tests
FN:418,_RNCNvMs1_NtNtCshN9TtrzEz6i_22dual_core_pdf_pipeline2ai13gemini_clientNtB7_12GeminiClient17post_generate_pro0Cs1dXm4FxIgQC_13ai_loop_tests
FN:687,_RNCNvMs1_NtNtCshN9TtrzEz6i_22dual_core_pdf_pipeline2ai13gemini_clientNtB7_12GeminiClient29repair_extracted_transactions0Cs1dXm4FxIgQC_13ai_loop_tests
FN:329,_RNCNCNvMs1_NtNtCshN9TtrzEz6i_22dual_core_pdf_pipeline2ai13gemini_clientNtB9_12GeminiClient13post_generate00CscbEv8trNfeN_15api_chaos_tests
FN:395,_RNCNCNvMs1_NtNtCshN9TtrzEz6i_22dual_core_pdf_pipeline2ai13gemini_clientNtB9_12GeminiClient13post_generate0s0_0CscbEv8trNfeN_15api_chaos_tests
FN:370,_RNCNCNvMs1_NtNtCshN9TtrzEz6i_22dual_core_pdf_pipeline2ai13gemini_clientNtB9_12GeminiClient13post_generate0s_0CscbEv8trNfeN_15api_chaos_tests
FN:325,_RNCNvMs1_NtNtCshN9TtrzEz6i_22dual_core_pdf_pipeline2ai13gemini_clientNtB7_12GeminiClient13post_generate0CscbEv8trNfeN_15api_chaos_tests
FN:468,_RNCNvMs1_NtNtCshN9TtrzEz6i_22dual_core_pdf_pipeline2ai13gemini_clientNtB7_12GeminiClient4ping0CscbEv8trNfeN_15api_chaos_tests
FN:329,_RNCNCNvMs1_NtNtCshN9TtrzEz6i_22dual_core_pdf_pipeline2ai13gemini_clientNtB9_12GeminiClient13post_generate00Cs8rgthVp5iEY_11chaos_tests
FN:395,_RNCNCNvMs1_NtNtCshN9TtrzEz6i_22dual_core_pdf_pipeline2ai13gemini_clientNtB9_12GeminiClient13post_generate0s0_0Cs8rgthVp5iEY_11chaos_tests
FN:370,_RNCNCNvMs1_NtNtCshN9TtrzEz6i_22dual_core_pdf_pipeline2ai13gemini_clientNtB9_12GeminiClient13post_generate0s_0Cs8rgthVp5iEY_11chaos_tests
FN:737,_RNCNCNvMs1_NtNtCshN9TtrzEz6i_22dual_core_pdf_pipeline2ai13gemini_clientNtB9_12GeminiClient29repair_extracted_transactions00Cs8rgthVp5iEY_11chaos_tests
FN:740,_RNCNCNvMs1_NtNtCshN9TtrzEz6i_22dual_core_pdf_pipeline2ai13gemini_clientNtB9_12GeminiClient29repair_extracted_transactions0s_0Cs8rgthVp5iEY_11chaos_tests
FN:325,_RNCNvMs1_NtNtCshN9TtrzEz6i_22dual_core_pdf_pipeline2ai13gemini_clientNtB7_12GeminiClient13post_generate0Cs8rgthVp5iEY_11chaos_tests
FN:418,_RNCNvMs1_NtNtCshN9TtrzEz6i_22dual_core_pdf_pipeline2ai13gemini_clientNtB7_12GeminiClient17post_generate_pro0Cs8rgthVp5iEY_11chaos_tests
FN:687,_RNCNvMs1_NtNtCshN9TtrzEz6i_22dual_core_pdf_pipeline2ai13gemini_clientNtB7_12GeminiClient29repair_extracted_transactions0Cs8rgthVp5iEY_11chaos_tests
FN:1462,_RNCNvNtNtCsdGsEM3RpwG4_22dual_core_pdf_pipeline2ai13gemini_client9scrub_pii0B7_
FN:1359,_RNCNCNCNCNvNtNtCsdGsEM3RpwG4_22dual_core_pdf_pipeline2ai13gemini_client21mint_gcp_access_tokens0_0s0_000Bd_
FN:1367,_RNCNCNCNCNvNtNtCsdGsEM3RpwG4_22dual_core_pdf_pipeline2ai13gemini_client21mint_gcp_access_tokens0_0s0_00s_0Bd_
FN:1195,_RNCNCNCNCNvNtNtCsdGsEM3RpwG4_22dual_core_pdf_pipeline2ai13gemini_client27mint_gcp_access_token_async0s0_000Bd_
FN:1205,_RNCNCNCNCNvNtNtCsdGsEM3RpwG4_22dual_core_pdf_pipeline2ai13gemini_client27mint_gcp_access_token_async0s0_00s_0Bd_
FN:1349,_RNCNCNCNvNtNtCsdGsEM3RpwG4_22dual_core_pdf_pipeline2ai13gemini_client21mint_gcp_access_tokens0_0s0_00Bb_
FN:1185,_RNCNCNCNvNtNtCsdGsEM3RpwG4_22dual_core_pdf_pipeline2ai13gemini_client27mint_gcp_access_token_async0s0_00Bb_
FN:1015,_RNCNCNvMs1_NtNtCsdGsEM3RpwG4_22dual_core_pdf_pipeline2ai13gemini_clientNtB9_12GeminiClient20verify_transfer_math00Bd_
FN:1087,_RNCNCNvMs1_NtNtCsdGsEM3RpwG4_22dual_core_pdf_pipeline2ai13gemini_clientNtB9_12GeminiClient20verify_transfer_math0s0_0Bd_
FN:1084,_RNCNCNvMs1_NtNtCsdGsEM3RpwG4_22dual_core_pdf_pipeline2ai13gemini_clientNtB9_12GeminiClient20verify_transfer_math0s_0Bd_
FN:263,_RNCNCNvMs1_NtNtCsdGsEM3RpwG4_22dual_core_pdf_pipeline2ai13gemini_clientNtB9_12GeminiClient21from_app_config_async00Bd_
FN:894,_RNCNCNvMs1_NtNtCsdGsEM3RpwG4_22dual_core_pdf_pipeline2ai13gemini_clientNtB9_12GeminiClient24validate_render_visually00Bd_
FN:896,_RNCNCNvMs1_NtNtCsdGsEM3RpwG4_22dual_core_pdf_pipeline2ai13gemini_clientNtB9_12GeminiClient24validate_render_visually0s_0Bd_
FN:991,_RNCNCNvMs1_NtNtCsdGsEM3RpwG4_22dual_core_pdf_pipeline2ai13gemini_clientNtB9_12GeminiClient25plan_transaction_transfer00Bd_
FN:994,_RNCNCNvMs1_NtNtCsdGsEM3RpwG4_22dual_core_pdf_pipeline2ai13gemini_clientNtB9_12GeminiClient25plan_transaction_transfer0s_0Bd_
FN:1133,_RNCNCNvMs1_NtNtCsdGsEM3RpwG4_22dual_core_pdf_pipeline2ai13gemini_clientNtB9_12GeminiClient27apply_natural_language_edit00Bd_
FN:1153,_RNCNCNvMs1_NtNtCsdGsEM3RpwG4_22dual_core_pdf_pipeline2ai13gemini_clientNtB9_12GeminiClient27apply_natural_language_edit0s0_0Bd_
FN:1149,_RNCNCNvMs1_NtNtCsdGsEM3RpwG4_22dual_core_pdf_pipeline2ai13gemini_clientNtB9_12GeminiClient27apply_natural_language_edit0s_0Bd_
FN:636,_RNCNCNvMs1_NtNtCsdGsEM3RpwG4_22dual_core_pdf_pipeline2ai13gemini_clientNtB9_12GeminiClient27validate_parse_completeness00Bd_
FN:659,_RNCNCNvMs1_NtNtCsdGsEM3RpwG4_22dual_core_pdf_pipeline2ai13gemini_clientNtB9_12GeminiClient27validate_parse_completeness0s0_0Bd_
FN:663,_RNCNCNvMs1_NtNtCsdGsEM3RpwG4_22dual_core_pdf_pipeline2ai13gemini_clientNtB9_12GeminiClient27validate_parse_completeness0s1_0Bd_
FN:640,_RNCNCNvMs1_NtNtCsdGsEM3RpwG4_22dual_core_pdf_pipeline2ai13gemini_clientNtB9_12GeminiClient27validate_parse_completeness0s_0Bd_
FN:737,_RNCNCNvMs1_NtNtCsdGsEM3RpwG4_22dual_core_pdf_pipeline2ai13gemini_clientNtB9_12GeminiClient29repair_extracted_transactions00Bd_
FN:740,_RNCNCNvMs1_NtNtCsdGsEM3RpwG4_22dual_core_pdf_pipeline2ai13gemini_clientNtB9_12GeminiClient29repair_extracted_transactions0s_0Bd_
FN:1336,_RNCNCNvNtNtCsdGsEM3RpwG4_22dual_core_pdf_pipeline2ai13gemini_client21mint_gcp_access_tokens0_00B9_
FN:1347,_RNCNCNvNtNtCsdGsEM3RpwG4_22dual_core_pdf_pipeline2ai13gemini_client21mint_gcp_access_tokens0_0s0_0B9_
FN:1344,_RNCNCNvNtNtCsdGsEM3RpwG4_22dual_core_pdf_pipeline2ai13gemini_client21mint_gcp_access_tokens0_0s_0B9_
FN:1182,_RNCNCNvNtNtCsdGsEM3RpwG4_22dual_core_pdf_pipeline2ai13gemini_client27mint_gcp_access_token_async00B9_
FN:1206,_RNCNCNvNtNtCsdGsEM3RpwG4_22dual_core_pdf_pipeline2ai13gemini_client27mint_gcp_access_token_async0s0_0B9_
FN:1211,_RNCNCNvNtNtCsdGsEM3RpwG4_22dual_core_pdf_pipeline2ai13gemini_client27mint_gcp_access_token_async0s1_0B9_
FN:1213,_RNCNCNvNtNtCsdGsEM3RpwG4_22dual_core_pdf_pipeline2ai13gemini_client27mint_gcp_access_token_async0s2_0B9_
FN:1239,_RNCNCNvNtNtCsdGsEM3RpwG4_22dual_core_pdf_pipeline2ai13gemini_client27mint_gcp_access_token_async0s3_0B9_
FN:1241,_RNCNCNvNtNtCsdGsEM3RpwG4_22dual_core_pdf_pipeline2ai13gemini_client27mint_gcp_access_token_async0s4_0B9_
FN:1256,_RNCNCNvNtNtCsdGsEM3RpwG4_22dual_core_pdf_pipeline2ai13gemini_client27mint_gcp_access_token_async0s5_0B9_
FN:1257,_RNCNCNvNtNtCsdGsEM3RpwG4_22dual_core_pdf_pipeline2ai13gemini_client27mint_gcp_access_token_async0s6_0B9_
FN:1263,_RNCNCNvNtNtCsdGsEM3RpwG4_22dual_core_pdf_pipeline2ai13gemini_client27mint_gcp_access_token_async0s7_0B9_
FN:1265,_RNCNCNvNtNtCsdGsEM3RpwG4_22dual_core_pdf_pipeline2ai13gemini_client27mint_gcp_access_token_async0s8_0B9_
FN:1286,_RNCNCNvNtNtCsdGsEM3RpwG4_22dual_core_pdf_pipeline2ai13gemini_client27mint_gcp_access_token_async0s9_0B9_
FN:1183,_RNCNCNvNtNtCsdGsEM3RpwG4_22dual_core_pdf_pipeline2ai13gemini_client27mint_gcp_access_token_async0s_0B9_
FN:1287,_RNCNCNvNtNtCsdGsEM3RpwG4_22dual_core_pdf_pipeline2ai13gemini_client27mint_gcp_access_token_async0sa_0B9_
FN:219,_RNCNvMs1_NtNtCsdGsEM3RpwG4_22dual_core_pdf_pipeline2ai13gemini_clientNtB7_12GeminiClient15from_app_config0Bb_
FN:1009,_RNCNvMs1_NtNtCsdGsEM3RpwG4_22dual_core_pdf_pipeline2ai13gemini_clientNtB7_12GeminiClient20verify_transfer_math0Bb_
FN:244,_RNCNvMs1_NtNtCsdGsEM3RpwG4_22dual_core_pdf_pipeline2ai13gemini_clientNtB7_12GeminiClient21from_app_config_async0Bb_
FN:814,_RNCNvMs1_NtNtCsdGsEM3RpwG4_22dual_core_pdf_pipeline2ai13gemini_clientNtB7_12GeminiClient24validate_render_visually0Bb_
FN:909,_RNCNvMs1_NtNtCsdGsEM3RpwG4_22dual_core_pdf_pipeline2ai13gemini_clientNtB7_12GeminiClient25plan_transaction_transfer0Bb_
FN:1096,_RNCNvMs1_NtNtCsdGsEM3RpwG4_22dual_core_pdf_pipeline2ai13gemini_clientNtB7_12GeminiClient27apply_natural_language_edit0Bb_
FN:589,_RNCNvMs1_NtNtCsdGsEM3RpwG4_22dual_core_pdf_pipeline2ai13gemini_clientNtB7_12GeminiClient27validate_parse_completeness0Bb_
FN:750,_RNCNvMs1_NtNtCsdGsEM3RpwG4_22dual_core_pdf_pipeline2ai13gemini_clientNtB7_12GeminiClient28verify_statement_mathematics0Bb_
FN:687,_RNCNvMs1_NtNtCsdGsEM3RpwG4_22dual_core_pdf_pipeline2ai13gemini_clientNtB7_12GeminiClient29repair_extracted_transactions0Bb_
FN:468,_RNCNvMs1_NtNtCsdGsEM3RpwG4_22dual_core_pdf_pipeline2ai13gemini_clientNtB7_12GeminiClient4ping0Bb_
FN:1307,_RNCNvNtNtCsdGsEM3RpwG4_22dual_core_pdf_pipeline2ai13gemini_client21mint_gcp_access_token0B7_
FN:1329,_RNCNvNtNtCsdGsEM3RpwG4_22dual_core_pdf_pipeline2ai13gemini_client21mint_gcp_access_tokens0_0B7_
FN:1376,_RNCNvNtNtCsdGsEM3RpwG4_22dual_core_pdf_pipeline2ai13gemini_client21mint_gcp_access_tokens1_0B7_
FN:1378,_RNCNvNtNtCsdGsEM3RpwG4_22dual_core_pdf_pipeline2ai13gemini_client21mint_gcp_access_tokens2_0B7_
FN:1404,_RNCNvNtNtCsdGsEM3RpwG4_22dual_core_pdf_pipeline2ai13gemini_client21mint_gcp_access_tokens3_0B7_
FN:1406,_RNCNvNtNtCsdGsEM3RpwG4_22dual_core_pdf_pipeline2ai13gemini_client21mint_gcp_access_tokens4_0B7_
FN:1417,_RNCNvNtNtCsdGsEM3RpwG4_22dual_core_pdf_pipeline2ai13gemini_client21mint_gcp_access_tokens5_0B7_
FN:1418,_RNCNvNtNtCsdGsEM3RpwG4_22dual_core_pdf_pipeline2ai13gemini_client21mint_gcp_access_tokens6_0B7_
FN:1424,_RNCNvNtNtCsdGsEM3RpwG4_22dual_core_pdf_pipeline2ai13gemini_client21mint_gcp_access_tokens7_0B7_
FN:1426,_RNCNvNtNtCsdGsEM3RpwG4_22dual_core_pdf_pipeline2ai13gemini_client21mint_gcp_access_tokens8_0B7_
FN:1445,_RNCNvNtNtCsdGsEM3RpwG4_22dual_core_pdf_pipeline2ai13gemini_client21mint_gcp_access_tokens9_0B7_
FN:1308,_RNCNvNtNtCsdGsEM3RpwG4_22dual_core_pdf_pipeline2ai13gemini_client21mint_gcp_access_tokens_0B7_
FN:1446,_RNCNvNtNtCsdGsEM3RpwG4_22dual_core_pdf_pipeline2ai13gemini_client21mint_gcp_access_tokensa_0B7_
FN:1176,_RNCNvNtNtCsdGsEM3RpwG4_22dual_core_pdf_pipeline2ai13gemini_client27mint_gcp_access_token_async0B7_
FN:120,_RNvMs0_NtNtCsdGsEM3RpwG4_22dual_core_pdf_pipeline2ai13gemini_clientNtB5_18GeminiVisionReport8validate
FN:198,_RNvMs1_NtNtCsdGsEM3RpwG4_22dual_core_pdf_pipeline2ai13gemini_clientNtB5_12GeminiClient15from_app_config
FN:1005,_RNvMs1_NtNtCsdGsEM3RpwG4_22dual_core_pdf_pipeline2ai13gemini_clientNtB5_12GeminiClient20verify_transfer_math
FN:244,_RNvMs1_NtNtCsdGsEM3RpwG4_22dual_core_pdf_pipeline2ai13gemini_clientNtB5_12GeminiClient21from_app_config_async
FN:810,_RNvMs1_NtNtCsdGsEM3RpwG4_22dual_core_pdf_pipeline2ai13gemini_clientNtB5_12GeminiClient24validate_render_visually
FN:904,_RNvMs1_NtNtCsdGsEM3RpwG4_22dual_core_pdf_pipeline2ai13gemini_clientNtB5_12GeminiClient25plan_transaction_transfer
FN:1092,_RNvMs1_NtNtCsdGsEM3RpwG4_22dual_core_pdf_pipeline2ai13gemini_clientNtB5_12GeminiClient27apply_natural_language_edit
FN:583,_RNvMs1_NtNtCsdGsEM3RpwG4_22dual_core_pdf_pipeline2ai13gemini_clientNtB5_12GeminiClient27validate_parse_completeness
FN:746,_RNvMs1_NtNtCsdGsEM3RpwG4_22dual_core_pdf_pipeline2ai13gemini_clientNtB5_12GeminiClient28verify_statement_mathematics
FN:680,_RNvMs1_NtNtCsdGsEM3RpwG4_22dual_core_pdf_pipeline2ai13gemini_clientNtB5_12GeminiClient29repair_extracted_transactions
FN:468,_RNvMs1_NtNtCsdGsEM3RpwG4_22dual_core_pdf_pipeline2ai13gemini_clientNtB5_12GeminiClient4ping
FN:61,_RNvMs_NtNtCsdGsEM3RpwG4_22dual_core_pdf_pipeline2ai13gemini_clientNtB4_24GeminiCompletenessReport8validate
FN:1301,_RNvNtNtCsdGsEM3RpwG4_22dual_core_pdf_pipeline2ai13gemini_client21mint_gcp_access_token
FN:1174,_RNvNtNtCsdGsEM3RpwG4_22dual_core_pdf_pipeline2ai13gemini_client27mint_gcp_access_token_async
FN:329,_RNCNCNvMs1_NtNtCsdGsEM3RpwG4_22dual_core_pdf_pipeline2ai13gemini_clientNtB9_12GeminiClient13post_generate00Bd_
FN:395,_RNCNCNvMs1_NtNtCsdGsEM3RpwG4_22dual_core_pdf_pipeline2ai13gemini_clientNtB9_12GeminiClient13post_generate0s0_0Bd_
FN:370,_RNCNCNvMs1_NtNtCsdGsEM3RpwG4_22dual_core_pdf_pipeline2ai13gemini_clientNtB9_12GeminiClient13post_generate0s_0Bd_
FN:567,_RNCNCNvMs1_NtNtCsdGsEM3RpwG4_22dual_core_pdf_pipeline2ai13gemini_clientNtB9_12GeminiClient27propose_balance_adjustments00Bd_
FN:570,_RNCNCNvMs1_NtNtCsdGsEM3RpwG4_22dual_core_pdf_pipeline2ai13gemini_clientNtB9_12GeminiClient27propose_balance_adjustments0s_0Bd_
FN:325,_RNCNvMs1_NtNtCsdGsEM3RpwG4_22dual_core_pdf_pipeline2ai13gemini_clientNtB7_12GeminiClient13post_generate0Bb_
FN:418,_RNCNvMs1_NtNtCsdGsEM3RpwG4_22dual_core_pdf_pipeline2ai13gemini_clientNtB7_12GeminiClient17post_generate_pro0Bb_
FN:496,_RNCNvMs1_NtNtCsdGsEM3RpwG4_22dual_core_pdf_pipeline2ai13gemini_clientNtB7_12GeminiClient27propose_balance_adjustments0Bb_
FN:1536,_RNCNvNtNtNtCsdGsEM3RpwG4_22dual_core_pdf_pipeline2ai13gemini_client5testss_37low_confidence_response_returns_error0B9_
FN:1576,_RNvNtNtNtCsdGsEM3RpwG4_22dual_core_pdf_pipeline2ai13gemini_client5tests3hot
FN:1536,_RNvNtNtNtCsdGsEM3RpwG4_22dual_core_pdf_pipeline2ai13gemini_client5testss_37low_confidence_response_returns_error
FN:1479,_RNvNtNtNtCsdGsEM3RpwG4_22dual_core_pdf_pipeline2ai13gemini_client5testss_45request_body_uses_camelcase_and_object_schema
FN:1621,_RNvNtNtNtCsdGsEM3RpwG4_22dual_core_pdf_pipeline2ai13gemini_client5testss_47vision_accepts_pristine_render_with_no_hotspots
FN:1585,_RNvNtNtNtCsdGsEM3RpwG4_22dual_core_pdf_pipeline2ai13gemini_client5testss_48vision_should_reject_when_overall_score_too_high
FN:1609,_RNvNtNtNtCsdGsEM3RpwG4_22dual_core_pdf_pipeline2ai13gemini_client5testss_51vision_should_accept_when_hotspots_overlap_intended
FN:1597,_RNvNtNtNtCsdGsEM3RpwG4_22dual_core_pdf_pipeline2ai13gemini_client5testss_57vision_should_reject_when_hotspot_outside_intended_bboxes
FN:112,_RNCNvMs0_NtNtCsdGsEM3RpwG4_22dual_core_pdf_pipeline2ai13gemini_clientNtB7_18GeminiVisionReport13should_reject0Bb_
FN:1457,_RNCNvNvNtNtCsdGsEM3RpwG4_22dual_core_pdf_pipeline2ai13gemini_client9scrub_pii9RE_DIGITS0B9_
FN:26,_RNvMNtNtCsdGsEM3RpwG4_22dual_core_pdf_pipeline2ai13gemini_clientNtB2_17GeminiBalancePlan8validate
FN:105,_RNvMs0_NtNtCsdGsEM3RpwG4_22dual_core_pdf_pipeline2ai13gemini_clientNtB5_18GeminiVisionReport13should_reject
FN:321,_RNvMs1_NtNtCsdGsEM3RpwG4_22dual_core_pdf_pipeline2ai13gemini_clientNtB5_12GeminiClient13post_generate
FN:457,_RNvMs1_NtNtCsdGsEM3RpwG4_22dual_core_pdf_pipeline2ai13gemini_clientNtB5_12GeminiClient13with_base_url
FN:415,_RNvMs1_NtNtCsdGsEM3RpwG4_22dual_core_pdf_pipeline2ai13gemini_clientNtB5_12GeminiClient17post_generate_pro
FN:491,_RNvMs1_NtNtCsdGsEM3RpwG4_22dual_core_pdf_pipeline2ai13gemini_clientNtB5_12GeminiClient27propose_balance_adjustments
FN:294,_RNvMs1_NtNtCsdGsEM3RpwG4_22dual_core_pdf_pipeline2ai13gemini_clientNtB5_12GeminiClient8endpoint
FN:422,_RNvNCNvMs1_NtNtCsdGsEM3RpwG4_22dual_core_pdf_pipeline2ai13gemini_clientNtB9_12GeminiClient17post_generate_pro016should_fall_back
FN:1454,_RNvNtNtCsdGsEM3RpwG4_22dual_core_pdf_pipeline2ai13gemini_client9scrub_pii
FN:1195,_RNCNCNCNCNvNtNtCshN9TtrzEz6i_22dual_core_pdf_pipeline2ai13gemini_client27mint_gcp_access_token_async0s0_000CseEmI1GKjWjI_22engine_statement_tests
FN:1205,_RNCNCNCNCNvNtNtCshN9TtrzEz6i_22dual_core_pdf_pipeline2ai13gemini_client27mint_gcp_access_token_async0s0_00s_0CseEmI1GKjWjI_22engine_statement_tests
FN:1185,_RNCNCNCNvNtNtCshN9TtrzEz6i_22dual_core_pdf_pipeline2ai13gemini_client27mint_gcp_access_token_async0s0_00CseEmI1GKjWjI_22engine_statement_tests
FN:329,_RNCNCNvMs1_NtNtCshN9TtrzEz6i_22dual_core_pdf_pipeline2ai13gemini_clientNtB9_12GeminiClient13post_generate00CseEmI1GKjWjI_22engine_statement_tests
FN:395,_RNCNCNvMs1_NtNtCshN9TtrzEz6i_22dual_core_pdf_pipeline2ai13gemini_clientNtB9_12GeminiClient13post_generate0s0_0CseEmI1GKjWjI_22engine_statement_tests
FN:370,_RNCNCNvMs1_NtNtCshN9TtrzEz6i_22dual_core_pdf_pipeline2ai13gemini_clientNtB9_12GeminiClient13post_generate0s_0CseEmI1GKjWjI_22engine_statement_tests
FN:263,_RNCNCNvMs1_NtNtCshN9TtrzEz6i_22dual_core_pdf_pipeline2ai13gemini_clientNtB9_12GeminiClient21from_app_config_async00CseEmI1GKjWjI_22engine_statement_tests
FN:567,_RNCNCNvMs1_NtNtCshN9TtrzEz6i_22dual_core_pdf_pipeline2ai13gemini_clientNtB9_12GeminiClient27propose_balance_adjustments00CseEmI1GKjWjI_22engine_statement_tests
FN:570,_RNCNCNvMs1_NtNtCshN9TtrzEz6i_22dual_core_pdf_pipeline2ai13gemini_clientNtB9_12GeminiClient27propose_balance_adjustments0s_0CseEmI1GKjWjI_22engine_statement_tests
FN:737,_RNCNCNvMs1_NtNtCshN9TtrzEz6i_22dual_core_pdf_pipeline2ai13gemini_clientNtB9_12GeminiClient29repair_extracted_transactions00CseEmI1GKjWjI_22engine_statement_tests
FN:740,_RNCNCNvMs1_NtNtCshN9TtrzEz6i_22dual_core_pdf_pipeline2ai13gemini_clientNtB9_12GeminiClient29repair_extracted_transactions0s_0CseEmI1GKjWjI_22engine_statement_tests
FN:1182,_RNCNCNvNtNtCshN9TtrzEz6i_22dual_core_pdf_pipeline2ai13gemini_client27mint_gcp_access_token_async00CseEmI1GKjWjI_22engine_statement_tests
FN:1206,_RNCNCNvNtNtCshN9TtrzEz6i_22dual_core_pdf_pipeline2ai13gemini_client27mint_gcp_access_token_async0s0_0CseEmI1GKjWjI_22engine_statement_tests
FN:1211,_RNCNCNvNtNtCshN9TtrzEz6i_22dual_core_pdf_pipeline2ai13gemini_client27mint_gcp_access_token_async0s1_0CseEmI1GKjWjI_22engine_statement_tests
FN:1213,_RNCNCNvNtNtCshN9TtrzEz6i_22dual_core_pdf_pipeline2ai13gemini_client27mint_gcp_access_token_async0s2_0CseEmI1GKjWjI_22engine_statement_tests
FN:1239,_RNCNCNvNtNtCshN9TtrzEz6i_22dual_core_pdf_pipeline2ai13gemini_client27mint_gcp_access_token_async0s3_0CseEmI1GKjWjI_22engine_statement_tests
FN:1241,_RNCNCNvNtNtCshN9TtrzEz6i_22dual_core_pdf_pipeline2ai13gemini_client27mint_gcp_access_token_async0s4_0CseEmI1GKjWjI_22engine_statement_tests
FN:1256,_RNCNCNvNtNtCshN9TtrzEz6i_22dual_core_pdf_pipeline2ai13gemini_client27mint_gcp_access_token_async0s5_0CseEmI1GKjWjI_22engine_statement_tests
FN:1257,_RNCNCNvNtNtCshN9TtrzEz6i_22dual_core_pdf_pipeline2ai13gemini_client27mint_gcp_access_token_async0s6_0CseEmI1GKjWjI_22engine_statement_tests
FN:1263,_RNCNCNvNtNtCshN9TtrzEz6i_22dual_core_pdf_pipeline2ai13gemini_client27mint_gcp_access_token_async0s7_0CseEmI1GKjWjI_22engine_statement_tests
FN:1265,_RNCNCNvNtNtCshN9TtrzEz6i_22dual_core_pdf_pipeline2ai13gemini_client27mint_gcp_access_token_async0s8_0CseEmI1GKjWjI_22engine_statement_tests
FN:1286,_RNCNCNvNtNtCshN9TtrzEz6i_22dual_core_pdf_pipeline2ai13gemini_client27mint_gcp_access_token_async0s9_0CseEmI1GKjWjI_22engine_statement_tests
FN:1183,_RNCNCNvNtNtCshN9TtrzEz6i_22dual_core_pdf_pipeline2ai13gemini_client27mint_gcp_access_token_async0s_0CseEmI1GKjWjI_22engine_statement_tests
FN:1287,_RNCNCNvNtNtCshN9TtrzEz6i_22dual_core_pdf_pipeline2ai13gemini_client27mint_gcp_access_token_async0sa_0CseEmI1GKjWjI_22engine_statement_tests
FN:325,_RNCNvMs1_NtNtCshN9TtrzEz6i_22dual_core_pdf_pipeline2ai13gemini_clientNtB7_12GeminiClient13post_generate0CseEmI1GKjWjI_22engine_statement_tests
FN:418,_RNCNvMs1_NtNtCshN9TtrzEz6i_22dual_core_pdf_pipeline2ai13gemini_clientNtB7_12GeminiClient17post_generate_pro0CseEmI1GKjWjI_22engine_statement_tests
FN:244,_RNCNvMs1_NtNtCshN9TtrzEz6i_22dual_core_pdf_pipeline2ai13gemini_clientNtB7_12GeminiClient21from_app_config_async0CseEmI1GKjWjI_22engine_statement_tests
FN:496,_RNCNvMs1_NtNtCshN9TtrzEz6i_22dual_core_pdf_pipeline2ai13gemini_clientNtB7_12GeminiClient27propose_balance_adjustments0CseEmI1GKjWjI_22engine_statement_tests
FN:687,_RNCNvMs1_NtNtCshN9TtrzEz6i_22dual_core_pdf_pipeline2ai13gemini_clientNtB7_12GeminiClient29repair_extracted_transactions0CseEmI1GKjWjI_22engine_statement_tests
FN:1176,_RNCNvNtNtCshN9TtrzEz6i_22dual_core_pdf_pipeline2ai13gemini_client27mint_gcp_access_token_async0CseEmI1GKjWjI_22engine_statement_tests
FN:1195,_RNCNCNCNCNvNtNtCshN9TtrzEz6i_22dual_core_pdf_pipeline2ai13gemini_client27mint_gcp_access_token_async0s0_000Csi3ESQQ38hK3_12ranking_test
FN:1205,_RNCNCNCNCNvNtNtCshN9TtrzEz6i_22dual_core_pdf_pipeline2ai13gemini_client27mint_gcp_access_token_async0s0_00s_0Csi3ESQQ38hK3_12ranking_test
FN:1185,_RNCNCNCNvNtNtCshN9TtrzEz6i_22dual_core_pdf_pipeline2ai13gemini_client27mint_gcp_access_token_async0s0_00Csi3ESQQ38hK3_12ranking_test
FN:329,_RNCNCNvMs1_NtNtCshN9TtrzEz6i_22dual_core_pdf_pipeline2ai13gemini_clientNtB9_12GeminiClient13post_generate00Csi3ESQQ38hK3_12ranking_test
FN:395,_RNCNCNvMs1_NtNtCshN9TtrzEz6i_22dual_core_pdf_pipeline2ai13gemini_clientNtB9_12GeminiClient13post_generate0s0_0Csi3ESQQ38hK3_12ranking_test
FN:370,_RNCNCNvMs1_NtNtCshN9TtrzEz6i_22dual_core_pdf_pipeline2ai13gemini_clientNtB9_12GeminiClient13post_generate0s_0Csi3ESQQ38hK3_12ranking_test
FN:263,_RNCNCNvMs1_NtNtCshN9TtrzEz6i_22dual_core_pdf_pipeline2ai13gemini_clientNtB9_12GeminiClient21from_app_config_async00Csi3ESQQ38hK3_12ranking_test
FN:737,_RNCNCNvMs1_NtNtCshN9TtrzEz6i_22dual_core_pdf_pipeline2ai13gemini_clientNtB9_12GeminiClient29repair_extracted_transactions00Csi3ESQQ38hK3_12ranking_test
FN:740,_RNCNCNvMs1_NtNtCshN9TtrzEz6i_22dual_core_pdf_pipeline2ai13gemini_clientNtB9_12GeminiClient29repair_extracted_transactions0s_0Csi3ESQQ38hK3_12ranking_test
FN:1182,_RNCNCNvNtNtCshN9TtrzEz6i_22dual_core_pdf_pipeline2ai13gemini_client27mint_gcp_access_token_async00Csi3ESQQ38hK3_12ranking_test
FN:1206,_RNCNCNvNtNtCshN9TtrzEz6i_22dual_core_pdf_pipeline2ai13gemini_client27mint_gcp_access_token_async0s0_0Csi3ESQQ38hK3_12ranking_test
FN:1211,_RNCNCNvNtNtCshN9TtrzEz6i_22dual_core_pdf_pipeline2ai13gemini_client27mint_gcp_access_token_async0s1_0Csi3ESQQ38hK3_12ranking_test
FN:1213,_RNCNCNvNtNtCshN9TtrzEz6i_22dual_core_pdf_pipeline2ai13gemini_client27mint_gcp_access_token_async0s2_0Csi3ESQQ38hK3_12ranking_test
FN:1239,_RNCNCNvNtNtCshN9TtrzEz6i_22dual_core_pdf_pipeline2ai13gemini_client27mint_gcp_access_token_async0s3_0Csi3ESQQ38hK3_12ranking_test
FN:1241,_RNCNCNvNtNtCshN9TtrzEz6i_22dual_core_pdf_pipeline2ai13gemini_client27mint_gcp_access_token_async0s4_0Csi3ESQQ38hK3_12ranking_test
FN:1256,_RNCNCNvNtNtCshN9TtrzEz6i_22dual_core_pdf_pipeline2ai13gemini_client27mint_gcp_access_token_async0s5_0Csi3ESQQ38hK3_12ranking_test
FN:1257,_RNCNCNvNtNtCshN9TtrzEz6i_22dual_core_pdf_pipeline2ai13gemini_client27mint_gcp_access_token_async0s6_0Csi3ESQQ38hK3_12ranking_test
FN:1263,_RNCNCNvNtNtCshN9TtrzEz6i_22dual_core_pdf_pipeline2ai13gemini_client27mint_gcp_access_token_async0s7_0Csi3ESQQ38hK3_12ranking_test
FN:1265,_RNCNCNvNtNtCshN9TtrzEz6i_22dual_core_pdf_pipeline2ai13gemini_client27mint_gcp_access_token_async0s8_0Csi3ESQQ38hK3_12ranking_test
FN:1286,_RNCNCNvNtNtCshN9TtrzEz6i_22dual_core_pdf_pipeline2ai13gemini_client27mint_gcp_access_token_async0s9_0Csi3ESQQ38hK3_12ranking_test
FN:1183,_RNCNCNvNtNtCshN9TtrzEz6i_22dual_core_pdf_pipeline2ai13gemini_client27mint_gcp_access_token_async0s_0Csi3ESQQ38hK3_12ranking_test
FN:1287,_RNCNCNvNtNtCshN9TtrzEz6i_22dual_core_pdf_pipeline2ai13gemini_client27mint_gcp_access_token_async0sa_0Csi3ESQQ38hK3_12ranking_test
FN:325,_RNCNvMs1_NtNtCshN9TtrzEz6i_22dual_core_pdf_pipeline2ai13gemini_clientNtB7_12GeminiClient13post_generate0Csi3ESQQ38hK3_12ranking_test
FN:418,_RNCNvMs1_NtNtCshN9TtrzEz6i_22dual_core_pdf_pipeline2ai13gemini_clientNtB7_12GeminiClient17post_generate_pro0Csi3ESQQ38hK3_12ranking_test
FN:244,_RNCNvMs1_NtNtCshN9TtrzEz6i_22dual_core_pdf_pipeline2ai13gemini_clientNtB7_12GeminiClient21from_app_config_async0Csi3ESQQ38hK3_12ranking_test
FN:687,_RNCNvMs1_NtNtCshN9TtrzEz6i_22dual_core_pdf_pipeline2ai13gemini_clientNtB7_12GeminiClient29repair_extracted_transactions0Csi3ESQQ38hK3_12ranking_test
FN:1176,_RNCNvNtNtCshN9TtrzEz6i_22dual_core_pdf_pipeline2ai13gemini_client27mint_gcp_access_token_async0Csi3ESQQ38hK3_12ranking_test
FN:329,_RNCNCNvMs1_NtNtCshN9TtrzEz6i_22dual_core_pdf_pipeline2ai13gemini_clientNtB9_12GeminiClient13post_generate00CsggDmH9at6wh_20transfer_retry_tests
FN:395,_RNCNCNvMs1_NtNtCshN9TtrzEz6i_22dual_core_pdf_pipeline2ai13gemini_clientNtB9_12GeminiClient13post_generate0s0_0CsggDmH9at6wh_20transfer_retry_tests
FN:370,_RNCNCNvMs1_NtNtCshN9TtrzEz6i_22dual_core_pdf_pipeline2ai13gemini_clientNtB9_12GeminiClient13post_generate0s_0CsggDmH9at6wh_20transfer_retry_tests
FN:991,_RNCNCNvMs1_NtNtCshN9TtrzEz6i_22dual_core_pdf_pipeline2ai13gemini_clientNtB9_12GeminiClient25plan_transaction_transfer00CsggDmH9at6wh_20transfer_retry_tests
FN:994,_RNCNCNvMs1_NtNtCshN9TtrzEz6i_22dual_core_pdf_pipeline2ai13gemini_clientNtB9_12GeminiClient25plan_transaction_transfer0s_0CsggDmH9at6wh_20transfer_retry_tests
FN:325,_RNCNvMs1_NtNtCshN9TtrzEz6i_22dual_core_pdf_pipeline2ai13gemini_clientNtB7_12GeminiClient13post_generate0CsggDmH9at6wh_20transfer_retry_tests
FN:418,_RNCNvMs1_NtNtCshN9TtrzEz6i_22dual_core_pdf_pipeline2ai13gemini_clientNtB7_12GeminiClient17post_generate_pro0CsggDmH9at6wh_20transfer_retry_tests
FN:909,_RNCNvMs1_NtNtCshN9TtrzEz6i_22dual_core_pdf_pipeline2ai13gemini_clientNtB7_12GeminiClient25plan_transaction_transfer0CsggDmH9at6wh_20transfer_retry_tests
FN:1195,_RNCNCNCNCNvNtNtCshN9TtrzEz6i_22dual_core_pdf_pipeline2ai13gemini_client27mint_gcp_access_token_async0s0_000Cs7XQKM2zb9vf_8validate
FN:1205,_RNCNCNCNCNvNtNtCshN9TtrzEz6i_22dual_core_pdf_pipeline2ai13gemini_client27mint_gcp_access_token_async0s0_00s_0Cs7XQKM2zb9vf_8validate
FN:1185,_RNCNCNCNvNtNtCshN9TtrzEz6i_22dual_core_pdf_pipeline2ai13gemini_client27mint_gcp_access_token_async0s0_00Cs7XQKM2zb9vf_8validate
FN:329,_RNCNCNvMs1_NtNtCshN9TtrzEz6i_22dual_core_pdf_pipeline2ai13gemini_clientNtB9_12GeminiClient13post_generate00Cs7XQKM2zb9vf_8validate
FN:395,_RNCNCNvMs1_NtNtCshN9TtrzEz6i_22dual_core_pdf_pipeline2ai13gemini_clientNtB9_12GeminiClient13post_generate0s0_0Cs7XQKM2zb9vf_8validate
FN:370,_RNCNCNvMs1_NtNtCshN9TtrzEz6i_22dual_core_pdf_pipeline2ai13gemini_clientNtB9_12GeminiClient13post_generate0s_0Cs7XQKM2zb9vf_8validate
FN:263,_RNCNCNvMs1_NtNtCshN9TtrzEz6i_22dual_core_pdf_pipeline2ai13gemini_clientNtB9_12GeminiClient21from_app_config_async00Cs7XQKM2zb9vf_8validate
FN:1182,_RNCNCNvNtNtCshN9TtrzEz6i_22dual_core_pdf_pipeline2ai13gemini_client27mint_gcp_access_token_async00Cs7XQKM2zb9vf_8validate
FN:1206,_RNCNCNvNtNtCshN9TtrzEz6i_22dual_core_pdf_pipeline2ai13gemini_client27mint_gcp_access_token_async0s0_0Cs7XQKM2zb9vf_8validate
FN:1211,_RNCNCNvNtNtCshN9TtrzEz6i_22dual_core_pdf_pipeline2ai13gemini_client27mint_gcp_access_token_async0s1_0Cs7XQKM2zb9vf_8validate
FN:1213,_RNCNCNvNtNtCshN9TtrzEz6i_22dual_core_pdf_pipeline2ai13gemini_client27mint_gcp_access_token_async0s2_0Cs7XQKM2zb9vf_8validate
FN:1239,_RNCNCNvNtNtCshN9TtrzEz6i_22dual_core_pdf_pipeline2ai13gemini_client27mint_gcp_access_token_async0s3_0Cs7XQKM2zb9vf_8validate
FN:1241,_RNCNCNvNtNtCshN9TtrzEz6i_22dual_core_pdf_pipeline2ai13gemini_client27mint_gcp_access_token_async0s4_0Cs7XQKM2zb9vf_8validate
FN:1256,_RNCNCNvNtNtCshN9TtrzEz6i_22dual_core_pdf_pipeline2ai13gemini_client27mint_gcp_access_token_async0s5_0Cs7XQKM2zb9vf_8validate
FN:1257,_RNCNCNvNtNtCshN9TtrzEz6i_22dual_core_pdf_pipeline2ai13gemini_client27mint_gcp_access_token_async0s6_0Cs7XQKM2zb9vf_8validate
FN:1263,_RNCNCNvNtNtCshN9TtrzEz6i_22dual_core_pdf_pipeline2ai13gemini_client27mint_gcp_access_token_async0s7_0Cs7XQKM2zb9vf_8validate
FN:1265,_RNCNCNvNtNtCshN9TtrzEz6i_22dual_core_pdf_pipeline2ai13gemini_client27mint_gcp_access_token_async0s8_0Cs7XQKM2zb9vf_8validate
FN:1286,_RNCNCNvNtNtCshN9TtrzEz6i_22dual_core_pdf_pipeline2ai13gemini_client27mint_gcp_access_token_async0s9_0Cs7XQKM2zb9vf_8validate
FN:1183,_RNCNCNvNtNtCshN9TtrzEz6i_22dual_core_pdf_pipeline2ai13gemini_client27mint_gcp_access_token_async0s_0Cs7XQKM2zb9vf_8validate
FN:1287,_RNCNCNvNtNtCshN9TtrzEz6i_22dual_core_pdf_pipeline2ai13gemini_client27mint_gcp_access_token_async0sa_0Cs7XQKM2zb9vf_8validate
FN:325,_RNCNvMs1_NtNtCshN9TtrzEz6i_22dual_core_pdf_pipeline2ai13gemini_clientNtB7_12GeminiClient13post_generate0Cs7XQKM2zb9vf_8validate
FN:244,_RNCNvMs1_NtNtCshN9TtrzEz6i_22dual_core_pdf_pipeline2ai13gemini_clientNtB7_12GeminiClient21from_app_config_async0Cs7XQKM2zb9vf_8validate
FN:468,_RNCNvMs1_NtNtCshN9TtrzEz6i_22dual_core_pdf_pipeline2ai13gemini_clientNtB7_12GeminiClient4ping0Cs7XQKM2zb9vf_8validate
FN:1176,_RNCNvNtNtCshN9TtrzEz6i_22dual_core_pdf_pipeline2ai13gemini_client27mint_gcp_access_token_async0Cs7XQKM2zb9vf_8validate
FNDA:2,_RNCNCNvMs1_NtNtCshN9TtrzEz6i_22dual_core_pdf_pipeline2ai13gemini_clientNtB9_12GeminiClient13post_generate00Cs9eug7EGnCUa_16ai_backend_tests
FNDA:0,_RNCNCNvMs1_NtNtCshN9TtrzEz6i_22dual_core_pdf_pipeline2ai13gemini_clientNtB9_12GeminiClient13post_generate0s0_0Cs9eug7EGnCUa_16ai_backend_tests
FNDA:4,_RNCNCNvMs1_NtNtCshN9TtrzEz6i_22dual_core_pdf_pipeline2ai13gemini_clientNtB9_12GeminiClient13post_generate0s_0Cs9eug7EGnCUa_16ai_backend_tests
FNDA:2,_RNCNvMs1_NtNtCshN9TtrzEz6i_22dual_core_pdf_pipeline2ai13gemini_clientNtB7_12GeminiClient13post_generate0Cs9eug7EGnCUa_16ai_backend_tests
FNDA:2,_RNCNvMs1_NtNtCshN9TtrzEz6i_22dual_core_pdf_pipeline2ai13gemini_clientNtB7_12GeminiClient17post_generate_pro0Cs9eug7EGnCUa_16ai_backend_tests
FNDA:2,_RNCNvMs1_NtNtCshN9TtrzEz6i_22dual_core_pdf_pipeline2ai13gemini_clientNtB7_12GeminiClient28verify_statement_mathematics0Cs9eug7EGnCUa_16ai_backend_tests
FNDA:0,_RNCNCNCNCNvNtNtCshN9TtrzEz6i_22dual_core_pdf_pipeline2ai13gemini_client21mint_gcp_access_tokens0_0s0_000Bd_
FNDA:0,_RNCNCNCNCNvNtNtCshN9TtrzEz6i_22dual_core_pdf_pipeline2ai13gemini_client21mint_gcp_access_tokens0_0s0_00s_0Bd_
FNDA:0,_RNCNCNCNvNtNtCshN9TtrzEz6i_22dual_core_pdf_pipeline2ai13gemini_client21mint_gcp_access_tokens0_0s0_00Bb_
FNDA:0,_RNCNCNvNtNtCshN9TtrzEz6i_22dual_core_pdf_pipeline2ai13gemini_client21mint_gcp_access_tokens0_0s0_0B9_
FNDA:0,_RNCNCNCNCNvNtNtCshN9TtrzEz6i_22dual_core_pdf_pipeline2ai13gemini_client27mint_gcp_access_token_async0s0_000Bd_
FNDA:0,_RNCNCNCNCNvNtNtCshN9TtrzEz6i_22dual_core_pdf_pipeline2ai13gemini_client27mint_gcp_access_token_async0s0_00s_0Bd_
FNDA:0,_RNCNCNCNvNtNtCshN9TtrzEz6i_22dual_core_pdf_pipeline2ai13gemini_client27mint_gcp_access_token_async0s0_00Bb_
FNDA:10,_RNCNCNvMs1_NtNtCshN9TtrzEz6i_22dual_core_pdf_pipeline2ai13gemini_clientNtB9_12GeminiClient13post_generate00Bd_
FNDA:0,_RNCNCNvMs1_NtNtCshN9TtrzEz6i_22dual_core_pdf_pipeline2ai13gemini_clientNtB9_12GeminiClient13post_generate0s0_0Bd_
FNDA:0,_RNCNCNvMs1_NtNtCshN9TtrzEz6i_22dual_core_pdf_pipeline2ai13gemini_clientNtB9_12GeminiClient13post_generate0s_0Bd_
FNDA:0,_RNCNCNvMs1_NtNtCshN9TtrzEz6i_22dual_core_pdf_pipeline2ai13gemini_clientNtB9_12GeminiClient21from_app_config_async00Bd_
FNDA:0,_RNCNCNvMs1_NtNtCshN9TtrzEz6i_22dual_core_pdf_pipeline2ai13gemini_clientNtB9_12GeminiClient29repair_extracted_transactions00Bd_
FNDA:0,_RNCNCNvMs1_NtNtCshN9TtrzEz6i_22dual_core_pdf_pipeline2ai13gemini_clientNtB9_12GeminiClient29repair_extracted_transactions0s_0Bd_
FNDA:0,_RNCNCNvNtNtCshN9TtrzEz6i_22dual_core_pdf_pipeline2ai13gemini_client27mint_gcp_access_token_async00B9_
FNDA:0,_RNCNCNvNtNtCshN9TtrzEz6i_22dual_core_pdf_pipeline2ai13gemini_client27mint_gcp_access_token_async0s0_0B9_
FNDA:0,_RNCNCNvNtNtCshN9TtrzEz6i_22dual_core_pdf_pipeline2ai13gemini_client27mint_gcp_access_token_async0s1_0B9_
FNDA:0,_RNCNCNvNtNtCshN9TtrzEz6i_22dual_core_pdf_pipeline2ai13gemini_client27mint_gcp_access_token_async0s2_0B9_
FNDA:0,_RNCNCNvNtNtCshN9TtrzEz6i_22dual_core_pdf_pipeline2ai13gemini_client27mint_gcp_access_token_async0s3_0B9_
FNDA:0,_RNCNCNvNtNtCshN9TtrzEz6i_22dual_core_pdf_pipeline2ai13gemini_client27mint_gcp_access_token_async0s4_0B9_
FNDA:0,_RNCNCNvNtNtCshN9TtrzEz6i_22dual_core_pdf_pipeline2ai13gemini_client27mint_gcp_access_token_async0s5_0B9_
FNDA:0,_RNCNCNvNtNtCshN9TtrzEz6i_22dual_core_pdf_pipeline2ai13gemini_client27mint_gcp_access_token_async0s6_0B9_
FNDA:0,_RNCNCNvNtNtCshN9TtrzEz6i_22dual_core_pdf_pipeline2ai13gemini_client27mint_gcp_access_token_async0s7_0B9_
FNDA:0,_RNCNCNvNtNtCshN9TtrzEz6i_22dual_core_pdf_pipeline2ai13gemini_client27mint_gcp_access_token_async0s8_0B9_
FNDA:0,_RNCNCNvNtNtCshN9TtrzEz6i_22dual_core_pdf_pipeline2ai13gemini_client27mint_gcp_access_token_async0s9_0B9_
FNDA:0,_RNCNCNvNtNtCshN9TtrzEz6i_22dual_core_pdf_pipeline2ai13gemini_client27mint_gcp_access_token_async0s_0B9_
FNDA:0,_RNCNCNvNtNtCshN9TtrzEz6i_22dual_core_pdf_pipeline2ai13gemini_client27mint_gcp_access_token_async0sa_0B9_
FNDA:10,_RNCNvMs1_NtNtCshN9TtrzEz6i_22dual_core_pdf_pipeline2ai13gemini_clientNtB7_12GeminiClient13post_generate0Bb_
FNDA:0,_RNCNvMs1_NtNtCshN9TtrzEz6i_22dual_core_pdf_pipeline2ai13gemini_clientNtB7_12GeminiClient17post_generate_pro0Bb_
FNDA:1,_RNCNvMs1_NtNtCshN9TtrzEz6i_22dual_core_pdf_pipeline2ai13gemini_clientNtB7_12GeminiClient21from_app_config_async0Bb_
FNDA:0,_RNCNvMs1_NtNtCshN9TtrzEz6i_22dual_core_pdf_pipeline2ai13gemini_clientNtB7_12GeminiClient28verify_statement_mathematics0Bb_
FNDA:0,_RNCNvMs1_NtNtCshN9TtrzEz6i_22dual_core_pdf_pipeline2ai13gemini_clientNtB7_12GeminiClient29repair_extracted_transactions0Bb_
FNDA:0,_RNCNvNtNtCshN9TtrzEz6i_22dual_core_pdf_pipeline2ai13gemini_client27mint_gcp_access_token_async0B7_
FNDA:0,_RNCNCNvMs1_NtNtCshN9TtrzEz6i_22dual_core_pdf_pipeline2ai13gemini_clientNtB9_12GeminiClient20verify_transfer_math0s0_0Bd_
FNDA:0,_RNCNCNvMs1_NtNtCshN9TtrzEz6i_22dual_core_pdf_pipeline2ai13gemini_clientNtB9_12GeminiClient20verify_transfer_math0s_0Bd_
FNDA:0,_RNCNCNvMs1_NtNtCshN9TtrzEz6i_22dual_core_pdf_pipeline2ai13gemini_clientNtB9_12GeminiClient24validate_render_visually00Bd_
FNDA:0,_RNCNCNvMs1_NtNtCshN9TtrzEz6i_22dual_core_pdf_pipeline2ai13gemini_clientNtB9_12GeminiClient24validate_render_visually0s_0Bd_
FNDA:0,_RNCNCNvMs1_NtNtCshN9TtrzEz6i_22dual_core_pdf_pipeline2ai13gemini_clientNtB9_12GeminiClient25plan_transaction_transfer00Bd_
FNDA:0,_RNCNCNvMs1_NtNtCshN9TtrzEz6i_22dual_core_pdf_pipeline2ai13gemini_clientNtB9_12GeminiClient25plan_transaction_transfer0s_0Bd_
FNDA:0,_RNCNCNvMs1_NtNtCshN9TtrzEz6i_22dual_core_pdf_pipeline2ai13gemini_clientNtB9_12GeminiClient27apply_natural_language_edit00Bd_
FNDA:0,_RNCNCNvMs1_NtNtCshN9TtrzEz6i_22dual_core_pdf_pipeline2ai13gemini_clientNtB9_12GeminiClient27apply_natural_language_edit0s0_0Bd_
FNDA:0,_RNCNCNvMs1_NtNtCshN9TtrzEz6i_22dual_core_pdf_pipeline2ai13gemini_clientNtB9_12GeminiClient27apply_natural_language_edit0s_0Bd_
FNDA:0,_RNCNCNvMs1_NtNtCshN9TtrzEz6i_22dual_core_pdf_pipeline2ai13gemini_clientNtB9_12GeminiClient27propose_balance_adjustments00Bd_
FNDA:0,_RNCNCNvMs1_NtNtCshN9TtrzEz6i_22dual_core_pdf_pipeline2ai13gemini_clientNtB9_12GeminiClient27propose_balance_adjustments0s_0Bd_
FNDA:0,_RNCNvMs1_NtNtCshN9TtrzEz6i_22dual_core_pdf_pipeline2ai13gemini_clientNtB7_12GeminiClient20verify_transfer_math0Bb_
FNDA:0,_RNCNvMs1_NtNtCshN9TtrzEz6i_22dual_core_pdf_pipeline2ai13gemini_clientNtB7_12GeminiClient24validate_render_visually0Bb_
FNDA:0,_RNCNvMs1_NtNtCshN9TtrzEz6i_22dual_core_pdf_pipeline2ai13gemini_clientNtB7_12GeminiClient25plan_transaction_transfer0Bb_
FNDA:0,_RNCNvMs1_NtNtCshN9TtrzEz6i_22dual_core_pdf_pipeline2ai13gemini_clientNtB7_12GeminiClient27apply_natural_language_edit0Bb_
FNDA:0,_RNCNvMs1_NtNtCshN9TtrzEz6i_22dual_core_pdf_pipeline2ai13gemini_clientNtB7_12GeminiClient27propose_balance_adjustments0Bb_
FNDA:0,_RNCNCNvNtNtCshN9TtrzEz6i_22dual_core_pdf_pipeline2ai13gemini_client21mint_gcp_access_tokens0_00B9_
FNDA:0,_RNCNCNvNtNtCshN9TtrzEz6i_22dual_core_pdf_pipeline2ai13gemini_client21mint_gcp_access_tokens0_0s_0B9_
FNDA:0,_RNCNvMs0_NtNtCshN9TtrzEz6i_22dual_core_pdf_pipeline2ai13gemini_clientNtB7_18GeminiVisionReport13should_reject0Bb_
FNDA:0,_RNCNvMs1_NtNtCshN9TtrzEz6i_22dual_core_pdf_pipeline2ai13gemini_clientNtB7_12GeminiClient15from_app_config0Bb_
FNDA:0,_RNCNvNtNtCshN9TtrzEz6i_22dual_core_pdf_pipeline2ai13gemini_client21mint_gcp_access_token0B7_
FNDA:0,_RNCNvNtNtCshN9TtrzEz6i_22dual_core_pdf_pipeline2ai13gemini_client21mint_gcp_access_tokens0_0B7_
FNDA:0,_RNCNvNtNtCshN9TtrzEz6i_22dual_core_pdf_pipeline2ai13gemini_client21mint_gcp_access_tokens1_0B7_
FNDA:0,_RNCNvNtNtCshN9TtrzEz6i_22dual_core_pdf_pipeline2ai13gemini_client21mint_gcp_access_tokens2_0B7_
FNDA:0,_RNCNvNtNtCshN9TtrzEz6i_22dual_core_pdf_pipeline2ai13gemini_client21mint_gcp_access_tokens3_0B7_
FNDA:0,_RNCNvNtNtCshN9TtrzEz6i_22dual_core_pdf_pipeline2ai13gemini_client21mint_gcp_access_tokens4_0B7_
FNDA:0,_RNCNvNtNtCshN9TtrzEz6i_22dual_core_pdf_pipeline2ai13gemini_client21mint_gcp_access_tokens5_0B7_
FNDA:0,_RNCNvNtNtCshN9TtrzEz6i_22dual_core_pdf_pipeline2ai13gemini_client21mint_gcp_access_tokens6_0B7_
FNDA:0,_RNCNvNtNtCshN9TtrzEz6i_22dual_core_pdf_pipeline2ai13gemini_client21mint_gcp_access_tokens7_0B7_
FNDA:0,_RNCNvNtNtCshN9TtrzEz6i_22dual_core_pdf_pipeline2ai13gemini_client21mint_gcp_access_tokens8_0B7_
FNDA:0,_RNCNvNtNtCshN9TtrzEz6i_22dual_core_pdf_pipeline2ai13gemini_client21mint_gcp_access_tokens9_0B7_
FNDA:0,_RNCNvNtNtCshN9TtrzEz6i_22dual_core_pdf_pipeline2ai13gemini_client21mint_gcp_access_tokens_0B7_
FNDA:0,_RNCNvNtNtCshN9TtrzEz6i_22dual_core_pdf_pipeline2ai13gemini_client21mint_gcp_access_tokensa_0B7_
FNDA:4,_RNCNvNvNtNtCshN9TtrzEz6i_22dual_core_pdf_pipeline2ai13gemini_client9scrub_pii9RE_DIGITS0B9_
FNDA:2,_RNvMNtNtCshN9TtrzEz6i_22dual_core_pdf_pipeline2ai13gemini_clientNtB2_17GeminiBalancePlan8validate
FNDA:0,_RNvMs0_NtNtCshN9TtrzEz6i_22dual_core_pdf_pipeline2ai13gemini_clientNtB5_18GeminiVisionReport13should_reject
FNDA:0,_RNvMs0_NtNtCshN9TtrzEz6i_22dual_core_pdf_pipeline2ai13gemini_clientNtB5_18GeminiVisionReport8validate
FNDA:21,_RNvMs1_NtNtCshN9TtrzEz6i_22dual_core_pdf_pipeline2ai13gemini_clientNtB5_12GeminiClient13post_generate
FNDA:10,_RNvMs1_NtNtCshN9TtrzEz6i_22dual_core_pdf_pipeline2ai13gemini_clientNtB5_12GeminiClient13with_base_url
FNDA:13,_RNvMs1_NtNtCshN9TtrzEz6i_22dual_core_pdf_pipeline2ai13gemini_clientNtB5_12GeminiClient15from_app_config
FNDA:8,_RNvMs1_NtNtCshN9TtrzEz6i_22dual_core_pdf_pipeline2ai13gemini_clientNtB5_12GeminiClient17post_generate_pro
FNDA:0,_RNvMs1_NtNtCshN9TtrzEz6i_22dual_core_pdf_pipeline2ai13gemini_clientNtB5_12GeminiClient20verify_transfer_math
FNDA:1,_RNvMs1_NtNtCshN9TtrzEz6i_22dual_core_pdf_pipeline2ai13gemini_clientNtB5_12GeminiClient21from_app_config_async
FNDA:0,_RNvMs1_NtNtCshN9TtrzEz6i_22dual_core_pdf_pipeline2ai13gemini_clientNtB5_12GeminiClient24validate_render_visually
FNDA:1,_RNvMs1_NtNtCshN9TtrzEz6i_22dual_core_pdf_pipeline2ai13gemini_clientNtB5_12GeminiClient25plan_transaction_transfer
FNDA:0,_RNvMs1_NtNtCshN9TtrzEz6i_22dual_core_pdf_pipeline2ai13gemini_clientNtB5_12GeminiClient27apply_natural_language_edit
FNDA:3,_RNvMs1_NtNtCshN9TtrzEz6i_22dual_core_pdf_pipeline2ai13gemini_clientNtB5_12GeminiClient27propose_balance_adjustments
FNDA:0,_RNvMs1_NtNtCshN9TtrzEz6i_22dual_core_pdf_pipeline2ai13gemini_clientNtB5_12GeminiClient27validate_parse_completeness
FNDA:2,_RNvMs1_NtNtCshN9TtrzEz6i_22dual_core_pdf_pipeline2ai13gemini_clientNtB5_12GeminiClient28verify_statement_mathematics
FNDA:2,_RNvMs1_NtNtCshN9TtrzEz6i_22dual_core_pdf_pipeline2ai13gemini_clientNtB5_12GeminiClient29repair_extracted_transactions
FNDA:11,_RNvMs1_NtNtCshN9TtrzEz6i_22dual_core_pdf_pipeline2ai13gemini_clientNtB5_12GeminiClient4ping
FNDA:21,_RNvMs1_NtNtCshN9TtrzEz6i_22dual_core_pdf_pipeline2ai13gemini_clientNtB5_12GeminiClient8endpoint
FNDA:0,_RNvMs_NtNtCshN9TtrzEz6i_22dual_core_pdf_pipeline2ai13gemini_clientNtB4_24GeminiCompletenessReport8validate
FNDA:9,_RNvNCNvMs1_NtNtCshN9TtrzEz6i_22dual_core_pdf_pipeline2ai13gemini_clientNtB9_12GeminiClient17post_generate_pro016should_fall_back
FNDA:0,_RNvNtNtCshN9TtrzEz6i_22dual_core_pdf_pipeline2ai13gemini_client21mint_gcp_access_token
FNDA:0,_RNvNtNtCshN9TtrzEz6i_22dual_core_pdf_pipeline2ai13gemini_client27mint_gcp_access_token_async
FNDA:7,_RNvNtNtCshN9TtrzEz6i_22dual_core_pdf_pipeline2ai13gemini_client9scrub_pii
FNDA:0,_RNCNCNvMs1_NtNtCshN9TtrzEz6i_22dual_core_pdf_pipeline2ai13gemini_clientNtB9_12GeminiClient20verify_transfer_math00Bd_
FNDA:4,_RNCNvNtNtCshN9TtrzEz6i_22dual_core_pdf_pipeline2ai13gemini_client9scrub_pii0B7_
FNDA:10,_RNCNvMs1_NtNtCshN9TtrzEz6i_22dual_core_pdf_pipeline2ai13gemini_clientNtB7_12GeminiClient4ping0Bb_
FNDA:0,_RNCNCNvMs1_NtNtCshN9TtrzEz6i_22dual_core_pdf_pipeline2ai13gemini_clientNtB9_12GeminiClient27validate_parse_completeness00Bd_
FNDA:0,_RNCNCNvMs1_NtNtCshN9TtrzEz6i_22dual_core_pdf_pipeline2ai13gemini_clientNtB9_12GeminiClient27validate_parse_completeness0s0_0Bd_
FNDA:0,_RNCNCNvMs1_NtNtCshN9TtrzEz6i_22dual_core_pdf_pipeline2ai13gemini_clientNtB9_12GeminiClient27validate_parse_completeness0s1_0Bd_
FNDA:0,_RNCNCNvMs1_NtNtCshN9TtrzEz6i_22dual_core_pdf_pipeline2ai13gemini_clientNtB9_12GeminiClient27validate_parse_completeness0s_0Bd_
FNDA:0,_RNCNvMs1_NtNtCshN9TtrzEz6i_22dual_core_pdf_pipeline2ai13gemini_clientNtB7_12GeminiClient27validate_parse_completeness0Bb_
FNDA:0,_RNCNCNCNCNvNtNtCshN9TtrzEz6i_22dual_core_pdf_pipeline2ai13gemini_client27mint_gcp_access_token_async0s0_000Csf6zF57cabuO_20ai_document_ai_tests
FNDA:0,_RNCNCNCNCNvNtNtCshN9TtrzEz6i_22dual_core_pdf_pipeline2ai13gemini_client27mint_gcp_access_token_async0s0_00s_0Csf6zF57cabuO_20ai_document_ai_tests
FNDA:0,_RNCNCNCNvNtNtCshN9TtrzEz6i_22dual_core_pdf_pipeline2ai13gemini_client27mint_gcp_access_token_async0s0_00Csf6zF57cabuO_20ai_document_ai_tests
FNDA:0,_RNCNCNvMs1_NtNtCshN9TtrzEz6i_22dual_core_pdf_pipeline2ai13gemini_clientNtB9_12GeminiClient13post_generate00Csf6zF57cabuO_20ai_document_ai_tests
FNDA:0,_RNCNCNvMs1_NtNtCshN9TtrzEz6i_22dual_core_pdf_pipeline2ai13gemini_clientNtB9_12GeminiClient13post_generate0s0_0Csf6zF57cabuO_20ai_document_ai_tests
FNDA:0,_RNCNCNvMs1_NtNtCshN9TtrzEz6i_22dual_core_pdf_pipeline2ai13gemini_clientNtB9_12GeminiClient13post_generate0s_0Csf6zF57cabuO_20ai_document_ai_tests
FNDA:0,_RNCNCNvMs1_NtNtCshN9TtrzEz6i_22dual_core_pdf_pipeline2ai13gemini_clientNtB9_12GeminiClient21from_app_config_async00Csf6zF57cabuO_20ai_document_ai_tests
FNDA:0,_RNCNCNvMs1_NtNtCshN9TtrzEz6i_22dual_core_pdf_pipeline2ai13gemini_clientNtB9_12GeminiClient29repair_extracted_transactions00Csf6zF57cabuO_20ai_document_ai_tests
FNDA:0,_RNCNCNvMs1_NtNtCshN9TtrzEz6i_22dual_core_pdf_pipeline2ai13gemini_clientNtB9_12GeminiClient29repair_extracted_transactions0s_0Csf6zF57cabuO_20ai_document_ai_tests
FNDA:0,_RNCNCNvNtNtCshN9TtrzEz6i_22dual_core_pdf_pipeline2ai13gemini_client27mint_gcp_access_token_async00Csf6zF57cabuO_20ai_document_ai_tests
FNDA:0,_RNCNCNvNtNtCshN9TtrzEz6i_22dual_core_pdf_pipeline2ai13gemini_client27mint_gcp_access_token_async0s0_0Csf6zF57cabuO_20ai_document_ai_tests
FNDA:0,_RNCNCNvNtNtCshN9TtrzEz6i_22dual_core_pdf_pipeline2ai13gemini_client27mint_gcp_access_token_async0s1_0Csf6zF57cabuO_20ai_document_ai_tests
FNDA:0,_RNCNCNvNtNtCshN9TtrzEz6i_22dual_core_pdf_pipeline2ai13gemini_client27mint_gcp_access_token_async0s2_0Csf6zF57cabuO_20ai_document_ai_tests
FNDA:0,_RNCNCNvNtNtCshN9TtrzEz6i_22dual_core_pdf_pipeline2ai13gemini_client27mint_gcp_access_token_async0s3_0Csf6zF57cabuO_20ai_document_ai_tests
FNDA:0,_RNCNCNvNtNtCshN9TtrzEz6i_22dual_core_pdf_pipeline2ai13gemini_client27mint_gcp_access_token_async0s4_0Csf6zF57cabuO_20ai_document_ai_tests
FNDA:0,_RNCNCNvNtNtCshN9TtrzEz6i_22dual_core_pdf_pipeline2ai13gemini_client27mint_gcp_access_token_async0s5_0Csf6zF57cabuO_20ai_document_ai_tests
FNDA:0,_RNCNCNvNtNtCshN9TtrzEz6i_22dual_core_pdf_pipeline2ai13gemini_client27mint_gcp_access_token_async0s6_0Csf6zF57cabuO_20ai_document_ai_tests
FNDA:0,_RNCNCNvNtNtCshN9TtrzEz6i_22dual_core_pdf_pipeline2ai13gemini_client27mint_gcp_access_token_async0s7_0Csf6zF57cabuO_20ai_document_ai_tests
FNDA:0,_RNCNCNvNtNtCshN9TtrzEz6i_22dual_core_pdf_pipeline2ai13gemini_client27mint_gcp_access_token_async0s8_0Csf6zF57cabuO_20ai_document_ai_tests
FNDA:0,_RNCNCNvNtNtCshN9TtrzEz6i_22dual_core_pdf_pipeline2ai13gemini_client27mint_gcp_access_token_async0s9_0Csf6zF57cabuO_20ai_document_ai_tests
FNDA:0,_RNCNCNvNtNtCshN9TtrzEz6i_22dual_core_pdf_pipeline2ai13gemini_client27mint_gcp_access_token_async0s_0Csf6zF57cabuO_20ai_document_ai_tests
FNDA:0,_RNCNCNvNtNtCshN9TtrzEz6i_22dual_core_pdf_pipeline2ai13gemini_client27mint_gcp_access_token_async0sa_0Csf6zF57cabuO_20ai_document_ai_tests
FNDA:0,_RNCNvMs1_NtNtCshN9TtrzEz6i_22dual_core_pdf_pipeline2ai13gemini_clientNtB7_12GeminiClient13post_generate0Csf6zF57cabuO_20ai_document_ai_tests
FNDA:0,_RNCNvMs1_NtNtCshN9TtrzEz6i_22dual_core_pdf_pipeline2ai13gemini_clientNtB7_12GeminiClient17post_generate_pro0Csf6zF57cabuO_20ai_document_ai_tests
FNDA:0,_RNCNvMs1_NtNtCshN9TtrzEz6i_22dual_core_pdf_pipeline2ai13gemini_clientNtB7_12GeminiClient21from_app_config_async0Csf6zF57cabuO_20ai_document_ai_tests
FNDA:0,_RNCNvMs1_NtNtCshN9TtrzEz6i_22dual_core_pdf_pipeline2ai13gemini_clientNtB7_12GeminiClient29repair_extracted_transactions0Csf6zF57cabuO_20ai_document_ai_tests
FNDA:0,_RNCNvNtNtCshN9TtrzEz6i_22dual_core_pdf_pipeline2ai13gemini_client27mint_gcp_access_token_async0Csf6zF57cabuO_20ai_document_ai_tests
FNDA:5,_RNCNCNvMs1_NtNtCshN9TtrzEz6i_22dual_core_pdf_pipeline2ai13gemini_clientNtB9_12GeminiClient13post_generate00CstetqExZF4E_22ai_gemini_client_tests
FNDA:0,_RNCNCNvMs1_NtNtCshN9TtrzEz6i_22dual_core_pdf_pipeline2ai13gemini_clientNtB9_12GeminiClient13post_generate0s0_0CstetqExZF4E_22ai_gemini_client_tests
FNDA:6,_RNCNCNvMs1_NtNtCshN9TtrzEz6i_22dual_core_pdf_pipeline2ai13gemini_clientNtB9_12GeminiClient13post_generate0s_0CstetqExZF4E_22ai_gemini_client_tests
FNDA:0,_RNCNCNvMs1_NtNtCshN9TtrzEz6i_22dual_core_pdf_pipeline2ai13gemini_clientNtB9_12GeminiClient27propose_balance_adjustments00CstetqExZF4E_22ai_gemini_client_tests
FNDA:0,_RNCNCNvMs1_NtNtCshN9TtrzEz6i_22dual_core_pdf_pipeline2ai13gemini_clientNtB9_12GeminiClient27propose_balance_adjustments0s_0CstetqExZF4E_22ai_gemini_client_tests
FNDA:5,_RNCNvMs1_NtNtCshN9TtrzEz6i_22dual_core_pdf_pipeline2ai13gemini_clientNtB7_12GeminiClient13post_generate0CstetqExZF4E_22ai_gemini_client_tests
FNDA:3,_RNCNvMs1_NtNtCshN9TtrzEz6i_22dual_core_pdf_pipeline2ai13gemini_clientNtB7_12GeminiClient17post_generate_pro0CstetqExZF4E_22ai_gemini_client_tests
FNDA:3,_RNCNvMs1_NtNtCshN9TtrzEz6i_22dual_core_pdf_pipeline2ai13gemini_clientNtB7_12GeminiClient27propose_balance_adjustments0CstetqExZF4E_22ai_gemini_client_tests
FNDA:0,_RNCNCNCNCNvNtNtCshN9TtrzEz6i_22dual_core_pdf_pipeline2ai13gemini_client27mint_gcp_access_token_async0s0_000CshaMNJSpjAve_7ai_live
FNDA:0,_RNCNCNCNCNvNtNtCshN9TtrzEz6i_22dual_core_pdf_pipeline2ai13gemini_client27mint_gcp_access_token_async0s0_00s_0CshaMNJSpjAve_7ai_live
FNDA:0,_RNCNCNCNvNtNtCshN9TtrzEz6i_22dual_core_pdf_pipeline2ai13gemini_client27mint_gcp_access_token_async0s0_00CshaMNJSpjAve_7ai_live
FNDA:0,_RNCNCNvMs1_NtNtCshN9TtrzEz6i_22dual_core_pdf_pipeline2ai13gemini_clientNtB9_12GeminiClient13post_generate00CshaMNJSpjAve_7ai_live
FNDA:0,_RNCNCNvMs1_NtNtCshN9TtrzEz6i_22dual_core_pdf_pipeline2ai13gemini_clientNtB9_12GeminiClient13post_generate0s0_0CshaMNJSpjAve_7ai_live
FNDA:0,_RNCNCNvMs1_NtNtCshN9TtrzEz6i_22dual_core_pdf_pipeline2ai13gemini_clientNtB9_12GeminiClient13post_generate0s_0CshaMNJSpjAve_7ai_live
FNDA:0,_RNCNCNvMs1_NtNtCshN9TtrzEz6i_22dual_core_pdf_pipeline2ai13gemini_clientNtB9_12GeminiClient21from_app_config_async00CshaMNJSpjAve_7ai_live
FNDA:0,_RNCNCNvMs1_NtNtCshN9TtrzEz6i_22dual_core_pdf_pipeline2ai13gemini_clientNtB9_12GeminiClient27propose_balance_adjustments00CshaMNJSpjAve_7ai_live
FNDA:0,_RNCNCNvMs1_NtNtCshN9TtrzEz6i_22dual_core_pdf_pipeline2ai13gemini_clientNtB9_12GeminiClient27propose_balance_adjustments0s_0CshaMNJSpjAve_7ai_live
FNDA:0,_RNCNCNvMs1_NtNtCshN9TtrzEz6i_22dual_core_pdf_pipeline2ai13gemini_clientNtB9_12GeminiClient29repair_extracted_transactions00CshaMNJSpjAve_7ai_live
FNDA:0,_RNCNCNvMs1_NtNtCshN9TtrzEz6i_22dual_core_pdf_pipeline2ai13gemini_clientNtB9_12GeminiClient29repair_extracted_transactions0s_0CshaMNJSpjAve_7ai_live
FNDA:0,_RNCNCNvNtNtCshN9TtrzEz6i_22dual_core_pdf_pipeline2ai13gemini_client27mint_gcp_access_token_async00CshaMNJSpjAve_7ai_live
FNDA:0,_RNCNCNvNtNtCshN9TtrzEz6i_22dual_core_pdf_pipeline2ai13gemini_client27mint_gcp_access_token_async0s0_0CshaMNJSpjAve_7ai_live
FNDA:0,_RNCNCNvNtNtCshN9TtrzEz6i_22dual_core_pdf_pipeline2ai13gemini_client27mint_gcp_access_token_async0s1_0CshaMNJSpjAve_7ai_live
FNDA:0,_RNCNCNvNtNtCshN9TtrzEz6i_22dual_core_pdf_pipeline2ai13gemini_client27mint_gcp_access_token_async0s2_0CshaMNJSpjAve_7ai_live
FNDA:0,_RNCNCNvNtNtCshN9TtrzEz6i_22dual_core_pdf_pipeline2ai13gemini_client27mint_gcp_access_token_async0s3_0CshaMNJSpjAve_7ai_live
FNDA:0,_RNCNCNvNtNtCshN9TtrzEz6i_22dual_core_pdf_pipeline2ai13gemini_client27mint_gcp_access_token_async0s4_0CshaMNJSpjAve_7ai_live
FNDA:0,_RNCNCNvNtNtCshN9TtrzEz6i_22dual_core_pdf_pipeline2ai13gemini_client27mint_gcp_access_token_async0s5_0CshaMNJSpjAve_7ai_live
FNDA:0,_RNCNCNvNtNtCshN9TtrzEz6i_22dual_core_pdf_pipeline2ai13gemini_client27mint_gcp_access_token_async0s6_0CshaMNJSpjAve_7ai_live
FNDA:0,_RNCNCNvNtNtCshN9TtrzEz6i_22dual_core_pdf_pipeline2ai13gemini_client27mint_gcp_access_token_async0s7_0CshaMNJSpjAve_7ai_live
FNDA:0,_RNCNCNvNtNtCshN9TtrzEz6i_22dual_core_pdf_pipeline2ai13gemini_client27mint_gcp_access_token_async0s8_0CshaMNJSpjAve_7ai_live
FNDA:0,_RNCNCNvNtNtCshN9TtrzEz6i_22dual_core_pdf_pipeline2ai13gemini_client27mint_gcp_access_token_async0s9_0CshaMNJSpjAve_7ai_live
FNDA:0,_RNCNCNvNtNtCshN9TtrzEz6i_22dual_core_pdf_pipeline2ai13gemini_client27mint_gcp_access_token_async0s_0CshaMNJSpjAve_7ai_live
FNDA:0,_RNCNCNvNtNtCshN9TtrzEz6i_22dual_core_pdf_pipeline2ai13gemini_client27mint_gcp_access_token_async0sa_0CshaMNJSpjAve_7ai_live
FNDA:0,_RNCNvMs1_NtNtCshN9TtrzEz6i_22dual_core_pdf_pipeline2ai13gemini_clientNtB7_12GeminiClient13post_generate0CshaMNJSpjAve_7ai_live
FNDA:0,_RNCNvMs1_NtNtCshN9TtrzEz6i_22dual_core_pdf_pipeline2ai13gemini_clientNtB7_12GeminiClient17post_generate_pro0CshaMNJSpjAve_7ai_live
FNDA:0,_RNCNvMs1_NtNtCshN9TtrzEz6i_22dual_core_pdf_pipeline2ai13gemini_clientNtB7_12GeminiClient21from_app_config_async0CshaMNJSpjAve_7ai_live
FNDA:0,_RNCNvMs1_NtNtCshN9TtrzEz6i_22dual_core_pdf_pipeline2ai13gemini_clientNtB7_12GeminiClient27propose_balance_adjustments0CshaMNJSpjAve_7ai_live
FNDA:0,_RNCNvMs1_NtNtCshN9TtrzEz6i_22dual_core_pdf_pipeline2ai13gemini_clientNtB7_12GeminiClient29repair_extracted_transactions0CshaMNJSpjAve_7ai_live
FNDA:0,_RNCNvNtNtCshN9TtrzEz6i_22dual_core_pdf_pipeline2ai13gemini_client27mint_gcp_access_token_async0CshaMNJSpjAve_7ai_live
FNDA:1,_RNCNCNvMs1_NtNtCshN9TtrzEz6i_22dual_core_pdf_pipeline2ai13gemini_clientNtB9_12GeminiClient13post_generate00Cs1dXm4FxIgQC_13ai_loop_tests
FNDA:0,_RNCNCNvMs1_NtNtCshN9TtrzEz6i_22dual_core_pdf_pipeline2ai13gemini_clientNtB9_12GeminiClient13post_generate0s0_0Cs1dXm4FxIgQC_13ai_loop_tests
FNDA:0,_RNCNCNvMs1_NtNtCshN9TtrzEz6i_22dual_core_pdf_pipeline2ai13gemini_clientNtB9_12GeminiClient13post_generate0s_0Cs1dXm4FxIgQC_13ai_loop_tests
FNDA:0,_RNCNCNvMs1_NtNtCshN9TtrzEz6i_22dual_core_pdf_pipeline2ai13gemini_clientNtB9_12GeminiClient29repair_extracted_transactions00Cs1dXm4FxIgQC_13ai_loop_tests
FNDA:0,_RNCNCNvMs1_NtNtCshN9TtrzEz6i_22dual_core_pdf_pipeline2ai13gemini_clientNtB9_12GeminiClient29repair_extracted_transactions0s_0Cs1dXm4FxIgQC_13ai_loop_tests
FNDA:1,_RNCNvMs1_NtNtCshN9TtrzEz6i_22dual_core_pdf_pipeline2ai13gemini_clientNtB7_12GeminiClient13post_generate0Cs1dXm4FxIgQC_13ai_loop_tests
FNDA:1,_RNCNvMs1_NtNtCshN9TtrzEz6i_22dual_core_pdf_pipeline2ai13gemini_clientNtB7_12GeminiClient17post_generate_pro0Cs1dXm4FxIgQC_13ai_loop_tests
FNDA:1,_RNCNvMs1_NtNtCshN9TtrzEz6i_22dual_core_pdf_pipeline2ai13gemini_clientNtB7_12GeminiClient29repair_extracted_transactions0Cs1dXm4FxIgQC_13ai_loop_tests
FNDA:1,_RNCNCNvMs1_NtNtCshN9TtrzEz6i_22dual_core_pdf_pipeline2ai13gemini_clientNtB9_12GeminiClient13post_generate00CscbEv8trNfeN_15api_chaos_tests
FNDA:0,_RNCNCNvMs1_NtNtCshN9TtrzEz6i_22dual_core_pdf_pipeline2ai13gemini_clientNtB9_12GeminiClient13post_generate0s0_0CscbEv8trNfeN_15api_chaos_tests
FNDA:2,_RNCNCNvMs1_NtNtCshN9TtrzEz6i_22dual_core_pdf_pipeline2ai13gemini_clientNtB9_12GeminiClient13post_generate0s_0CscbEv8trNfeN_15api_chaos_tests
FNDA:1,_RNCNvMs1_NtNtCshN9TtrzEz6i_22dual_core_pdf_pipeline2ai13gemini_clientNtB7_12GeminiClient13post_generate0CscbEv8trNfeN_15api_chaos_tests
FNDA:1,_RNCNvMs1_NtNtCshN9TtrzEz6i_22dual_core_pdf_pipeline2ai13gemini_clientNtB7_12GeminiClient4ping0CscbEv8trNfeN_15api_chaos_tests
FNDA:1,_RNCNCNvMs1_NtNtCshN9TtrzEz6i_22dual_core_pdf_pipeline2ai13gemini_clientNtB9_12GeminiClient13post_generate00Cs8rgthVp5iEY_11chaos_tests
FNDA:0,_RNCNCNvMs1_NtNtCshN9TtrzEz6i_22dual_core_pdf_pipeline2ai13gemini_clientNtB9_12GeminiClient13post_generate0s0_0Cs8rgthVp5iEY_11chaos_tests
FNDA:0,_RNCNCNvMs1_NtNtCshN9TtrzEz6i_22dual_core_pdf_pipeline2ai13gemini_clientNtB9_12GeminiClient13post_generate0s_0Cs8rgthVp5iEY_11chaos_tests
FNDA:0,_RNCNCNvMs1_NtNtCshN9TtrzEz6i_22dual_core_pdf_pipeline2ai13gemini_clientNtB9_12GeminiClient29repair_extracted_transactions00Cs8rgthVp5iEY_11chaos_tests
FNDA:1,_RNCNCNvMs1_NtNtCshN9TtrzEz6i_22dual_core_pdf_pipeline2ai13gemini_clientNtB9_12GeminiClient29repair_extracted_transactions0s_0Cs8rgthVp5iEY_11chaos_tests
FNDA:1,_RNCNvMs1_NtNtCshN9TtrzEz6i_22dual_core_pdf_pipeline2ai13gemini_clientNtB7_12GeminiClient13post_generate0Cs8rgthVp5iEY_11chaos_tests
FNDA:1,_RNCNvMs1_NtNtCshN9TtrzEz6i_22dual_core_pdf_pipeline2ai13gemini_clientNtB7_12GeminiClient17post_generate_pro0Cs8rgthVp5iEY_11chaos_tests
FNDA:1,_RNCNvMs1_NtNtCshN9TtrzEz6i_22dual_core_pdf_pipeline2ai13gemini_clientNtB7_12GeminiClient29repair_extracted_transactions0Cs8rgthVp5iEY_11chaos_tests
FNDA:0,_RNCNvNtNtCsdGsEM3RpwG4_22dual_core_pdf_pipeline2ai13gemini_client9scrub_pii0B7_
FNDA:0,_RNCNCNCNCNvNtNtCsdGsEM3RpwG4_22dual_core_pdf_pipeline2ai13gemini_client21mint_gcp_access_tokens0_0s0_000Bd_
FNDA:0,_RNCNCNCNCNvNtNtCsdGsEM3RpwG4_22dual_core_pdf_pipeline2ai13gemini_client21mint_gcp_access_tokens0_0s0_00s_0Bd_
FNDA:0,_RNCNCNCNCNvNtNtCsdGsEM3RpwG4_22dual_core_pdf_pipeline2ai13gemini_client27mint_gcp_access_token_async0s0_000Bd_
FNDA:0,_RNCNCNCNCNvNtNtCsdGsEM3RpwG4_22dual_core_pdf_pipeline2ai13gemini_client27mint_gcp_access_token_async0s0_00s_0Bd_
FNDA:0,_RNCNCNCNvNtNtCsdGsEM3RpwG4_22dual_core_pdf_pipeline2ai13gemini_client21mint_gcp_access_tokens0_0s0_00Bb_
FNDA:0,_RNCNCNCNvNtNtCsdGsEM3RpwG4_22dual_core_pdf_pipeline2ai13gemini_client27mint_gcp_access_token_async0s0_00Bb_
FNDA:0,_RNCNCNvMs1_NtNtCsdGsEM3RpwG4_22dual_core_pdf_pipeline2ai13gemini_clientNtB9_12GeminiClient20verify_transfer_math00Bd_
FNDA:0,_RNCNCNvMs1_NtNtCsdGsEM3RpwG4_22dual_core_pdf_pipeline2ai13gemini_clientNtB9_12GeminiClient20verify_transfer_math0s0_0Bd_
FNDA:0,_RNCNCNvMs1_NtNtCsdGsEM3RpwG4_22dual_core_pdf_pipeline2ai13gemini_clientNtB9_12GeminiClient20verify_transfer_math0s_0Bd_
FNDA:0,_RNCNCNvMs1_NtNtCsdGsEM3RpwG4_22dual_core_pdf_pipeline2ai13gemini_clientNtB9_12GeminiClient21from_app_config_async00Bd_
FNDA:0,_RNCNCNvMs1_NtNtCsdGsEM3RpwG4_22dual_core_pdf_pipeline2ai13gemini_clientNtB9_12GeminiClient24validate_render_visually00Bd_
FNDA:0,_RNCNCNvMs1_NtNtCsdGsEM3RpwG4_22dual_core_pdf_pipeline2ai13gemini_clientNtB9_12GeminiClient24validate_render_visually0s_0Bd_
FNDA:0,_RNCNCNvMs1_NtNtCsdGsEM3RpwG4_22dual_core_pdf_pipeline2ai13gemini_clientNtB9_12GeminiClient25plan_transaction_transfer00Bd_
FNDA:0,_RNCNCNvMs1_NtNtCsdGsEM3RpwG4_22dual_core_pdf_pipeline2ai13gemini_clientNtB9_12GeminiClient25plan_transaction_transfer0s_0Bd_
FNDA:0,_RNCNCNvMs1_NtNtCsdGsEM3RpwG4_22dual_core_pdf_pipeline2ai13gemini_clientNtB9_12GeminiClient27apply_natural_language_edit00Bd_
FNDA:0,_RNCNCNvMs1_NtNtCsdGsEM3RpwG4_22dual_core_pdf_pipeline2ai13gemini_clientNtB9_12GeminiClient27apply_natural_language_edit0s0_0Bd_
FNDA:0,_RNCNCNvMs1_NtNtCsdGsEM3RpwG4_22dual_core_pdf_pipeline2ai13gemini_clientNtB9_12GeminiClient27apply_natural_language_edit0s_0Bd_
FNDA:0,_RNCNCNvMs1_NtNtCsdGsEM3RpwG4_22dual_core_pdf_pipeline2ai13gemini_clientNtB9_12GeminiClient27validate_parse_completeness00Bd_
FNDA:0,_RNCNCNvMs1_NtNtCsdGsEM3RpwG4_22dual_core_pdf_pipeline2ai13gemini_clientNtB9_12GeminiClient27validate_parse_completeness0s0_0Bd_
FNDA:0,_RNCNCNvMs1_NtNtCsdGsEM3RpwG4_22dual_core_pdf_pipeline2ai13gemini_clientNtB9_12GeminiClient27validate_parse_completeness0s1_0Bd_
FNDA:0,_RNCNCNvMs1_NtNtCsdGsEM3RpwG4_22dual_core_pdf_pipeline2ai13gemini_clientNtB9_12GeminiClient27validate_parse_completeness0s_0Bd_
FNDA:0,_RNCNCNvMs1_NtNtCsdGsEM3RpwG4_22dual_core_pdf_pipeline2ai13gemini_clientNtB9_12GeminiClient29repair_extracted_transactions00Bd_
FNDA:0,_RNCNCNvMs1_NtNtCsdGsEM3RpwG4_22dual_core_pdf_pipeline2ai13gemini_clientNtB9_12GeminiClient29repair_extracted_transactions0s_0Bd_
FNDA:0,_RNCNCNvNtNtCsdGsEM3RpwG4_22dual_core_pdf_pipeline2ai13gemini_client21mint_gcp_access_tokens0_00B9_
FNDA:0,_RNCNCNvNtNtCsdGsEM3RpwG4_22dual_core_pdf_pipeline2ai13gemini_client21mint_gcp_access_tokens0_0s0_0B9_
FNDA:0,_RNCNCNvNtNtCsdGsEM3RpwG4_22dual_core_pdf_pipeline2ai13gemini_client21mint_gcp_access_tokens0_0s_0B9_
FNDA:0,_RNCNCNvNtNtCsdGsEM3RpwG4_22dual_core_pdf_pipeline2ai13gemini_client27mint_gcp_access_token_async00B9_
FNDA:0,_RNCNCNvNtNtCsdGsEM3RpwG4_22dual_core_pdf_pipeline2ai13gemini_client27mint_gcp_access_token_async0s0_0B9_
FNDA:0,_RNCNCNvNtNtCsdGsEM3RpwG4_22dual_core_pdf_pipeline2ai13gemini_client27mint_gcp_access_token_async0s1_0B9_
FNDA:0,_RNCNCNvNtNtCsdGsEM3RpwG4_22dual_core_pdf_pipeline2ai13gemini_client27mint_gcp_access_token_async0s2_0B9_
FNDA:0,_RNCNCNvNtNtCsdGsEM3RpwG4_22dual_core_pdf_pipeline2ai13gemini_client27mint_gcp_access_token_async0s3_0B9_
FNDA:0,_RNCNCNvNtNtCsdGsEM3RpwG4_22dual_core_pdf_pipeline2ai13gemini_client27mint_gcp_access_token_async0s4_0B9_
FNDA:0,_RNCNCNvNtNtCsdGsEM3RpwG4_22dual_core_pdf_pipeline2ai13gemini_client27mint_gcp_access_token_async0s5_0B9_
FNDA:0,_RNCNCNvNtNtCsdGsEM3RpwG4_22dual_core_pdf_pipeline2ai13gemini_client27mint_gcp_access_token_async0s6_0B9_
FNDA:0,_RNCNCNvNtNtCsdGsEM3RpwG4_22dual_core_pdf_pipeline2ai13gemini_client27mint_gcp_access_token_async0s7_0B9_
FNDA:0,_RNCNCNvNtNtCsdGsEM3RpwG4_22dual_core_pdf_pipeline2ai13gemini_client27mint_gcp_access_token_async0s8_0B9_
FNDA:0,_RNCNCNvNtNtCsdGsEM3RpwG4_22dual_core_pdf_pipeline2ai13gemini_client27mint_gcp_access_token_async0s9_0B9_
FNDA:0,_RNCNCNvNtNtCsdGsEM3RpwG4_22dual_core_pdf_pipeline2ai13gemini_client27mint_gcp_access_token_async0s_0B9_
FNDA:0,_RNCNCNvNtNtCsdGsEM3RpwG4_22dual_core_pdf_pipeline2ai13gemini_client27mint_gcp_access_token_async0sa_0B9_
FNDA:0,_RNCNvMs1_NtNtCsdGsEM3RpwG4_22dual_core_pdf_pipeline2ai13gemini_clientNtB7_12GeminiClient15from_app_config0Bb_
FNDA:0,_RNCNvMs1_NtNtCsdGsEM3RpwG4_22dual_core_pdf_pipeline2ai13gemini_clientNtB7_12GeminiClient20verify_transfer_math0Bb_
FNDA:0,_RNCNvMs1_NtNtCsdGsEM3RpwG4_22dual_core_pdf_pipeline2ai13gemini_clientNtB7_12GeminiClient21from_app_config_async0Bb_
FNDA:0,_RNCNvMs1_NtNtCsdGsEM3RpwG4_22dual_core_pdf_pipeline2ai13gemini_clientNtB7_12GeminiClient24validate_render_visually0Bb_
FNDA:0,_RNCNvMs1_NtNtCsdGsEM3RpwG4_22dual_core_pdf_pipeline2ai13gemini_clientNtB7_12GeminiClient25plan_transaction_transfer0Bb_
FNDA:0,_RNCNvMs1_NtNtCsdGsEM3RpwG4_22dual_core_pdf_pipeline2ai13gemini_clientNtB7_12GeminiClient27apply_natural_language_edit0Bb_
FNDA:0,_RNCNvMs1_NtNtCsdGsEM3RpwG4_22dual_core_pdf_pipeline2ai13gemini_clientNtB7_12GeminiClient27validate_parse_completeness0Bb_
FNDA:0,_RNCNvMs1_NtNtCsdGsEM3RpwG4_22dual_core_pdf_pipeline2ai13gemini_clientNtB7_12GeminiClient28verify_statement_mathematics0Bb_
FNDA:0,_RNCNvMs1_NtNtCsdGsEM3RpwG4_22dual_core_pdf_pipeline2ai13gemini_clientNtB7_12GeminiClient29repair_extracted_transactions0Bb_
FNDA:0,_RNCNvMs1_NtNtCsdGsEM3RpwG4_22dual_core_pdf_pipeline2ai13gemini_clientNtB7_12GeminiClient4ping0Bb_
FNDA:0,_RNCNvNtNtCsdGsEM3RpwG4_22dual_core_pdf_pipeline2ai13gemini_client21mint_gcp_access_token0B7_
FNDA:0,_RNCNvNtNtCsdGsEM3RpwG4_22dual_core_pdf_pipeline2ai13gemini_client21mint_gcp_access_tokens0_0B7_
FNDA:0,_RNCNvNtNtCsdGsEM3RpwG4_22dual_core_pdf_pipeline2ai13gemini_client21mint_gcp_access_tokens1_0B7_
FNDA:0,_RNCNvNtNtCsdGsEM3RpwG4_22dual_core_pdf_pipeline2ai13gemini_client21mint_gcp_access_tokens2_0B7_
FNDA:0,_RNCNvNtNtCsdGsEM3RpwG4_22dual_core_pdf_pipeline2ai13gemini_client21mint_gcp_access_tokens3_0B7_
FNDA:0,_RNCNvNtNtCsdGsEM3RpwG4_22dual_core_pdf_pipeline2ai13gemini_client21mint_gcp_access_tokens4_0B7_
FNDA:0,_RNCNvNtNtCsdGsEM3RpwG4_22dual_core_pdf_pipeline2ai13gemini_client21mint_gcp_access_tokens5_0B7_
FNDA:0,_RNCNvNtNtCsdGsEM3RpwG4_22dual_core_pdf_pipeline2ai13gemini_client21mint_gcp_access_tokens6_0B7_
FNDA:0,_RNCNvNtNtCsdGsEM3RpwG4_22dual_core_pdf_pipeline2ai13gemini_client21mint_gcp_access_tokens7_0B7_
FNDA:0,_RNCNvNtNtCsdGsEM3RpwG4_22dual_core_pdf_pipeline2ai13gemini_client21mint_gcp_access_tokens8_0B7_
FNDA:0,_RNCNvNtNtCsdGsEM3RpwG4_22dual_core_pdf_pipeline2ai13gemini_client21mint_gcp_access_tokens9_0B7_
FNDA:0,_RNCNvNtNtCsdGsEM3RpwG4_22dual_core_pdf_pipeline2ai13gemini_client21mint_gcp_access_tokens_0B7_
FNDA:0,_RNCNvNtNtCsdGsEM3RpwG4_22dual_core_pdf_pipeline2ai13gemini_client21mint_gcp_access_tokensa_0B7_
FNDA:0,_RNCNvNtNtCsdGsEM3RpwG4_22dual_core_pdf_pipeline2ai13gemini_client27mint_gcp_access_token_async0B7_
FNDA:0,_RNvMs0_NtNtCsdGsEM3RpwG4_22dual_core_pdf_pipeline2ai13gemini_clientNtB5_18GeminiVisionReport8validate
FNDA:0,_RNvMs1_NtNtCsdGsEM3RpwG4_22dual_core_pdf_pipeline2ai13gemini_clientNtB5_12GeminiClient15from_app_config
FNDA:0,_RNvMs1_NtNtCsdGsEM3RpwG4_22dual_core_pdf_pipeline2ai13gemini_clientNtB5_12GeminiClient20verify_transfer_math
FNDA:0,_RNvMs1_NtNtCsdGsEM3RpwG4_22dual_core_pdf_pipeline2ai13gemini_clientNtB5_12GeminiClient21from_app_config_async
FNDA:0,_RNvMs1_NtNtCsdGsEM3RpwG4_22dual_core_pdf_pipeline2ai13gemini_clientNtB5_12GeminiClient24validate_render_visually
FNDA:0,_RNvMs1_NtNtCsdGsEM3RpwG4_22dual_core_pdf_pipeline2ai13gemini_clientNtB5_12GeminiClient25plan_transaction_transfer
FNDA:0,_RNvMs1_NtNtCsdGsEM3RpwG4_22dual_core_pdf_pipeline2ai13gemini_clientNtB5_12GeminiClient27apply_natural_language_edit
FNDA:0,_RNvMs1_NtNtCsdGsEM3RpwG4_22dual_core_pdf_pipeline2ai13gemini_clientNtB5_12GeminiClient27validate_parse_completeness
FNDA:0,_RNvMs1_NtNtCsdGsEM3RpwG4_22dual_core_pdf_pipeline2ai13gemini_clientNtB5_12GeminiClient28verify_statement_mathematics
FNDA:0,_RNvMs1_NtNtCsdGsEM3RpwG4_22dual_core_pdf_pipeline2ai13gemini_clientNtB5_12GeminiClient29repair_extracted_transactions
FNDA:0,_RNvMs1_NtNtCsdGsEM3RpwG4_22dual_core_pdf_pipeline2ai13gemini_clientNtB5_12GeminiClient4ping
FNDA:0,_RNvMs_NtNtCsdGsEM3RpwG4_22dual_core_pdf_pipeline2ai13gemini_clientNtB4_24GeminiCompletenessReport8validate
FNDA:0,_RNvNtNtCsdGsEM3RpwG4_22dual_core_pdf_pipeline2ai13gemini_client21mint_gcp_access_token
FNDA:0,_RNvNtNtCsdGsEM3RpwG4_22dual_core_pdf_pipeline2ai13gemini_client27mint_gcp_access_token_async
FNDA:1,_RNCNCNvMs1_NtNtCsdGsEM3RpwG4_22dual_core_pdf_pipeline2ai13gemini_clientNtB9_12GeminiClient13post_generate00Bd_
FNDA:0,_RNCNCNvMs1_NtNtCsdGsEM3RpwG4_22dual_core_pdf_pipeline2ai13gemini_clientNtB9_12GeminiClient13post_generate0s0_0Bd_
FNDA:0,_RNCNCNvMs1_NtNtCsdGsEM3RpwG4_22dual_core_pdf_pipeline2ai13gemini_clientNtB9_12GeminiClient13post_generate0s_0Bd_
FNDA:0,_RNCNCNvMs1_NtNtCsdGsEM3RpwG4_22dual_core_pdf_pipeline2ai13gemini_clientNtB9_12GeminiClient27propose_balance_adjustments00Bd_
FNDA:0,_RNCNCNvMs1_NtNtCsdGsEM3RpwG4_22dual_core_pdf_pipeline2ai13gemini_clientNtB9_12GeminiClient27propose_balance_adjustments0s_0Bd_
FNDA:1,_RNCNvMs1_NtNtCsdGsEM3RpwG4_22dual_core_pdf_pipeline2ai13gemini_clientNtB7_12GeminiClient13post_generate0Bb_
FNDA:1,_RNCNvMs1_NtNtCsdGsEM3RpwG4_22dual_core_pdf_pipeline2ai13gemini_clientNtB7_12GeminiClient17post_generate_pro0Bb_
FNDA:1,_RNCNvMs1_NtNtCsdGsEM3RpwG4_22dual_core_pdf_pipeline2ai13gemini_clientNtB7_12GeminiClient27propose_balance_adjustments0Bb_
FNDA:1,_RNCNvNtNtNtCsdGsEM3RpwG4_22dual_core_pdf_pipeline2ai13gemini_client5testss_37low_confidence_response_returns_error0B9_
FNDA:2,_RNvNtNtNtCsdGsEM3RpwG4_22dual_core_pdf_pipeline2ai13gemini_client5tests3hot
FNDA:1,_RNvNtNtNtCsdGsEM3RpwG4_22dual_core_pdf_pipeline2ai13gemini_client5testss_37low_confidence_response_returns_error
FNDA:1,_RNvNtNtNtCsdGsEM3RpwG4_22dual_core_pdf_pipeline2ai13gemini_client5testss_45request_body_uses_camelcase_and_object_schema
FNDA:1,_RNvNtNtNtCsdGsEM3RpwG4_22dual_core_pdf_pipeline2ai13gemini_client5testss_47vision_accepts_pristine_render_with_no_hotspots
FNDA:1,_RNvNtNtNtCsdGsEM3RpwG4_22dual_core_pdf_pipeline2ai13gemini_client5testss_48vision_should_reject_when_overall_score_too_high
FNDA:1,_RNvNtNtNtCsdGsEM3RpwG4_22dual_core_pdf_pipeline2ai13gemini_client5testss_51vision_should_accept_when_hotspots_overlap_intended
FNDA:1,_RNvNtNtNtCsdGsEM3RpwG4_22dual_core_pdf_pipeline2ai13gemini_client5testss_57vision_should_reject_when_hotspot_outside_intended_bboxes
FNDA:2,_RNCNvMs0_NtNtCsdGsEM3RpwG4_22dual_core_pdf_pipeline2ai13gemini_clientNtB7_18GeminiVisionReport13should_reject0Bb_
FNDA:1,_RNCNvNvNtNtCsdGsEM3RpwG4_22dual_core_pdf_pipeline2ai13gemini_client9scrub_pii9RE_DIGITS0B9_
FNDA:1,_RNvMNtNtCsdGsEM3RpwG4_22dual_core_pdf_pipeline2ai13gemini_clientNtB2_17GeminiBalancePlan8validate
FNDA:6,_RNvMs0_NtNtCsdGsEM3RpwG4_22dual_core_pdf_pipeline2ai13gemini_clientNtB5_18GeminiVisionReport13should_reject
FNDA:1,_RNvMs1_NtNtCsdGsEM3RpwG4_22dual_core_pdf_pipeline2ai13gemini_clientNtB5_12GeminiClient13post_generate
FNDA:1,_RNvMs1_NtNtCsdGsEM3RpwG4_22dual_core_pdf_pipeline2ai13gemini_clientNtB5_12GeminiClient13with_base_url
FNDA:1,_RNvMs1_NtNtCsdGsEM3RpwG4_22dual_core_pdf_pipeline2ai13gemini_clientNtB5_12GeminiClient17post_generate_pro
FNDA:1,_RNvMs1_NtNtCsdGsEM3RpwG4_22dual_core_pdf_pipeline2ai13gemini_clientNtB5_12GeminiClient27propose_balance_adjustments
FNDA:1,_RNvMs1_NtNtCsdGsEM3RpwG4_22dual_core_pdf_pipeline2ai13gemini_clientNtB5_12GeminiClient8endpoint
FNDA:1,_RNvNCNvMs1_NtNtCsdGsEM3RpwG4_22dual_core_pdf_pipeline2ai13gemini_clientNtB9_12GeminiClient17post_generate_pro016should_fall_back
FNDA:1,_RNvNtNtCsdGsEM3RpwG4_22dual_core_pdf_pipeline2ai13gemini_client9scrub_pii
FNDA:0,_RNCNCNCNCNvNtNtCshN9TtrzEz6i_22dual_core_pdf_pipeline2ai13gemini_client27mint_gcp_access_token_async0s0_000CseEmI1GKjWjI_22engine_statement_tests
FNDA:0,_RNCNCNCNCNvNtNtCshN9TtrzEz6i_22dual_core_pdf_pipeline2ai13gemini_client27mint_gcp_access_token_async0s0_00s_0CseEmI1GKjWjI_22engine_statement_tests
FNDA:0,_RNCNCNCNvNtNtCshN9TtrzEz6i_22dual_core_pdf_pipeline2ai13gemini_client27mint_gcp_access_token_async0s0_00CseEmI1GKjWjI_22engine_statement_tests
FNDA:0,_RNCNCNvMs1_NtNtCshN9TtrzEz6i_22dual_core_pdf_pipeline2ai13gemini_clientNtB9_12GeminiClient13post_generate00CseEmI1GKjWjI_22engine_statement_tests
FNDA:0,_RNCNCNvMs1_NtNtCshN9TtrzEz6i_22dual_core_pdf_pipeline2ai13gemini_clientNtB9_12GeminiClient13post_generate0s0_0CseEmI1GKjWjI_22engine_statement_tests
FNDA:0,_RNCNCNvMs1_NtNtCshN9TtrzEz6i_22dual_core_pdf_pipeline2ai13gemini_clientNtB9_12GeminiClient13post_generate0s_0CseEmI1GKjWjI_22engine_statement_tests
FNDA:0,_RNCNCNvMs1_NtNtCshN9TtrzEz6i_22dual_core_pdf_pipeline2ai13gemini_clientNtB9_12GeminiClient21from_app_config_async00CseEmI1GKjWjI_22engine_statement_tests
FNDA:0,_RNCNCNvMs1_NtNtCshN9TtrzEz6i_22dual_core_pdf_pipeline2ai13gemini_clientNtB9_12GeminiClient27propose_balance_adjustments00CseEmI1GKjWjI_22engine_statement_tests
FNDA:0,_RNCNCNvMs1_NtNtCshN9TtrzEz6i_22dual_core_pdf_pipeline2ai13gemini_clientNtB9_12GeminiClient27propose_balance_adjustments0s_0CseEmI1GKjWjI_22engine_statement_tests
FNDA:0,_RNCNCNvMs1_NtNtCshN9TtrzEz6i_22dual_core_pdf_pipeline2ai13gemini_clientNtB9_12GeminiClient29repair_extracted_transactions00CseEmI1GKjWjI_22engine_statement_tests
FNDA:0,_RNCNCNvMs1_NtNtCshN9TtrzEz6i_22dual_core_pdf_pipeline2ai13gemini_clientNtB9_12GeminiClient29repair_extracted_transactions0s_0CseEmI1GKjWjI_22engine_statement_tests
FNDA:0,_RNCNCNvNtNtCshN9TtrzEz6i_22dual_core_pdf_pipeline2ai13gemini_client27mint_gcp_access_token_async00CseEmI1GKjWjI_22engine_statement_tests
FNDA:0,_RNCNCNvNtNtCshN9TtrzEz6i_22dual_core_pdf_pipeline2ai13gemini_client27mint_gcp_access_token_async0s0_0CseEmI1GKjWjI_22engine_statement_tests
FNDA:0,_RNCNCNvNtNtCshN9TtrzEz6i_22dual_core_pdf_pipeline2ai13gemini_client27mint_gcp_access_token_async0s1_0CseEmI1GKjWjI_22engine_statement_tests
FNDA:0,_RNCNCNvNtNtCshN9TtrzEz6i_22dual_core_pdf_pipeline2ai13gemini_client27mint_gcp_access_token_async0s2_0CseEmI1GKjWjI_22engine_statement_tests
FNDA:0,_RNCNCNvNtNtCshN9TtrzEz6i_22dual_core_pdf_pipeline2ai13gemini_client27mint_gcp_access_token_async0s3_0CseEmI1GKjWjI_22engine_statement_tests
FNDA:0,_RNCNCNvNtNtCshN9TtrzEz6i_22dual_core_pdf_pipeline2ai13gemini_client27mint_gcp_access_token_async0s4_0CseEmI1GKjWjI_22engine_statement_tests
FNDA:0,_RNCNCNvNtNtCshN9TtrzEz6i_22dual_core_pdf_pipeline2ai13gemini_client27mint_gcp_access_token_async0s5_0CseEmI1GKjWjI_22engine_statement_tests
FNDA:0,_RNCNCNvNtNtCshN9TtrzEz6i_22dual_core_pdf_pipeline2ai13gemini_client27mint_gcp_access_token_async0s6_0CseEmI1GKjWjI_22engine_statement_tests
FNDA:0,_RNCNCNvNtNtCshN9TtrzEz6i_22dual_core_pdf_pipeline2ai13gemini_client27mint_gcp_access_token_async0s7_0CseEmI1GKjWjI_22engine_statement_tests
FNDA:0,_RNCNCNvNtNtCshN9TtrzEz6i_22dual_core_pdf_pipeline2ai13gemini_client27mint_gcp_access_token_async0s8_0CseEmI1GKjWjI_22engine_statement_tests
FNDA:0,_RNCNCNvNtNtCshN9TtrzEz6i_22dual_core_pdf_pipeline2ai13gemini_client27mint_gcp_access_token_async0s9_0CseEmI1GKjWjI_22engine_statement_tests
FNDA:0,_RNCNCNvNtNtCshN9TtrzEz6i_22dual_core_pdf_pipeline2ai13gemini_client27mint_gcp_access_token_async0s_0CseEmI1GKjWjI_22engine_statement_tests
FNDA:0,_RNCNCNvNtNtCshN9TtrzEz6i_22dual_core_pdf_pipeline2ai13gemini_client27mint_gcp_access_token_async0sa_0CseEmI1GKjWjI_22engine_statement_tests
FNDA:0,_RNCNvMs1_NtNtCshN9TtrzEz6i_22dual_core_pdf_pipeline2ai13gemini_clientNtB7_12GeminiClient13post_generate0CseEmI1GKjWjI_22engine_statement_tests
FNDA:0,_RNCNvMs1_NtNtCshN9TtrzEz6i_22dual_core_pdf_pipeline2ai13gemini_clientNtB7_12GeminiClient17post_generate_pro0CseEmI1GKjWjI_22engine_statement_tests
FNDA:0,_RNCNvMs1_NtNtCshN9TtrzEz6i_22dual_core_pdf_pipeline2ai13gemini_clientNtB7_12GeminiClient21from_app_config_async0CseEmI1GKjWjI_22engine_statement_tests
FNDA:0,_RNCNvMs1_NtNtCshN9TtrzEz6i_22dual_core_pdf_pipeline2ai13gemini_clientNtB7_12GeminiClient27propose_balance_adjustments0CseEmI1GKjWjI_22engine_statement_tests
FNDA:0,_RNCNvMs1_NtNtCshN9TtrzEz6i_22dual_core_pdf_pipeline2ai13gemini_clientNtB7_12GeminiClient29repair_extracted_transactions0CseEmI1GKjWjI_22engine_statement_tests
FNDA:0,_RNCNvNtNtCshN9TtrzEz6i_22dual_core_pdf_pipeline2ai13gemini_client27mint_gcp_access_token_async0CseEmI1GKjWjI_22engine_statement_tests
FNDA:0,_RNCNCNCNCNvNtNtCshN9TtrzEz6i_22dual_core_pdf_pipeline2ai13gemini_client27mint_gcp_access_token_async0s0_000Csi3ESQQ38hK3_12ranking_test
FNDA:0,_RNCNCNCNCNvNtNtCshN9TtrzEz6i_22dual_core_pdf_pipeline2ai13gemini_client27mint_gcp_access_token_async0s0_00s_0Csi3ESQQ38hK3_12ranking_test
FNDA:0,_RNCNCNCNvNtNtCshN9TtrzEz6i_22dual_core_pdf_pipeline2ai13gemini_client27mint_gcp_access_token_async0s0_00Csi3ESQQ38hK3_12ranking_test
FNDA:0,_RNCNCNvMs1_NtNtCshN9TtrzEz6i_22dual_core_pdf_pipeline2ai13gemini_clientNtB9_12GeminiClient13post_generate00Csi3ESQQ38hK3_12ranking_test
FNDA:0,_RNCNCNvMs1_NtNtCshN9TtrzEz6i_22dual_core_pdf_pipeline2ai13gemini_clientNtB9_12GeminiClient13post_generate0s0_0Csi3ESQQ38hK3_12ranking_test
FNDA:0,_RNCNCNvMs1_NtNtCshN9TtrzEz6i_22dual_core_pdf_pipeline2ai13gemini_clientNtB9_12GeminiClient13post_generate0s_0Csi3ESQQ38hK3_12ranking_test
FNDA:0,_RNCNCNvMs1_NtNtCshN9TtrzEz6i_22dual_core_pdf_pipeline2ai13gemini_clientNtB9_12GeminiClient21from_app_config_async00Csi3ESQQ38hK3_12ranking_test
FNDA:0,_RNCNCNvMs1_NtNtCshN9TtrzEz6i_22dual_core_pdf_pipeline2ai13gemini_clientNtB9_12GeminiClient29repair_extracted_transactions00Csi3ESQQ38hK3_12ranking_test
FNDA:0,_RNCNCNvMs1_NtNtCshN9TtrzEz6i_22dual_core_pdf_pipeline2ai13gemini_clientNtB9_12GeminiClient29repair_extracted_transactions0s_0Csi3ESQQ38hK3_12ranking_test
FNDA:0,_RNCNCNvNtNtCshN9TtrzEz6i_22dual_core_pdf_pipeline2ai13gemini_client27mint_gcp_access_token_async00Csi3ESQQ38hK3_12ranking_test
FNDA:0,_RNCNCNvNtNtCshN9TtrzEz6i_22dual_core_pdf_pipeline2ai13gemini_client27mint_gcp_access_token_async0s0_0Csi3ESQQ38hK3_12ranking_test
FNDA:0,_RNCNCNvNtNtCshN9TtrzEz6i_22dual_core_pdf_pipeline2ai13gemini_client27mint_gcp_access_token_async0s1_0Csi3ESQQ38hK3_12ranking_test
FNDA:0,_RNCNCNvNtNtCshN9TtrzEz6i_22dual_core_pdf_pipeline2ai13gemini_client27mint_gcp_access_token_async0s2_0Csi3ESQQ38hK3_12ranking_test
FNDA:0,_RNCNCNvNtNtCshN9TtrzEz6i_22dual_core_pdf_pipeline2ai13gemini_client27mint_gcp_access_token_async0s3_0Csi3ESQQ38hK3_12ranking_test
FNDA:0,_RNCNCNvNtNtCshN9TtrzEz6i_22dual_core_pdf_pipeline2ai13gemini_client27mint_gcp_access_token_async0s4_0Csi3ESQQ38hK3_12ranking_test
FNDA:0,_RNCNCNvNtNtCshN9TtrzEz6i_22dual_core_pdf_pipeline2ai13gemini_client27mint_gcp_access_token_async0s5_0Csi3ESQQ38hK3_12ranking_test
FNDA:0,_RNCNCNvNtNtCshN9TtrzEz6i_22dual_core_pdf_pipeline2ai13gemini_client27mint_gcp_access_token_async0s6_0Csi3ESQQ38hK3_12ranking_test
FNDA:0,_RNCNCNvNtNtCshN9TtrzEz6i_22dual_core_pdf_pipeline2ai13gemini_client27mint_gcp_access_token_async0s7_0Csi3ESQQ38hK3_12ranking_test
FNDA:0,_RNCNCNvNtNtCshN9TtrzEz6i_22dual_core_pdf_pipeline2ai13gemini_client27mint_gcp_access_token_async0s8_0Csi3ESQQ38hK3_12ranking_test
FNDA:0,_RNCNCNvNtNtCshN9TtrzEz6i_22dual_core_pdf_pipeline2ai13gemini_client27mint_gcp_access_token_async0s9_0Csi3ESQQ38hK3_12ranking_test
FNDA:0,_RNCNCNvNtNtCshN9TtrzEz6i_22dual_core_pdf_pipeline2ai13gemini_client27mint_gcp_access_token_async0s_0Csi3ESQQ38hK3_12ranking_test
FNDA:0,_RNCNCNvNtNtCshN9TtrzEz6i_22dual_core_pdf_pipeline2ai13gemini_client27mint_gcp_access_token_async0sa_0Csi3ESQQ38hK3_12ranking_test
FNDA:0,_RNCNvMs1_NtNtCshN9TtrzEz6i_22dual_core_pdf_pipeline2ai13gemini_clientNtB7_12GeminiClient13post_generate0Csi3ESQQ38hK3_12ranking_test
FNDA:0,_RNCNvMs1_NtNtCshN9TtrzEz6i_22dual_core_pdf_pipeline2ai13gemini_clientNtB7_12GeminiClient17post_generate_pro0Csi3ESQQ38hK3_12ranking_test
FNDA:0,_RNCNvMs1_NtNtCshN9TtrzEz6i_22dual_core_pdf_pipeline2ai13gemini_clientNtB7_12GeminiClient21from_app_config_async0Csi3ESQQ38hK3_12ranking_test
FNDA:0,_RNCNvMs1_NtNtCshN9TtrzEz6i_22dual_core_pdf_pipeline2ai13gemini_clientNtB7_12GeminiClient29repair_extracted_transactions0Csi3ESQQ38hK3_12ranking_test
FNDA:0,_RNCNvNtNtCshN9TtrzEz6i_22dual_core_pdf_pipeline2ai13gemini_client27mint_gcp_access_token_async0Csi3ESQQ38hK3_12ranking_test
FNDA:1,_RNCNCNvMs1_NtNtCshN9TtrzEz6i_22dual_core_pdf_pipeline2ai13gemini_clientNtB9_12GeminiClient13post_generate00CsggDmH9at6wh_20transfer_retry_tests
FNDA:0,_RNCNCNvMs1_NtNtCshN9TtrzEz6i_22dual_core_pdf_pipeline2ai13gemini_clientNtB9_12GeminiClient13post_generate0s0_0CsggDmH9at6wh_20transfer_retry_tests
FNDA:0,_RNCNCNvMs1_NtNtCshN9TtrzEz6i_22dual_core_pdf_pipeline2ai13gemini_clientNtB9_12GeminiClient13post_generate0s_0CsggDmH9at6wh_20transfer_retry_tests
FNDA:0,_RNCNCNvMs1_NtNtCshN9TtrzEz6i_22dual_core_pdf_pipeline2ai13gemini_clientNtB9_12GeminiClient25plan_transaction_transfer00CsggDmH9at6wh_20transfer_retry_tests
FNDA:0,_RNCNCNvMs1_NtNtCshN9TtrzEz6i_22dual_core_pdf_pipeline2ai13gemini_clientNtB9_12GeminiClient25plan_transaction_transfer0s_0CsggDmH9at6wh_20transfer_retry_tests
FNDA:1,_RNCNvMs1_NtNtCshN9TtrzEz6i_22dual_core_pdf_pipeline2ai13gemini_clientNtB7_12GeminiClient13post_generate0CsggDmH9at6wh_20transfer_retry_tests
FNDA:1,_RNCNvMs1_NtNtCshN9TtrzEz6i_22dual_core_pdf_pipeline2ai13gemini_clientNtB7_12GeminiClient17post_generate_pro0CsggDmH9at6wh_20transfer_retry_tests
FNDA:1,_RNCNvMs1_NtNtCshN9TtrzEz6i_22dual_core_pdf_pipeline2ai13gemini_clientNtB7_12GeminiClient25plan_transaction_transfer0CsggDmH9at6wh_20transfer_retry_tests
FNDA:0,_RNCNCNCNCNvNtNtCshN9TtrzEz6i_22dual_core_pdf_pipeline2ai13gemini_client27mint_gcp_access_token_async0s0_000Cs7XQKM2zb9vf_8validate
FNDA:0,_RNCNCNCNCNvNtNtCshN9TtrzEz6i_22dual_core_pdf_pipeline2ai13gemini_client27mint_gcp_access_token_async0s0_00s_0Cs7XQKM2zb9vf_8validate
FNDA:0,_RNCNCNCNvNtNtCshN9TtrzEz6i_22dual_core_pdf_pipeline2ai13gemini_client27mint_gcp_access_token_async0s0_00Cs7XQKM2zb9vf_8validate
FNDA:0,_RNCNCNvMs1_NtNtCshN9TtrzEz6i_22dual_core_pdf_pipeline2ai13gemini_clientNtB9_12GeminiClient13post_generate00Cs7XQKM2zb9vf_8validate
FNDA:0,_RNCNCNvMs1_NtNtCshN9TtrzEz6i_22dual_core_pdf_pipeline2ai13gemini_clientNtB9_12GeminiClient13post_generate0s0_0Cs7XQKM2zb9vf_8validate
FNDA:0,_RNCNCNvMs1_NtNtCshN9TtrzEz6i_22dual_core_pdf_pipeline2ai13gemini_clientNtB9_12GeminiClient13post_generate0s_0Cs7XQKM2zb9vf_8validate
FNDA:0,_RNCNCNvMs1_NtNtCshN9TtrzEz6i_22dual_core_pdf_pipeline2ai13gemini_clientNtB9_12GeminiClient21from_app_config_async00Cs7XQKM2zb9vf_8validate
FNDA:0,_RNCNCNvNtNtCshN9TtrzEz6i_22dual_core_pdf_pipeline2ai13gemini_client27mint_gcp_access_token_async00Cs7XQKM2zb9vf_8validate
FNDA:0,_RNCNCNvNtNtCshN9TtrzEz6i_22dual_core_pdf_pipeline2ai13gemini_client27mint_gcp_access_token_async0s0_0Cs7XQKM2zb9vf_8validate
FNDA:0,_RNCNCNvNtNtCshN9TtrzEz6i_22dual_core_pdf_pipeline2ai13gemini_client27mint_gcp_access_token_async0s1_0Cs7XQKM2zb9vf_8validate
FNDA:0,_RNCNCNvNtNtCshN9TtrzEz6i_22dual_core_pdf_pipeline2ai13gemini_client27mint_gcp_access_token_async0s2_0Cs7XQKM2zb9vf_8validate
FNDA:0,_RNCNCNvNtNtCshN9TtrzEz6i_22dual_core_pdf_pipeline2ai13gemini_client27mint_gcp_access_token_async0s3_0Cs7XQKM2zb9vf_8validate
FNDA:0,_RNCNCNvNtNtCshN9TtrzEz6i_22dual_core_pdf_pipeline2ai13gemini_client27mint_gcp_access_token_async0s4_0Cs7XQKM2zb9vf_8validate
FNDA:0,_RNCNCNvNtNtCshN9TtrzEz6i_22dual_core_pdf_pipeline2ai13gemini_client27mint_gcp_access_token_async0s5_0Cs7XQKM2zb9vf_8validate
FNDA:0,_RNCNCNvNtNtCshN9TtrzEz6i_22dual_core_pdf_pipeline2ai13gemini_client27mint_gcp_access_token_async0s6_0Cs7XQKM2zb9vf_8validate
FNDA:0,_RNCNCNvNtNtCshN9TtrzEz6i_22dual_core_pdf_pipeline2ai13gemini_client27mint_gcp_access_token_async0s7_0Cs7XQKM2zb9vf_8validate
FNDA:0,_RNCNCNvNtNtCshN9TtrzEz6i_22dual_core_pdf_pipeline2ai13gemini_client27mint_gcp_access_token_async0s8_0Cs7XQKM2zb9vf_8validate
FNDA:0,_RNCNCNvNtNtCshN9TtrzEz6i_22dual_core_pdf_pipeline2ai13gemini_client27mint_gcp_access_token_async0s9_0Cs7XQKM2zb9vf_8validate
FNDA:0,_RNCNCNvNtNtCshN9TtrzEz6i_22dual_core_pdf_pipeline2ai13gemini_client27mint_gcp_access_token_async0s_0Cs7XQKM2zb9vf_8validate
FNDA:0,_RNCNCNvNtNtCshN9TtrzEz6i_22dual_core_pdf_pipeline2ai13gemini_client27mint_gcp_access_token_async0sa_0Cs7XQKM2zb9vf_8validate
FNDA:0,_RNCNvMs1_NtNtCshN9TtrzEz6i_22dual_core_pdf_pipeline2ai13gemini_clientNtB7_12GeminiClient13post_generate0Cs7XQKM2zb9vf_8validate
FNDA:0,_RNCNvMs1_NtNtCshN9TtrzEz6i_22dual_core_pdf_pipeline2ai13gemini_clientNtB7_12GeminiClient21from_app_config_async0Cs7XQKM2zb9vf_8validate
FNDA:0,_RNCNvMs1_NtNtCshN9TtrzEz6i_22dual_core_pdf_pipeline2ai13gemini_clientNtB7_12GeminiClient4ping0Cs7XQKM2zb9vf_8validate
FNDA:0,_RNCNvNtNtCshN9TtrzEz6i_22dual_core_pdf_pipeline2ai13gemini_client27mint_gcp_access_token_async0Cs7XQKM2zb9vf_8validate
FNF:105
FNH:37
DA:26,3
DA:27,3
DA:28,0
DA:29,0
DA:30,0
DA:31,0
DA:32,3
DA:33,4
DA:34,1
DA:35,0
DA:36,0
DA:37,0
DA:38,0
DA:39,1
DA:41,3
DA:42,3
DA:61,0
DA:62,0
DA:63,0
DA:64,0
DA:65,0
DA:66,0
DA:67,0
DA:68,0
DA:69,0
DA:105,6
DA:106,6
DA:107,1
DA:108,5
DA:109,6
DA:110,2
DA:111,2
DA:112,2
DA:114,1
DA:115,1
DA:117,4
DA:118,6
DA:120,0
DA:121,0
DA:122,0
DA:123,0
DA:124,0
DA:125,0
DA:126,0
DA:127,0
DA:128,0
DA:129,0
DA:130,0
DA:131,0
DA:132,0
DA:133,0
DA:135,0
DA:136,0
DA:198,13
DA:199,13
DA:204,0
DA:205,0
DA:206,0
DA:207,0
DA:208,0
DA:209,0
DA:210,0
DA:211,0
DA:212,0
DA:213,0
DA:214,0
DA:216,0
DA:218,0
DA:219,0
DA:220,0
DA:221,0
DA:222,0
DA:223,0
DA:224,0
DA:225,0
DA:226,0
DA:227,0
DA:228,0
DA:229,0
DA:230,0
DA:233,13
DA:234,13
DA:235,13
DA:236,13
DA:237,13
DA:238,13
DA:239,13
DA:242,13
DA:244,1
DA:245,1
DA:247,0
DA:248,0
DA:249,0
DA:250,0
DA:251,0
DA:252,0
DA:253,0
DA:254,0
DA:255,0
DA:256,0
DA:257,0
DA:259,0
DA:261,0
DA:262,0
DA:263,0
DA:264,0
DA:265,0
DA:266,0
DA:267,0
DA:268,0
DA:269,0
DA:270,0
DA:271,0
DA:272,0
DA:273,0
DA:274,0
DA:277,1
DA:278,1
DA:279,1
DA:280,1
DA:281,1
DA:282,1
DA:283,1
DA:286,1
DA:294,22
DA:295,22
DA:296,22
DA:297,22
DA:298,22
DA:299,22
DA:300,22
DA:301,22
DA:302,22
DA:303,22
DA:304,22
DA:306,0
DA:307,0
DA:308,0
DA:309,0
DA:310,0
DA:311,0
DA:312,0
DA:313,0
DA:314,0
DA:315,0
DA:317,22
DA:321,22
DA:322,22
DA:323,22
DA:324,22
DA:325,22
DA:326,22
DA:329,22
DA:330,22
DA:331,0
DA:332,22
DA:333,0
DA:335,22
DA:338,22
DA:339,22
DA:341,34
DA:342,34
DA:343,34
DA:344,34
DA:345,34
DA:346,34
DA:348,34
DA:349,34
DA:350,34
DA:351,34
DA:353,0
DA:354,0
DA:355,0
DA:359,34
DA:360,33
DA:361,33
DA:362,33
DA:363,16
DA:364,4
DA:365,4
DA:366,12
DA:368,12
DA:369,12
DA:370,12
DA:371,12
DA:372,12
DA:373,12
DA:374,12
DA:375,0
DA:380,12
DA:381,12
DA:382,17
DA:383,17
DA:384,8
DA:385,8
DA:387,9
DA:388,8
DA:389,17
DA:391,0
DA:392,0
DA:393,0
DA:394,0
DA:395,0
DA:396,0
DA:397,0
DA:398,0
DA:399,0
DA:400,0
DA:401,0
DA:402,0
DA:403,0
DA:407,21
DA:415,9
DA:416,9
DA:417,9
DA:418,9
DA:422,10
DA:423,10
DA:424,10
DA:425,10
DA:426,10
DA:429,9
DA:430,9
DA:431,8
DA:432,1
DA:433,1
DA:434,0
DA:436,0
DA:441,1
DA:442,1
DA:443,0
DA:444,1
DA:445,1
DA:446,0
DA:448,0
DA:453,1
DA:454,9
DA:457,11
DA:458,11
DA:459,11
DA:460,11
DA:461,11
DA:462,11
DA:463,11
DA:464,11
DA:468,11
DA:469,11
DA:470,11
DA:471,11
DA:472,11
DA:473,11
DA:474,11
DA:475,11
DA:477,11
DA:481,11
DA:482,10
DA:484,10
DA:485,10
DA:487,0
DA:488,0
DA:489,10
DA:491,4
DA:492,4
DA:493,4
DA:494,4
DA:495,4
DA:496,4
DA:497,4
DA:498,4
DA:499,4
DA:500,4
DA:501,4
DA:502,4
DA:503,4
DA:504,4
DA:505,4
DA:506,4
DA:507,4
DA:508,4
DA:510,4
DA:514,4
DA:515,4
DA:516,4
DA:517,4
DA:518,4
DA:519,4
DA:520,4
DA:521,4
DA:522,4
DA:523,4
DA:524,4
DA:525,4
DA:526,4
DA:527,4
DA:529,4
DA:532,4
DA:533,4
DA:535,4
DA:538,4
DA:539,4
DA:540,4
DA:541,4
DA:543,4
DA:544,4
DA:545,4
DA:546,4
DA:547,4
DA:549,4
DA:550,4
DA:551,4
DA:555,4
DA:557,4
DA:559,1
DA:560,1
DA:562,3
DA:564,3
DA:565,3
DA:566,3
DA:567,3
DA:569,3
DA:570,3
DA:571,3
DA:573,3
DA:574,2
DA:575,1
DA:577,1
DA:578,4
DA:583,0
DA:584,0
DA:585,0
DA:586,0
DA:587,0
DA:588,0
DA:589,0
DA:590,0
DA:591,0
DA:592,0
DA:593,0
DA:594,0
DA:595,0
DA:596,0
DA:597,0
DA:598,0
DA:599,0
DA:603,0
DA:606,0
DA:607,0
DA:608,0
DA:609,0
DA:610,0
DA:611,0
DA:612,0
DA:614,0
DA:617,0
DA:618,0
DA:619,0
DA:620,0
DA:621,0
DA:622,0
DA:623,0
DA:625,0
DA:626,0
DA:627,0
DA:631,0
DA:632,0
DA:633,0
DA:634,0
DA:635,0
DA:636,0
DA:637,0
DA:638,0
DA:639,0
DA:640,0
DA:641,0
DA:642,0
DA:644,0
DA:645,0
DA:646,0
DA:647,0
DA:649,0
DA:650,0
DA:654,0
DA:655,0
DA:656,0
DA:657,0
DA:658,0
DA:659,0
DA:660,0
DA:661,0
DA:662,0
DA:663,0
DA:664,0
DA:666,0
DA:667,0
DA:669,0
DA:670,0
DA:671,0
DA:672,0
DA:673,0
DA:675,0
DA:678,0
DA:680,2
DA:681,2
DA:682,2
DA:683,2
DA:684,2
DA:685,2
DA:686,2
DA:687,2
DA:688,2
DA:689,2
DA:690,2
DA:691,2
DA:692,2
DA:693,2
DA:694,2
DA:695,2
DA:696,2
DA:697,2
DA:699,2
DA:703,2
DA:705,2
DA:706,2
DA:707,2
DA:708,2
DA:709,2
DA:710,2
DA:711,2
DA:712,2
DA:713,2
DA:716,2
DA:717,2
DA:718,2
DA:719,2
DA:721,2
DA:722,2
DA:723,2
DA:724,2
DA:728,2
DA:730,2
DA:731,0
DA:732,2
DA:734,2
DA:735,2
DA:736,2
DA:737,2
DA:739,2
DA:740,2
DA:742,1
DA:743,2
DA:746,2
DA:747,2
DA:748,2
DA:749,2
DA:750,2
DA:751,2
DA:752,2
DA:753,2
DA:754,2
DA:755,2
DA:756,2
DA:757,2
DA:760,2
DA:761,2
DA:762,2
DA:763,2
DA:765,2
DA:768,2
DA:769,2
DA:770,2
DA:771,2
DA:773,2
DA:774,2
DA:775,2
DA:779,2
DA:780,2
DA:782,1
DA:783,1
DA:785,1
DA:787,1
DA:788,1
DA:789,1
DA:790,1
DA:797,1
DA:798,1
DA:799,0
DA:801,2
DA:810,0
DA:811,0
DA:812,0
DA:813,0
DA:814,0
DA:816,0
DA:818,0
DA:819,0
DA:820,0
DA:821,0
DA:822,0
DA:823,0
DA:824,0
DA:825,0
DA:826,0
DA:827,0
DA:828,0
DA:829,0
DA:830,0
DA:831,0
DA:832,0
DA:833,0
DA:834,0
DA:835,0
DA:838,0
DA:839,0
DA:840,0
DA:841,0
DA:842,0
DA:843,0
DA:844,0
DA:845,0
DA:846,0
DA:847,0
DA:848,0
DA:849,0
DA:851,0
DA:852,0
DA:854,0
DA:857,0
DA:859,0
DA:862,0
DA:863,0
DA:864,0
DA:865,0
DA:866,0
DA:868,0
DA:869,0
DA:870,0
DA:875,0
DA:876,0
DA:877,0
DA:883,0
DA:885,0
DA:887,0
DA:888,0
DA:890,0
DA:891,0
DA:892,0
DA:893,0
DA:894,0
DA:895,0
DA:896,0
DA:897,0
DA:898,0
DA:899,0
DA:904,1
DA:905,1
DA:906,1
DA:907,1
DA:908,1
DA:909,1
DA:910,1
DA:911,1
DA:913,1
DA:914,1
DA:915,1
DA:916,1
DA:917,1
DA:918,1
DA:919,1
DA:920,1
DA:921,1
DA:922,1
DA:923,1
DA:924,1
DA:925,1
DA:926,1
DA:927,1
DA:928,1
DA:929,1
DA:932,1
DA:933,1
DA:934,1
DA:936,1
DA:937,1
DA:938,1
DA:939,1
DA:940,1
DA:941,1
DA:942,1
DA:943,1
DA:944,1
DA:945,1
DA:946,1
DA:947,1
DA:948,1
DA:950,1
DA:953,1
DA:954,1
DA:955,1
DA:956,1
DA:958,1
DA:959,1
DA:960,1
DA:962,1
DA:963,1
DA:965,1
DA:968,1
DA:969,1
DA:970,1
DA:971,1
DA:973,1
DA:974,1
DA:975,1
DA:979,1
DA:981,1
DA:983,0
DA:984,0
DA:986,1
DA:988,1
DA:989,1
DA:990,1
DA:991,1
DA:993,1
DA:994,1
DA:996,1
DA:997,0
DA:998,1
DA:1000,1
DA:1001,1
DA:1005,0
DA:1006,0
DA:1007,0
DA:1008,0
DA:1009,0
DA:1012,0
DA:1013,0
DA:1014,0
DA:1015,0
DA:1016,0
DA:1017,0
DA:1018,0
DA:1019,0
DA:1020,0
DA:1021,0
DA:1022,0
DA:1024,0
DA:1025,0
DA:1027,0
DA:1028,0
DA:1029,0
DA:1030,0
DA:1031,0
DA:1032,0
DA:1033,0
DA:1034,0
DA:1035,0
DA:1036,0
DA:1039,0
DA:1040,0
DA:1041,0
DA:1042,0
DA:1043,0
DA:1044,0
DA:1045,0
DA:1046,0
DA:1047,0
DA:1048,0
DA:1049,0
DA:1050,0
DA:1051,0
DA:1053,0
DA:1056,0
DA:1058,0
DA:1061,0
DA:1062,0
DA:1063,0
DA:1064,0
DA:1066,0
DA:1067,0
DA:1068,0
DA:1072,0
DA:1074,0
DA:1076,0
DA:1077,0
DA:1079,0
DA:1081,0
DA:1082,0
DA:1083,0
DA:1084,0
DA:1086,0
DA:1087,0
DA:1089,0
DA:1090,0
DA:1092,0
DA:1093,0
DA:1094,0
DA:1095,0
DA:1096,0
DA:1097,0
DA:1099,0
DA:1100,0
DA:1101,0
DA:1102,0
DA:1103,0
DA:1104,0
DA:1105,0
DA:1106,0
DA:1107,0
DA:1108,0
DA:1109,0
DA:1110,0
DA:1112,0
DA:1116,0
DA:1118,0
DA:1119,0
DA:1120,0
DA:1122,0
DA:1123,0
DA:1124,0
DA:1126,0
DA:1127,0
DA:1128,0
DA:1132,0
DA:1133,0
DA:1135,0
DA:1149,0
DA:1151,0
DA:1152,0
DA:1153,0
DA:1154,0
DA:1155,0
DA:1156,0
DA:1157,0
DA:1158,0
DA:1159,0
DA:1162,0
DA:1163,0
DA:1174,0
DA:1175,0
DA:1176,0
DA:1180,0
DA:1181,0
DA:1182,0
DA:1183,0
DA:1185,0
DA:1186,0
DA:1187,0
DA:1188,0
DA:1189,0
DA:1190,0
DA:1191,0
DA:1192,0
DA:1193,0
DA:1194,0
DA:1195,0
DA:1196,0
DA:1197,0
DA:1198,0
DA:1199,0
DA:1200,0
DA:1202,0
DA:1203,0
DA:1204,0
DA:1205,0
DA:1206,0
DA:1208,0
DA:1209,0
DA:1210,0
DA:1211,0
DA:1212,0
DA:1213,0
DA:1214,0
DA:1215,0
DA:1216,0
DA:1217,0
DA:1218,0
DA:1219,0
DA:1229,0
DA:1230,0
DA:1231,0
DA:1232,0
DA:1233,0
DA:1234,0
DA:1235,0
DA:1236,0
DA:1237,0
DA:1238,0
DA:1239,0
DA:1240,0
DA:1241,0
DA:1243,0
DA:1244,0
DA:1245,0
DA:1246,0
DA:1247,0
DA:1248,0
DA:1249,0
DA:1250,0
DA:1251,0
DA:1252,0
DA:1253,0
DA:1254,0
DA:1255,0
DA:1256,0
DA:1257,0
DA:1258,0
DA:1260,0
DA:1261,0
DA:1262,0
DA:1263,0
DA:1264,0
DA:1265,0
DA:1266,0
DA:1267,0
DA:1268,0
DA:1269,0
DA:1270,0
DA:1271,0
DA:1272,0
DA:1274,0
DA:1275,0
DA:1276,0
DA:1277,0
DA:1278,0
DA:1279,0
DA:1280,0
DA:1281,0
DA:1282,0
DA:1283,0
DA:1284,0
DA:1285,0
DA:1286,0
DA:1287,0
DA:1288,0
DA:1290,0
DA:1291,0
DA:1301,0
DA:1305,0
DA:1306,0
DA:1307,0
DA:1308,0
DA:1310,0
DA:1313,0
DA:1314,0
DA:1317,0
DA:1319,0
DA:1320,0
DA:1321,0
DA:1322,0
DA:1323,0
DA:1324,0
DA:1329,0
DA:1330,0
DA:1332,0
DA:1333,0
DA:1334,0
DA:1335,0
DA:1336,0
DA:1337,0
DA:1338,0
DA:1339,0
DA:1340,0
DA:1341,0
DA:1342,0
DA:1343,0
DA:1344,0
DA:1347,0
DA:1348,0
DA:1349,0
DA:1350,0
DA:1351,0
DA:1352,0
DA:1353,0
DA:1354,0
DA:1355,0
DA:1356,0
DA:1357,0
DA:1358,0
DA:1359,0
DA:1360,0
DA:1361,0
DA:1362,0
DA:1363,0
DA:1364,0
DA:1366,0
DA:1367,0
DA:1368,0
DA:1369,0
DA:1371,0
DA:1374,0
DA:1375,0
DA:1376,0
DA:1377,0
DA:1378,0
DA:1379,0
DA:1380,0
DA:1381,0
DA:1382,0
DA:1383,0
DA:1384,0
DA:1394,0
DA:1395,0
DA:1396,0
DA:1397,0
DA:1398,0
DA:1399,0
DA:1400,0
DA:1401,0
DA:1402,0
DA:1403,0
DA:1404,0
DA:1405,0
DA:1406,0
DA:1408,0
DA:1409,0
DA:1410,0
DA:1411,0
DA:1412,0
DA:1413,0
DA:1414,0
DA:1415,0
DA:1416,0
DA:1417,0
DA:1418,0
DA:1419,0
DA:1422,0
DA:1423,0
DA:1424,0
DA:1425,0
DA:1426,0
DA:1427,0
DA:1428,0
DA:1429,0
DA:1430,0
DA:1431,0
DA:1432,0
DA:1433,0
DA:1434,0
DA:1435,0
DA:1436,0
DA:1437,0
DA:1438,0
DA:1439,0
DA:1440,0
DA:1441,0
DA:1442,0
DA:1443,0
DA:1444,0
DA:1445,0
DA:1446,0
DA:1447,0
DA:1449,0
DA:1450,0
DA:1454,8
DA:1457,5
DA:1458,8
DA:1460,8
DA:1461,8
DA:1462,8
DA:1463,4
DA:1464,4
DA:1465,4
DA:1466,4
DA:1467,4
DA:1468,4
DA:1469,8
DA:1470,8
DA:1479,1
DA:1480,1
DA:1481,1
DA:1482,1
DA:1483,1
DA:1484,1
DA:1485,1
DA:1486,1
DA:1487,1
DA:1488,1
DA:1491,1
DA:1492,1
DA:1493,1
DA:1494,1
DA:1495,1
DA:1496,1
DA:1497,1
DA:1498,1
DA:1499,1
DA:1500,1
DA:1501,1
DA:1502,1
DA:1503,1
DA:1504,1
DA:1506,1
DA:1509,1
DA:1510,1
DA:1512,1
DA:1515,1
DA:1516,1
DA:1517,1
DA:1518,1
DA:1520,1
DA:1521,1
DA:1522,1
DA:1526,1
DA:1527,1
DA:1528,1
DA:1529,1
DA:1532,1
DA:1533,1
DA:1536,1
DA:1537,1
DA:1539,1
DA:1540,1
DA:1541,1
DA:1542,1
DA:1543,1
DA:1544,1
DA:1545,1
DA:1546,1
DA:1547,1
DA:1548,1
DA:1549,1
DA:1550,1
DA:1551,1
DA:1553,1
DA:1555,1
DA:1556,1
DA:1557,1
DA:1558,1
DA:1559,1
DA:1560,1
DA:1561,1
DA:1562,1
DA:1563,1
DA:1564,1
DA:1565,1
DA:1566,1
DA:1567,1
DA:1568,1
DA:1570,1
DA:1571,1
DA:1572,1
DA:1573,1
DA:1574,1
DA:1576,2
DA:1577,2
DA:1578,2
DA:1579,2
DA:1580,2
DA:1581,2
DA:1582,2
DA:1585,1
DA:1586,1
DA:1587,1
DA:1588,1
DA:1589,1
DA:1590,1
DA:1592,1
DA:1593,1
DA:1594,1
DA:1597,1
DA:1598,1
DA:1599,1
DA:1600,1
DA:1601,1
DA:1602,1
DA:1603,1
DA:1605,1
DA:1606,1
DA:1609,1
DA:1610,1
DA:1611,1
DA:1612,1
DA:1613,1
DA:1614,1
DA:1615,1
DA:1617,1
DA:1618,1
DA:1621,1
DA:1622,1
DA:1623,1
DA:1624,1
DA:1625,1
DA:1626,1
DA:1627,1
DA:1628,1
DA:1629,1
BRF:0
BRH:0
LF:1163
LH:511
end_of_record
SF:/Volumes/Macintosh_HD/Users/user298993/Documents/GitHub/bank-statement-fidelity-editor/src/ai/llamaparse.rs
FN:351,_RNCNvMNtNtCshN9TtrzEz6i_22dual_core_pdf_pipeline2ai10llamaparseNtB4_16LlamaParseClient27parse_markdown_to_statement0B8_
FN:320,_RNCNCNvMNtNtCshN9TtrzEz6i_22dual_core_pdf_pipeline2ai10llamaparseNtB6_16LlamaParseClient14fetch_markdown00Ba_
FN:88,_RNCNCNvMNtNtCshN9TtrzEz6i_22dual_core_pdf_pipeline2ai10llamaparseNtB6_16LlamaParseClient15parse_statement00Ba_
FN:124,_RNCNCNvMNtNtCshN9TtrzEz6i_22dual_core_pdf_pipeline2ai10llamaparseNtB6_16LlamaParseClient15parse_statement0s_0Ba_
FN:154,_RNCNCNvMNtNtCshN9TtrzEz6i_22dual_core_pdf_pipeline2ai10llamaparseNtB6_16LlamaParseClient15upload_document00Ba_
FN:180,_RNCNCNvMNtNtCshN9TtrzEz6i_22dual_core_pdf_pipeline2ai10llamaparseNtB6_16LlamaParseClient15upload_document0s_0Ba_
FN:252,_RNCNCNvMNtNtCshN9TtrzEz6i_22dual_core_pdf_pipeline2ai10llamaparseNtB6_16LlamaParseClient19poll_until_complete00Ba_
FN:275,_RNCNvMNtNtCshN9TtrzEz6i_22dual_core_pdf_pipeline2ai10llamaparseNtB4_16LlamaParseClient14fetch_markdown0B8_
FN:77,_RNCNvMNtNtCshN9TtrzEz6i_22dual_core_pdf_pipeline2ai10llamaparseNtB4_16LlamaParseClient15parse_statement0B8_
FN:138,_RNCNvMNtNtCshN9TtrzEz6i_22dual_core_pdf_pipeline2ai10llamaparseNtB4_16LlamaParseClient15upload_document0B8_
FN:210,_RNCNvMNtNtCshN9TtrzEz6i_22dual_core_pdf_pipeline2ai10llamaparseNtB4_16LlamaParseClient19poll_until_complete0B8_
FN:57,_RNCNvMNtNtCshN9TtrzEz6i_22dual_core_pdf_pipeline2ai10llamaparseNtB4_16LlamaParseClient15from_app_config0B8_
FN:362,_RNCNvMNtNtCshN9TtrzEz6i_22dual_core_pdf_pipeline2ai10llamaparseNtB4_16LlamaParseClient27parse_markdown_to_statements0_0B8_
FN:363,_RNCNvMNtNtCshN9TtrzEz6i_22dual_core_pdf_pipeline2ai10llamaparseNtB4_16LlamaParseClient27parse_markdown_to_statements1_0B8_
FN:364,_RNCNvMNtNtCshN9TtrzEz6i_22dual_core_pdf_pipeline2ai10llamaparseNtB4_16LlamaParseClient27parse_markdown_to_statements2_0B8_
FN:357,_RNCNvMNtNtCshN9TtrzEz6i_22dual_core_pdf_pipeline2ai10llamaparseNtB4_16LlamaParseClient27parse_markdown_to_statements_0B8_
FN:275,_RNvMNtNtCshN9TtrzEz6i_22dual_core_pdf_pipeline2ai10llamaparseNtB2_16LlamaParseClient14fetch_markdown
FN:53,_RNvMNtNtCshN9TtrzEz6i_22dual_core_pdf_pipeline2ai10llamaparseNtB2_16LlamaParseClient15from_app_config
FN:77,_RNvMNtNtCshN9TtrzEz6i_22dual_core_pdf_pipeline2ai10llamaparseNtB2_16LlamaParseClient15parse_statement
FN:138,_RNvMNtNtCshN9TtrzEz6i_22dual_core_pdf_pipeline2ai10llamaparseNtB2_16LlamaParseClient15upload_document
FN:210,_RNvMNtNtCshN9TtrzEz6i_22dual_core_pdf_pipeline2ai10llamaparseNtB2_16LlamaParseClient19poll_until_complete
FN:335,_RNvMNtNtCshN9TtrzEz6i_22dual_core_pdf_pipeline2ai10llamaparseNtB2_16LlamaParseClient27parse_markdown_to_statement
FN:320,_RNCNCNvMNtNtCsdGsEM3RpwG4_22dual_core_pdf_pipeline2ai10llamaparseNtB6_16LlamaParseClient14fetch_markdown00Ba_
FN:88,_RNCNCNvMNtNtCsdGsEM3RpwG4_22dual_core_pdf_pipeline2ai10llamaparseNtB6_16LlamaParseClient15parse_statement00Ba_
FN:124,_RNCNCNvMNtNtCsdGsEM3RpwG4_22dual_core_pdf_pipeline2ai10llamaparseNtB6_16LlamaParseClient15parse_statement0s_0Ba_
FN:154,_RNCNCNvMNtNtCsdGsEM3RpwG4_22dual_core_pdf_pipeline2ai10llamaparseNtB6_16LlamaParseClient15upload_document00Ba_
FN:180,_RNCNCNvMNtNtCsdGsEM3RpwG4_22dual_core_pdf_pipeline2ai10llamaparseNtB6_16LlamaParseClient15upload_document0s_0Ba_
FN:252,_RNCNCNvMNtNtCsdGsEM3RpwG4_22dual_core_pdf_pipeline2ai10llamaparseNtB6_16LlamaParseClient19poll_until_complete00Ba_
FN:275,_RNCNvMNtNtCsdGsEM3RpwG4_22dual_core_pdf_pipeline2ai10llamaparseNtB4_16LlamaParseClient14fetch_markdown0B8_
FN:57,_RNCNvMNtNtCsdGsEM3RpwG4_22dual_core_pdf_pipeline2ai10llamaparseNtB4_16LlamaParseClient15from_app_config0B8_
FN:77,_RNCNvMNtNtCsdGsEM3RpwG4_22dual_core_pdf_pipeline2ai10llamaparseNtB4_16LlamaParseClient15parse_statement0B8_
FN:138,_RNCNvMNtNtCsdGsEM3RpwG4_22dual_core_pdf_pipeline2ai10llamaparseNtB4_16LlamaParseClient15upload_document0B8_
FN:210,_RNCNvMNtNtCsdGsEM3RpwG4_22dual_core_pdf_pipeline2ai10llamaparseNtB4_16LlamaParseClient19poll_until_complete0B8_
FN:351,_RNCNvMNtNtCsdGsEM3RpwG4_22dual_core_pdf_pipeline2ai10llamaparseNtB4_16LlamaParseClient27parse_markdown_to_statement0B8_
FN:362,_RNCNvMNtNtCsdGsEM3RpwG4_22dual_core_pdf_pipeline2ai10llamaparseNtB4_16LlamaParseClient27parse_markdown_to_statements0_0B8_
FN:363,_RNCNvMNtNtCsdGsEM3RpwG4_22dual_core_pdf_pipeline2ai10llamaparseNtB4_16LlamaParseClient27parse_markdown_to_statements1_0B8_
FN:364,_RNCNvMNtNtCsdGsEM3RpwG4_22dual_core_pdf_pipeline2ai10llamaparseNtB4_16LlamaParseClient27parse_markdown_to_statements2_0B8_
FN:357,_RNCNvMNtNtCsdGsEM3RpwG4_22dual_core_pdf_pipeline2ai10llamaparseNtB4_16LlamaParseClient27parse_markdown_to_statements_0B8_
FN:275,_RNvMNtNtCsdGsEM3RpwG4_22dual_core_pdf_pipeline2ai10llamaparseNtB2_16LlamaParseClient14fetch_markdown
FN:53,_RNvMNtNtCsdGsEM3RpwG4_22dual_core_pdf_pipeline2ai10llamaparseNtB2_16LlamaParseClient15from_app_config
FN:77,_RNvMNtNtCsdGsEM3RpwG4_22dual_core_pdf_pipeline2ai10llamaparseNtB2_16LlamaParseClient15parse_statement
FN:138,_RNvMNtNtCsdGsEM3RpwG4_22dual_core_pdf_pipeline2ai10llamaparseNtB2_16LlamaParseClient15upload_document
FN:210,_RNvMNtNtCsdGsEM3RpwG4_22dual_core_pdf_pipeline2ai10llamaparseNtB2_16LlamaParseClient19poll_until_complete
FN:335,_RNvMNtNtCsdGsEM3RpwG4_22dual_core_pdf_pipeline2ai10llamaparseNtB2_16LlamaParseClient27parse_markdown_to_statement
FN:320,_RNCNCNvMNtNtCshN9TtrzEz6i_22dual_core_pdf_pipeline2ai10llamaparseNtB6_16LlamaParseClient14fetch_markdown00Csi3ESQQ38hK3_12ranking_test
FN:88,_RNCNCNvMNtNtCshN9TtrzEz6i_22dual_core_pdf_pipeline2ai10llamaparseNtB6_16LlamaParseClient15parse_statement00Csi3ESQQ38hK3_12ranking_test
FN:124,_RNCNCNvMNtNtCshN9TtrzEz6i_22dual_core_pdf_pipeline2ai10llamaparseNtB6_16LlamaParseClient15parse_statement0s_0Csi3ESQQ38hK3_12ranking_test
FN:154,_RNCNCNvMNtNtCshN9TtrzEz6i_22dual_core_pdf_pipeline2ai10llamaparseNtB6_16LlamaParseClient15upload_document00Csi3ESQQ38hK3_12ranking_test
FN:180,_RNCNCNvMNtNtCshN9TtrzEz6i_22dual_core_pdf_pipeline2ai10llamaparseNtB6_16LlamaParseClient15upload_document0s_0Csi3ESQQ38hK3_12ranking_test
FN:252,_RNCNCNvMNtNtCshN9TtrzEz6i_22dual_core_pdf_pipeline2ai10llamaparseNtB6_16LlamaParseClient19poll_until_complete00Csi3ESQQ38hK3_12ranking_test
FN:275,_RNCNvMNtNtCshN9TtrzEz6i_22dual_core_pdf_pipeline2ai10llamaparseNtB4_16LlamaParseClient14fetch_markdown0Csi3ESQQ38hK3_12ranking_test
FN:77,_RNCNvMNtNtCshN9TtrzEz6i_22dual_core_pdf_pipeline2ai10llamaparseNtB4_16LlamaParseClient15parse_statement0Csi3ESQQ38hK3_12ranking_test
FN:138,_RNCNvMNtNtCshN9TtrzEz6i_22dual_core_pdf_pipeline2ai10llamaparseNtB4_16LlamaParseClient15upload_document0Csi3ESQQ38hK3_12ranking_test
FN:210,_RNCNvMNtNtCshN9TtrzEz6i_22dual_core_pdf_pipeline2ai10llamaparseNtB4_16LlamaParseClient19poll_until_complete0Csi3ESQQ38hK3_12ranking_test
FNDA:0,_RNCNvMNtNtCshN9TtrzEz6i_22dual_core_pdf_pipeline2ai10llamaparseNtB4_16LlamaParseClient27parse_markdown_to_statement0B8_
FNDA:0,_RNCNCNvMNtNtCshN9TtrzEz6i_22dual_core_pdf_pipeline2ai10llamaparseNtB6_16LlamaParseClient14fetch_markdown00Ba_
FNDA:2,_RNCNCNvMNtNtCshN9TtrzEz6i_22dual_core_pdf_pipeline2ai10llamaparseNtB6_16LlamaParseClient15parse_statement00Ba_
FNDA:0,_RNCNCNvMNtNtCshN9TtrzEz6i_22dual_core_pdf_pipeline2ai10llamaparseNtB6_16LlamaParseClient15parse_statement0s_0Ba_
FNDA:0,_RNCNCNvMNtNtCshN9TtrzEz6i_22dual_core_pdf_pipeline2ai10llamaparseNtB6_16LlamaParseClient15upload_document00Ba_
FNDA:0,_RNCNCNvMNtNtCshN9TtrzEz6i_22dual_core_pdf_pipeline2ai10llamaparseNtB6_16LlamaParseClient15upload_document0s_0Ba_
FNDA:0,_RNCNCNvMNtNtCshN9TtrzEz6i_22dual_core_pdf_pipeline2ai10llamaparseNtB6_16LlamaParseClient19poll_until_complete00Ba_
FNDA:0,_RNCNvMNtNtCshN9TtrzEz6i_22dual_core_pdf_pipeline2ai10llamaparseNtB4_16LlamaParseClient14fetch_markdown0B8_
FNDA:2,_RNCNvMNtNtCshN9TtrzEz6i_22dual_core_pdf_pipeline2ai10llamaparseNtB4_16LlamaParseClient15parse_statement0B8_
FNDA:0,_RNCNvMNtNtCshN9TtrzEz6i_22dual_core_pdf_pipeline2ai10llamaparseNtB4_16LlamaParseClient15upload_document0B8_
FNDA:0,_RNCNvMNtNtCshN9TtrzEz6i_22dual_core_pdf_pipeline2ai10llamaparseNtB4_16LlamaParseClient19poll_until_complete0B8_
FNDA:2,_RNCNvMNtNtCshN9TtrzEz6i_22dual_core_pdf_pipeline2ai10llamaparseNtB4_16LlamaParseClient15from_app_config0B8_
FNDA:0,_RNCNvMNtNtCshN9TtrzEz6i_22dual_core_pdf_pipeline2ai10llamaparseNtB4_16LlamaParseClient27parse_markdown_to_statements0_0B8_
FNDA:0,_RNCNvMNtNtCshN9TtrzEz6i_22dual_core_pdf_pipeline2ai10llamaparseNtB4_16LlamaParseClient27parse_markdown_to_statements1_0B8_
FNDA:0,_RNCNvMNtNtCshN9TtrzEz6i_22dual_core_pdf_pipeline2ai10llamaparseNtB4_16LlamaParseClient27parse_markdown_to_statements2_0B8_
FNDA:0,_RNCNvMNtNtCshN9TtrzEz6i_22dual_core_pdf_pipeline2ai10llamaparseNtB4_16LlamaParseClient27parse_markdown_to_statements_0B8_
FNDA:0,_RNvMNtNtCshN9TtrzEz6i_22dual_core_pdf_pipeline2ai10llamaparseNtB2_16LlamaParseClient14fetch_markdown
FNDA:2,_RNvMNtNtCshN9TtrzEz6i_22dual_core_pdf_pipeline2ai10llamaparseNtB2_16LlamaParseClient15from_app_config
FNDA:2,_RNvMNtNtCshN9TtrzEz6i_22dual_core_pdf_pipeline2ai10llamaparseNtB2_16LlamaParseClient15parse_statement
FNDA:0,_RNvMNtNtCshN9TtrzEz6i_22dual_core_pdf_pipeline2ai10llamaparseNtB2_16LlamaParseClient15upload_document
FNDA:0,_RNvMNtNtCshN9TtrzEz6i_22dual_core_pdf_pipeline2ai10llamaparseNtB2_16LlamaParseClient19poll_until_complete
FNDA:0,_RNvMNtNtCshN9TtrzEz6i_22dual_core_pdf_pipeline2ai10llamaparseNtB2_16LlamaParseClient27parse_markdown_to_statement
FNDA:0,_RNCNCNvMNtNtCsdGsEM3RpwG4_22dual_core_pdf_pipeline2ai10llamaparseNtB6_16LlamaParseClient14fetch_markdown00Ba_
FNDA:0,_RNCNCNvMNtNtCsdGsEM3RpwG4_22dual_core_pdf_pipeline2ai10llamaparseNtB6_16LlamaParseClient15parse_statement00Ba_
FNDA:0,_RNCNCNvMNtNtCsdGsEM3RpwG4_22dual_core_pdf_pipeline2ai10llamaparseNtB6_16LlamaParseClient15parse_statement0s_0Ba_
FNDA:0,_RNCNCNvMNtNtCsdGsEM3RpwG4_22dual_core_pdf_pipeline2ai10llamaparseNtB6_16LlamaParseClient15upload_document00Ba_
FNDA:0,_RNCNCNvMNtNtCsdGsEM3RpwG4_22dual_core_pdf_pipeline2ai10llamaparseNtB6_16LlamaParseClient15upload_document0s_0Ba_
FNDA:0,_RNCNCNvMNtNtCsdGsEM3RpwG4_22dual_core_pdf_pipeline2ai10llamaparseNtB6_16LlamaParseClient19poll_until_complete00Ba_
FNDA:0,_RNCNvMNtNtCsdGsEM3RpwG4_22dual_core_pdf_pipeline2ai10llamaparseNtB4_16LlamaParseClient14fetch_markdown0B8_
FNDA:0,_RNCNvMNtNtCsdGsEM3RpwG4_22dual_core_pdf_pipeline2ai10llamaparseNtB4_16LlamaParseClient15from_app_config0B8_
FNDA:0,_RNCNvMNtNtCsdGsEM3RpwG4_22dual_core_pdf_pipeline2ai10llamaparseNtB4_16LlamaParseClient15parse_statement0B8_
FNDA:0,_RNCNvMNtNtCsdGsEM3RpwG4_22dual_core_pdf_pipeline2ai10llamaparseNtB4_16LlamaParseClient15upload_document0B8_
FNDA:0,_RNCNvMNtNtCsdGsEM3RpwG4_22dual_core_pdf_pipeline2ai10llamaparseNtB4_16LlamaParseClient19poll_until_complete0B8_
FNDA:0,_RNCNvMNtNtCsdGsEM3RpwG4_22dual_core_pdf_pipeline2ai10llamaparseNtB4_16LlamaParseClient27parse_markdown_to_statement0B8_
FNDA:0,_RNCNvMNtNtCsdGsEM3RpwG4_22dual_core_pdf_pipeline2ai10llamaparseNtB4_16LlamaParseClient27parse_markdown_to_statements0_0B8_
FNDA:0,_RNCNvMNtNtCsdGsEM3RpwG4_22dual_core_pdf_pipeline2ai10llamaparseNtB4_16LlamaParseClient27parse_markdown_to_statements1_0B8_
FNDA:0,_RNCNvMNtNtCsdGsEM3RpwG4_22dual_core_pdf_pipeline2ai10llamaparseNtB4_16LlamaParseClient27parse_markdown_to_statements2_0B8_
FNDA:0,_RNCNvMNtNtCsdGsEM3RpwG4_22dual_core_pdf_pipeline2ai10llamaparseNtB4_16LlamaParseClient27parse_markdown_to_statements_0B8_
FNDA:0,_RNvMNtNtCsdGsEM3RpwG4_22dual_core_pdf_pipeline2ai10llamaparseNtB2_16LlamaParseClient14fetch_markdown
FNDA:0,_RNvMNtNtCsdGsEM3RpwG4_22dual_core_pdf_pipeline2ai10llamaparseNtB2_16LlamaParseClient15from_app_config
FNDA:0,_RNvMNtNtCsdGsEM3RpwG4_22dual_core_pdf_pipeline2ai10llamaparseNtB2_16LlamaParseClient15parse_statement
FNDA:0,_RNvMNtNtCsdGsEM3RpwG4_22dual_core_pdf_pipeline2ai10llamaparseNtB2_16LlamaParseClient15upload_document
FNDA:0,_RNvMNtNtCsdGsEM3RpwG4_22dual_core_pdf_pipeline2ai10llamaparseNtB2_16LlamaParseClient19poll_until_complete
FNDA:0,_RNvMNtNtCsdGsEM3RpwG4_22dual_core_pdf_pipeline2ai10llamaparseNtB2_16LlamaParseClient27parse_markdown_to_statement
FNDA:0,_RNCNCNvMNtNtCshN9TtrzEz6i_22dual_core_pdf_pipeline2ai10llamaparseNtB6_16LlamaParseClient14fetch_markdown00Csi3ESQQ38hK3_12ranking_test
FNDA:0,_RNCNCNvMNtNtCshN9TtrzEz6i_22dual_core_pdf_pipeline2ai10llamaparseNtB6_16LlamaParseClient15parse_statement00Csi3ESQQ38hK3_12ranking_test
FNDA:0,_RNCNCNvMNtNtCshN9TtrzEz6i_22dual_core_pdf_pipeline2ai10llamaparseNtB6_16LlamaParseClient15parse_statement0s_0Csi3ESQQ38hK3_12ranking_test
FNDA:0,_RNCNCNvMNtNtCshN9TtrzEz6i_22dual_core_pdf_pipeline2ai10llamaparseNtB6_16LlamaParseClient15upload_document00Csi3ESQQ38hK3_12ranking_test
FNDA:0,_RNCNCNvMNtNtCshN9TtrzEz6i_22dual_core_pdf_pipeline2ai10llamaparseNtB6_16LlamaParseClient15upload_document0s_0Csi3ESQQ38hK3_12ranking_test
FNDA:0,_RNCNCNvMNtNtCshN9TtrzEz6i_22dual_core_pdf_pipeline2ai10llamaparseNtB6_16LlamaParseClient19poll_until_complete00Csi3ESQQ38hK3_12ranking_test
FNDA:0,_RNCNvMNtNtCshN9TtrzEz6i_22dual_core_pdf_pipeline2ai10llamaparseNtB4_16LlamaParseClient14fetch_markdown0Csi3ESQQ38hK3_12ranking_test
FNDA:0,_RNCNvMNtNtCshN9TtrzEz6i_22dual_core_pdf_pipeline2ai10llamaparseNtB4_16LlamaParseClient15parse_statement0Csi3ESQQ38hK3_12ranking_test
FNDA:0,_RNCNvMNtNtCshN9TtrzEz6i_22dual_core_pdf_pipeline2ai10llamaparseNtB4_16LlamaParseClient15upload_document0Csi3ESQQ38hK3_12ranking_test
FNDA:0,_RNCNvMNtNtCshN9TtrzEz6i_22dual_core_pdf_pipeline2ai10llamaparseNtB4_16LlamaParseClient19poll_until_complete0Csi3ESQQ38hK3_12ranking_test
FNF:22
FNH:5
DA:53,2
DA:54,2
DA:55,2
DA:56,2
DA:57,2
DA:58,2
DA:59,2
DA:60,2
DA:62,2
DA:63,2
DA:64,2
DA:65,2
DA:66,2
DA:69,2
DA:70,2
DA:71,2
DA:72,2
DA:73,2
DA:75,2
DA:77,2
DA:78,2
DA:79,2
DA:80,2
DA:81,2
DA:82,0
DA:83,0
DA:84,0
DA:88,2
DA:89,2
DA:90,2
DA:91,2
DA:92,2
DA:93,2
DA:94,2
DA:96,2
DA:97,2
DA:99,2
DA:100,2
DA:101,2
DA:102,2
DA:103,0
DA:104,0
DA:106,0
DA:107,0
DA:108,0
DA:110,0
DA:112,0
DA:114,0
DA:115,0
DA:116,0
DA:117,0
DA:118,0
DA:122,0
DA:123,0
DA:124,0
DA:125,0
DA:126,0
DA:127,0
DA:129,0
DA:130,0
DA:131,0
DA:132,0
DA:133,0
DA:135,0
DA:136,2
DA:138,0
DA:139,0
DA:140,0
DA:141,0
DA:142,0
DA:143,0
DA:144,0
DA:146,0
DA:147,0
DA:148,0
DA:150,0
DA:151,0
DA:152,0
DA:153,0
DA:154,0
DA:156,0
DA:158,0
DA:159,0
DA:160,0
DA:161,0
DA:162,0
DA:163,0
DA:164,0
DA:166,0
DA:167,0
DA:168,0
DA:169,0
DA:170,0
DA:171,0
DA:172,0
DA:173,0
DA:174,0
DA:180,0
DA:181,0
DA:182,0
DA:183,0
DA:184,0
DA:185,0
DA:186,0
DA:189,0
DA:190,0
DA:191,0
DA:192,0
DA:193,0
DA:194,0
DA:201,0
DA:202,0
DA:205,0
DA:206,0
DA:207,0
DA:208,0
DA:210,0
DA:211,0
DA:212,0
DA:214,0
DA:215,0
DA:217,0
DA:218,0
DA:219,0
DA:220,0
DA:221,0
DA:222,0
DA:224,0
DA:225,0
DA:226,0
DA:227,0
DA:231,0
DA:232,0
DA:236,0
DA:237,0
DA:238,0
DA:239,0
DA:240,0
DA:241,0
DA:242,0
DA:243,0
DA:248,0
DA:249,0
DA:250,0
DA:252,0
DA:253,0
DA:254,0
DA:256,0
DA:257,0
DA:258,0
DA:259,0
DA:260,0
DA:261,0
DA:264,0
DA:267,0
DA:270,0
DA:271,0
DA:272,0
DA:273,0
DA:275,0
DA:276,0
DA:278,0
DA:279,0
DA:280,0
DA:281,0
DA:282,0
DA:283,0
DA:284,0
DA:285,0
DA:287,0
DA:288,0
DA:289,0
DA:290,0
DA:291,0
DA:292,0
DA:293,0
DA:297,0
DA:298,0
DA:299,0
DA:303,0
DA:304,0
DA:305,0
DA:306,0
DA:307,0
DA:308,0
DA:309,0
DA:310,0
DA:315,0
DA:316,0
DA:317,0
DA:318,0
DA:320,0
DA:321,0
DA:322,0
DA:323,0
DA:324,0
DA:325,0
DA:327,0
DA:330,0
DA:331,0
DA:332,0
DA:333,0
DA:335,0
DA:336,0
DA:337,0
DA:338,0
DA:339,0
DA:340,0
DA:341,0
DA:343,0
DA:344,0
DA:345,0
DA:346,0
DA:347,0
DA:348,0
DA:349,0
DA:350,0
DA:351,0
DA:353,0
DA:354,0
DA:355,0
DA:357,0
DA:358,0
DA:359,0
DA:360,0
DA:362,0
DA:363,0
DA:364,0
DA:366,0
DA:367,0
DA:368,0
DA:369,0
DA:370,0
DA:371,0
DA:372,0
DA:373,0
DA:374,0
DA:375,0
DA:376,0
DA:377,0
DA:378,0
DA:379,0
DA:380,0
DA:382,0
DA:383,0
DA:384,0
DA:385,0
DA:386,0
DA:387,0
DA:388,0
DA:389,0
DA:390,0
DA:391,0
DA:392,0
DA:393,0
DA:396,0
DA:397,0
DA:398,0
DA:400,0
DA:401,0
DA:402,0
DA:404,0
DA:405,0
DA:406,0
DA:410,0
DA:411,0
DA:412,0
DA:413,0
DA:414,0
DA:415,0
DA:416,0
DA:417,0
BRF:0
BRH:0
LF:291
LH:41
end_of_record
SF:/Volumes/Macintosh_HD/Users/user298993/Documents/GitHub/bank-statement-fidelity-editor/src/ai/openai_client.rs
FN:175,_RNCNCNvMNtNtCshN9TtrzEz6i_22dual_core_pdf_pipeline2ai13openai_clientNtB6_12OpenAiClient28verify_statement_mathematics00Cs9eug7EGnCUa_16ai_backend_tests
FN:118,_RNCNCNvMNtNtCshN9TtrzEz6i_22dual_core_pdf_pipeline2ai13openai_clientNtB6_12OpenAiClient9post_json00Cs9eug7EGnCUa_16ai_backend_tests
FN:121,_RNCNCNvMNtNtCshN9TtrzEz6i_22dual_core_pdf_pipeline2ai13openai_clientNtB6_12OpenAiClient9post_json0s_0Cs9eug7EGnCUa_16ai_backend_tests
FN:170,_RNCNvMNtNtCshN9TtrzEz6i_22dual_core_pdf_pipeline2ai13openai_clientNtB4_12OpenAiClient28verify_statement_mathematics0Cs9eug7EGnCUa_16ai_backend_tests
FN:91,_RNCNvMNtNtCshN9TtrzEz6i_22dual_core_pdf_pipeline2ai13openai_clientNtB4_12OpenAiClient9post_json0Cs9eug7EGnCUa_16ai_backend_tests
FN:175,_RNCNCNvMNtNtCshN9TtrzEz6i_22dual_core_pdf_pipeline2ai13openai_clientNtB6_12OpenAiClient28verify_statement_mathematics00Ba_
FN:211,_RNCNCNvMNtNtCshN9TtrzEz6i_22dual_core_pdf_pipeline2ai13openai_clientNtB6_12OpenAiClient29repair_extracted_transactions00Ba_
FN:118,_RNCNCNvMNtNtCshN9TtrzEz6i_22dual_core_pdf_pipeline2ai13openai_clientNtB6_12OpenAiClient9post_json00Ba_
FN:121,_RNCNCNvMNtNtCshN9TtrzEz6i_22dual_core_pdf_pipeline2ai13openai_clientNtB6_12OpenAiClient9post_json0s_0Ba_
FN:69,_RNCNvMNtNtCshN9TtrzEz6i_22dual_core_pdf_pipeline2ai13openai_clientNtB4_12OpenAiClient21from_app_config_async0B8_
FN:170,_RNCNvMNtNtCshN9TtrzEz6i_22dual_core_pdf_pipeline2ai13openai_clientNtB4_12OpenAiClient28verify_statement_mathematics0B8_
FN:203,_RNCNvMNtNtCshN9TtrzEz6i_22dual_core_pdf_pipeline2ai13openai_clientNtB4_12OpenAiClient29repair_extracted_transactions0B8_
FN:91,_RNCNvMNtNtCshN9TtrzEz6i_22dual_core_pdf_pipeline2ai13openai_clientNtB4_12OpenAiClient9post_json0B8_
FN:60,_RNvMNtNtCshN9TtrzEz6i_22dual_core_pdf_pipeline2ai13openai_clientNtB2_12OpenAiClient13with_base_url
FN:29,_RNvMNtNtCshN9TtrzEz6i_22dual_core_pdf_pipeline2ai13openai_clientNtB2_12OpenAiClient15from_app_config
FN:179,_RNvMNtNtCshN9TtrzEz6i_22dual_core_pdf_pipeline2ai13openai_clientNtB2_12OpenAiClient20verify_transfer_math
FN:69,_RNvMNtNtCshN9TtrzEz6i_22dual_core_pdf_pipeline2ai13openai_clientNtB2_12OpenAiClient21from_app_config_async
FN:127,_RNvMNtNtCshN9TtrzEz6i_22dual_core_pdf_pipeline2ai13openai_clientNtB2_12OpenAiClient27propose_balance_adjustments
FN:145,_RNvMNtNtCshN9TtrzEz6i_22dual_core_pdf_pipeline2ai13openai_clientNtB2_12OpenAiClient27validate_parse_completeness
FN:166,_RNvMNtNtCshN9TtrzEz6i_22dual_core_pdf_pipeline2ai13openai_clientNtB2_12OpenAiClient28verify_statement_mathematics
FN:196,_RNvMNtNtCshN9TtrzEz6i_22dual_core_pdf_pipeline2ai13openai_clientNtB2_12OpenAiClient29repair_extracted_transactions
FN:73,_RNvMNtNtCshN9TtrzEz6i_22dual_core_pdf_pipeline2ai13openai_clientNtB2_12OpenAiClient4ping
FN:91,_RNvMNtNtCshN9TtrzEz6i_22dual_core_pdf_pipeline2ai13openai_clientNtB2_12OpenAiClient9post_json
FN:73,_RNCNvMNtNtCshN9TtrzEz6i_22dual_core_pdf_pipeline2ai13openai_clientNtB4_12OpenAiClient4ping0B8_
FN:192,_RNCNCNvMNtNtCshN9TtrzEz6i_22dual_core_pdf_pipeline2ai13openai_clientNtB6_12OpenAiClient20verify_transfer_math00Ba_
FN:136,_RNCNCNvMNtNtCshN9TtrzEz6i_22dual_core_pdf_pipeline2ai13openai_clientNtB6_12OpenAiClient27propose_balance_adjustments00Ba_
FN:141,_RNCNCNvMNtNtCshN9TtrzEz6i_22dual_core_pdf_pipeline2ai13openai_clientNtB6_12OpenAiClient27propose_balance_adjustments0s_0Ba_
FN:183,_RNCNvMNtNtCshN9TtrzEz6i_22dual_core_pdf_pipeline2ai13openai_clientNtB4_12OpenAiClient20verify_transfer_math0B8_
FN:132,_RNCNvMNtNtCshN9TtrzEz6i_22dual_core_pdf_pipeline2ai13openai_clientNtB4_12OpenAiClient27propose_balance_adjustments0B8_
FN:162,_RNCNCNvMNtNtCshN9TtrzEz6i_22dual_core_pdf_pipeline2ai13openai_clientNtB6_12OpenAiClient27validate_parse_completeness00Ba_
FN:158,_RNCNCNvMNtNtCshN9TtrzEz6i_22dual_core_pdf_pipeline2ai13openai_clientNtB6_12OpenAiClient27validate_parse_completeness0s_0Ba_
FN:151,_RNCNvMNtNtCshN9TtrzEz6i_22dual_core_pdf_pipeline2ai13openai_clientNtB4_12OpenAiClient27validate_parse_completeness0B8_
FN:211,_RNCNCNvMNtNtCshN9TtrzEz6i_22dual_core_pdf_pipeline2ai13openai_clientNtB6_12OpenAiClient29repair_extracted_transactions00Csf6zF57cabuO_20ai_document_ai_tests
FN:118,_RNCNCNvMNtNtCshN9TtrzEz6i_22dual_core_pdf_pipeline2ai13openai_clientNtB6_12OpenAiClient9post_json00Csf6zF57cabuO_20ai_document_ai_tests
FN:121,_RNCNCNvMNtNtCshN9TtrzEz6i_22dual_core_pdf_pipeline2ai13openai_clientNtB6_12OpenAiClient9post_json0s_0Csf6zF57cabuO_20ai_document_ai_tests
FN:69,_RNCNvMNtNtCshN9TtrzEz6i_22dual_core_pdf_pipeline2ai13openai_clientNtB4_12OpenAiClient21from_app_config_async0Csf6zF57cabuO_20ai_document_ai_tests
FN:203,_RNCNvMNtNtCshN9TtrzEz6i_22dual_core_pdf_pipeline2ai13openai_clientNtB4_12OpenAiClient29repair_extracted_transactions0Csf6zF57cabuO_20ai_document_ai_tests
FN:91,_RNCNvMNtNtCshN9TtrzEz6i_22dual_core_pdf_pipeline2ai13openai_clientNtB4_12OpenAiClient9post_json0Csf6zF57cabuO_20ai_document_ai_tests
FN:211,_RNCNCNvMNtNtCshN9TtrzEz6i_22dual_core_pdf_pipeline2ai13openai_clientNtB6_12OpenAiClient29repair_extracted_transactions00CshaMNJSpjAve_7ai_live
FN:118,_RNCNCNvMNtNtCshN9TtrzEz6i_22dual_core_pdf_pipeline2ai13openai_clientNtB6_12OpenAiClient9post_json00CshaMNJSpjAve_7ai_live
FN:121,_RNCNCNvMNtNtCshN9TtrzEz6i_22dual_core_pdf_pipeline2ai13openai_clientNtB6_12OpenAiClient9post_json0s_0CshaMNJSpjAve_7ai_live
FN:69,_RNCNvMNtNtCshN9TtrzEz6i_22dual_core_pdf_pipeline2ai13openai_clientNtB4_12OpenAiClient21from_app_config_async0CshaMNJSpjAve_7ai_live
FN:203,_RNCNvMNtNtCshN9TtrzEz6i_22dual_core_pdf_pipeline2ai13openai_clientNtB4_12OpenAiClient29repair_extracted_transactions0CshaMNJSpjAve_7ai_live
FN:91,_RNCNvMNtNtCshN9TtrzEz6i_22dual_core_pdf_pipeline2ai13openai_clientNtB4_12OpenAiClient9post_json0CshaMNJSpjAve_7ai_live
FN:211,_RNCNCNvMNtNtCshN9TtrzEz6i_22dual_core_pdf_pipeline2ai13openai_clientNtB6_12OpenAiClient29repair_extracted_transactions00Cs1dXm4FxIgQC_13ai_loop_tests
FN:118,_RNCNCNvMNtNtCshN9TtrzEz6i_22dual_core_pdf_pipeline2ai13openai_clientNtB6_12OpenAiClient9post_json00Cs1dXm4FxIgQC_13ai_loop_tests
FN:121,_RNCNCNvMNtNtCshN9TtrzEz6i_22dual_core_pdf_pipeline2ai13openai_clientNtB6_12OpenAiClient9post_json0s_0Cs1dXm4FxIgQC_13ai_loop_tests
FN:203,_RNCNvMNtNtCshN9TtrzEz6i_22dual_core_pdf_pipeline2ai13openai_clientNtB4_12OpenAiClient29repair_extracted_transactions0Cs1dXm4FxIgQC_13ai_loop_tests
FN:91,_RNCNvMNtNtCshN9TtrzEz6i_22dual_core_pdf_pipeline2ai13openai_clientNtB4_12OpenAiClient9post_json0Cs1dXm4FxIgQC_13ai_loop_tests
FN:211,_RNCNCNvMNtNtCshN9TtrzEz6i_22dual_core_pdf_pipeline2ai13openai_clientNtB6_12OpenAiClient29repair_extracted_transactions00Cs8rgthVp5iEY_11chaos_tests
FN:118,_RNCNCNvMNtNtCshN9TtrzEz6i_22dual_core_pdf_pipeline2ai13openai_clientNtB6_12OpenAiClient9post_json00Cs8rgthVp5iEY_11chaos_tests
FN:121,_RNCNCNvMNtNtCshN9TtrzEz6i_22dual_core_pdf_pipeline2ai13openai_clientNtB6_12OpenAiClient9post_json0s_0Cs8rgthVp5iEY_11chaos_tests
FN:203,_RNCNvMNtNtCshN9TtrzEz6i_22dual_core_pdf_pipeline2ai13openai_clientNtB4_12OpenAiClient29repair_extracted_transactions0Cs8rgthVp5iEY_11chaos_tests
FN:91,_RNCNvMNtNtCshN9TtrzEz6i_22dual_core_pdf_pipeline2ai13openai_clientNtB4_12OpenAiClient9post_json0Cs8rgthVp5iEY_11chaos_tests
FN:192,_RNCNCNvMNtNtCsdGsEM3RpwG4_22dual_core_pdf_pipeline2ai13openai_clientNtB6_12OpenAiClient20verify_transfer_math00Ba_
FN:136,_RNCNCNvMNtNtCsdGsEM3RpwG4_22dual_core_pdf_pipeline2ai13openai_clientNtB6_12OpenAiClient27propose_balance_adjustments00Ba_
FN:141,_RNCNCNvMNtNtCsdGsEM3RpwG4_22dual_core_pdf_pipeline2ai13openai_clientNtB6_12OpenAiClient27propose_balance_adjustments0s_0Ba_
FN:162,_RNCNCNvMNtNtCsdGsEM3RpwG4_22dual_core_pdf_pipeline2ai13openai_clientNtB6_12OpenAiClient27validate_parse_completeness00Ba_
FN:158,_RNCNCNvMNtNtCsdGsEM3RpwG4_22dual_core_pdf_pipeline2ai13openai_clientNtB6_12OpenAiClient27validate_parse_completeness0s_0Ba_
FN:175,_RNCNCNvMNtNtCsdGsEM3RpwG4_22dual_core_pdf_pipeline2ai13openai_clientNtB6_12OpenAiClient28verify_statement_mathematics00Ba_
FN:211,_RNCNCNvMNtNtCsdGsEM3RpwG4_22dual_core_pdf_pipeline2ai13openai_clientNtB6_12OpenAiClient29repair_extracted_transactions00Ba_
FN:118,_RNCNCNvMNtNtCsdGsEM3RpwG4_22dual_core_pdf_pipeline2ai13openai_clientNtB6_12OpenAiClient9post_json00Ba_
FN:121,_RNCNCNvMNtNtCsdGsEM3RpwG4_22dual_core_pdf_pipeline2ai13openai_clientNtB6_12OpenAiClient9post_json0s_0Ba_
FN:183,_RNCNvMNtNtCsdGsEM3RpwG4_22dual_core_pdf_pipeline2ai13openai_clientNtB4_12OpenAiClient20verify_transfer_math0B8_
FN:69,_RNCNvMNtNtCsdGsEM3RpwG4_22dual_core_pdf_pipeline2ai13openai_clientNtB4_12OpenAiClient21from_app_config_async0B8_
FN:132,_RNCNvMNtNtCsdGsEM3RpwG4_22dual_core_pdf_pipeline2ai13openai_clientNtB4_12OpenAiClient27propose_balance_adjustments0B8_
FN:151,_RNCNvMNtNtCsdGsEM3RpwG4_22dual_core_pdf_pipeline2ai13openai_clientNtB4_12OpenAiClient27validate_parse_completeness0B8_
FN:170,_RNCNvMNtNtCsdGsEM3RpwG4_22dual_core_pdf_pipeline2ai13openai_clientNtB4_12OpenAiClient28verify_statement_mathematics0B8_
FN:203,_RNCNvMNtNtCsdGsEM3RpwG4_22dual_core_pdf_pipeline2ai13openai_clientNtB4_12OpenAiClient29repair_extracted_transactions0B8_
FN:73,_RNCNvMNtNtCsdGsEM3RpwG4_22dual_core_pdf_pipeline2ai13openai_clientNtB4_12OpenAiClient4ping0B8_
FN:91,_RNCNvMNtNtCsdGsEM3RpwG4_22dual_core_pdf_pipeline2ai13openai_clientNtB4_12OpenAiClient9post_json0B8_
FN:60,_RNvMNtNtCsdGsEM3RpwG4_22dual_core_pdf_pipeline2ai13openai_clientNtB2_12OpenAiClient13with_base_url
FN:29,_RNvMNtNtCsdGsEM3RpwG4_22dual_core_pdf_pipeline2ai13openai_clientNtB2_12OpenAiClient15from_app_config
FN:179,_RNvMNtNtCsdGsEM3RpwG4_22dual_core_pdf_pipeline2ai13openai_clientNtB2_12OpenAiClient20verify_transfer_math
FN:69,_RNvMNtNtCsdGsEM3RpwG4_22dual_core_pdf_pipeline2ai13openai_clientNtB2_12OpenAiClient21from_app_config_async
FN:127,_RNvMNtNtCsdGsEM3RpwG4_22dual_core_pdf_pipeline2ai13openai_clientNtB2_12OpenAiClient27propose_balance_adjustments
FN:145,_RNvMNtNtCsdGsEM3RpwG4_22dual_core_pdf_pipeline2ai13openai_clientNtB2_12OpenAiClient27validate_parse_completeness
FN:166,_RNvMNtNtCsdGsEM3RpwG4_22dual_core_pdf_pipeline2ai13openai_clientNtB2_12OpenAiClient28verify_statement_mathematics
FN:196,_RNvMNtNtCsdGsEM3RpwG4_22dual_core_pdf_pipeline2ai13openai_clientNtB2_12OpenAiClient29repair_extracted_transactions
FN:73,_RNvMNtNtCsdGsEM3RpwG4_22dual_core_pdf_pipeline2ai13openai_clientNtB2_12OpenAiClient4ping
FN:91,_RNvMNtNtCsdGsEM3RpwG4_22dual_core_pdf_pipeline2ai13openai_clientNtB2_12OpenAiClient9post_json
FN:136,_RNCNCNvMNtNtCshN9TtrzEz6i_22dual_core_pdf_pipeline2ai13openai_clientNtB6_12OpenAiClient27propose_balance_adjustments00CseEmI1GKjWjI_22engine_statement_tests
FN:141,_RNCNCNvMNtNtCshN9TtrzEz6i_22dual_core_pdf_pipeline2ai13openai_clientNtB6_12OpenAiClient27propose_balance_adjustments0s_0CseEmI1GKjWjI_22engine_statement_tests
FN:211,_RNCNCNvMNtNtCshN9TtrzEz6i_22dual_core_pdf_pipeline2ai13openai_clientNtB6_12OpenAiClient29repair_extracted_transactions00CseEmI1GKjWjI_22engine_statement_tests
FN:118,_RNCNCNvMNtNtCshN9TtrzEz6i_22dual_core_pdf_pipeline2ai13openai_clientNtB6_12OpenAiClient9post_json00CseEmI1GKjWjI_22engine_statement_tests
FN:121,_RNCNCNvMNtNtCshN9TtrzEz6i_22dual_core_pdf_pipeline2ai13openai_clientNtB6_12OpenAiClient9post_json0s_0CseEmI1GKjWjI_22engine_statement_tests
FN:69,_RNCNvMNtNtCshN9TtrzEz6i_22dual_core_pdf_pipeline2ai13openai_clientNtB4_12OpenAiClient21from_app_config_async0CseEmI1GKjWjI_22engine_statement_tests
FN:132,_RNCNvMNtNtCshN9TtrzEz6i_22dual_core_pdf_pipeline2ai13openai_clientNtB4_12OpenAiClient27propose_balance_adjustments0CseEmI1GKjWjI_22engine_statement_tests
FN:203,_RNCNvMNtNtCshN9TtrzEz6i_22dual_core_pdf_pipeline2ai13openai_clientNtB4_12OpenAiClient29repair_extracted_transactions0CseEmI1GKjWjI_22engine_statement_tests
FN:91,_RNCNvMNtNtCshN9TtrzEz6i_22dual_core_pdf_pipeline2ai13openai_clientNtB4_12OpenAiClient9post_json0CseEmI1GKjWjI_22engine_statement_tests
FN:211,_RNCNCNvMNtNtCshN9TtrzEz6i_22dual_core_pdf_pipeline2ai13openai_clientNtB6_12OpenAiClient29repair_extracted_transactions00Csi3ESQQ38hK3_12ranking_test
FN:118,_RNCNCNvMNtNtCshN9TtrzEz6i_22dual_core_pdf_pipeline2ai13openai_clientNtB6_12OpenAiClient9post_json00Csi3ESQQ38hK3_12ranking_test
FN:121,_RNCNCNvMNtNtCshN9TtrzEz6i_22dual_core_pdf_pipeline2ai13openai_clientNtB6_12OpenAiClient9post_json0s_0Csi3ESQQ38hK3_12ranking_test
FN:69,_RNCNvMNtNtCshN9TtrzEz6i_22dual_core_pdf_pipeline2ai13openai_clientNtB4_12OpenAiClient21from_app_config_async0Csi3ESQQ38hK3_12ranking_test
FN:203,_RNCNvMNtNtCshN9TtrzEz6i_22dual_core_pdf_pipeline2ai13openai_clientNtB4_12OpenAiClient29repair_extracted_transactions0Csi3ESQQ38hK3_12ranking_test
FN:91,_RNCNvMNtNtCshN9TtrzEz6i_22dual_core_pdf_pipeline2ai13openai_clientNtB4_12OpenAiClient9post_json0Csi3ESQQ38hK3_12ranking_test
FNDA:0,_RNCNCNvMNtNtCshN9TtrzEz6i_22dual_core_pdf_pipeline2ai13openai_clientNtB6_12OpenAiClient28verify_statement_mathematics00Cs9eug7EGnCUa_16ai_backend_tests
FNDA:0,_RNCNCNvMNtNtCshN9TtrzEz6i_22dual_core_pdf_pipeline2ai13openai_clientNtB6_12OpenAiClient9post_json00Cs9eug7EGnCUa_16ai_backend_tests
FNDA:0,_RNCNCNvMNtNtCshN9TtrzEz6i_22dual_core_pdf_pipeline2ai13openai_clientNtB6_12OpenAiClient9post_json0s_0Cs9eug7EGnCUa_16ai_backend_tests
FNDA:4,_RNCNvMNtNtCshN9TtrzEz6i_22dual_core_pdf_pipeline2ai13openai_clientNtB4_12OpenAiClient28verify_statement_mathematics0Cs9eug7EGnCUa_16ai_backend_tests
FNDA:4,_RNCNvMNtNtCshN9TtrzEz6i_22dual_core_pdf_pipeline2ai13openai_clientNtB4_12OpenAiClient9post_json0Cs9eug7EGnCUa_16ai_backend_tests
FNDA:0,_RNCNCNvMNtNtCshN9TtrzEz6i_22dual_core_pdf_pipeline2ai13openai_clientNtB6_12OpenAiClient28verify_statement_mathematics00Ba_
FNDA:0,_RNCNCNvMNtNtCshN9TtrzEz6i_22dual_core_pdf_pipeline2ai13openai_clientNtB6_12OpenAiClient29repair_extracted_transactions00Ba_
FNDA:0,_RNCNCNvMNtNtCshN9TtrzEz6i_22dual_core_pdf_pipeline2ai13openai_clientNtB6_12OpenAiClient9post_json00Ba_
FNDA:0,_RNCNCNvMNtNtCshN9TtrzEz6i_22dual_core_pdf_pipeline2ai13openai_clientNtB6_12OpenAiClient9post_json0s_0Ba_
FNDA:2,_RNCNvMNtNtCshN9TtrzEz6i_22dual_core_pdf_pipeline2ai13openai_clientNtB4_12OpenAiClient21from_app_config_async0B8_
FNDA:0,_RNCNvMNtNtCshN9TtrzEz6i_22dual_core_pdf_pipeline2ai13openai_clientNtB4_12OpenAiClient28verify_statement_mathematics0B8_
FNDA:0,_RNCNvMNtNtCshN9TtrzEz6i_22dual_core_pdf_pipeline2ai13openai_clientNtB4_12OpenAiClient29repair_extracted_transactions0B8_
FNDA:0,_RNCNvMNtNtCshN9TtrzEz6i_22dual_core_pdf_pipeline2ai13openai_clientNtB4_12OpenAiClient9post_json0B8_
FNDA:6,_RNvMNtNtCshN9TtrzEz6i_22dual_core_pdf_pipeline2ai13openai_clientNtB2_12OpenAiClient13with_base_url
FNDA:8,_RNvMNtNtCshN9TtrzEz6i_22dual_core_pdf_pipeline2ai13openai_clientNtB2_12OpenAiClient15from_app_config
FNDA:0,_RNvMNtNtCshN9TtrzEz6i_22dual_core_pdf_pipeline2ai13openai_clientNtB2_12OpenAiClient20verify_transfer_math
FNDA:2,_RNvMNtNtCshN9TtrzEz6i_22dual_core_pdf_pipeline2ai13openai_clientNtB2_12OpenAiClient21from_app_config_async
FNDA:0,_RNvMNtNtCshN9TtrzEz6i_22dual_core_pdf_pipeline2ai13openai_clientNtB2_12OpenAiClient27propose_balance_adjustments
FNDA:0,_RNvMNtNtCshN9TtrzEz6i_22dual_core_pdf_pipeline2ai13openai_clientNtB2_12OpenAiClient27validate_parse_completeness
FNDA:4,_RNvMNtNtCshN9TtrzEz6i_22dual_core_pdf_pipeline2ai13openai_clientNtB2_12OpenAiClient28verify_statement_mathematics
FNDA:0,_RNvMNtNtCshN9TtrzEz6i_22dual_core_pdf_pipeline2ai13openai_clientNtB2_12OpenAiClient29repair_extracted_transactions
FNDA:0,_RNvMNtNtCshN9TtrzEz6i_22dual_core_pdf_pipeline2ai13openai_clientNtB2_12OpenAiClient4ping
FNDA:4,_RNvMNtNtCshN9TtrzEz6i_22dual_core_pdf_pipeline2ai13openai_clientNtB2_12OpenAiClient9post_json
FNDA:0,_RNCNvMNtNtCshN9TtrzEz6i_22dual_core_pdf_pipeline2ai13openai_clientNtB4_12OpenAiClient4ping0B8_
FNDA:0,_RNCNCNvMNtNtCshN9TtrzEz6i_22dual_core_pdf_pipeline2ai13openai_clientNtB6_12OpenAiClient20verify_transfer_math00Ba_
FNDA:0,_RNCNCNvMNtNtCshN9TtrzEz6i_22dual_core_pdf_pipeline2ai13openai_clientNtB6_12OpenAiClient27propose_balance_adjustments00Ba_
FNDA:0,_RNCNCNvMNtNtCshN9TtrzEz6i_22dual_core_pdf_pipeline2ai13openai_clientNtB6_12OpenAiClient27propose_balance_adjustments0s_0Ba_
FNDA:0,_RNCNvMNtNtCshN9TtrzEz6i_22dual_core_pdf_pipeline2ai13openai_clientNtB4_12OpenAiClient20verify_transfer_math0B8_
FNDA:0,_RNCNvMNtNtCshN9TtrzEz6i_22dual_core_pdf_pipeline2ai13openai_clientNtB4_12OpenAiClient27propose_balance_adjustments0B8_
FNDA:0,_RNCNCNvMNtNtCshN9TtrzEz6i_22dual_core_pdf_pipeline2ai13openai_clientNtB6_12OpenAiClient27validate_parse_completeness00Ba_
FNDA:0,_RNCNCNvMNtNtCshN9TtrzEz6i_22dual_core_pdf_pipeline2ai13openai_clientNtB6_12OpenAiClient27validate_parse_completeness0s_0Ba_
FNDA:0,_RNCNvMNtNtCshN9TtrzEz6i_22dual_core_pdf_pipeline2ai13openai_clientNtB4_12OpenAiClient27validate_parse_completeness0B8_
FNDA:0,_RNCNCNvMNtNtCshN9TtrzEz6i_22dual_core_pdf_pipeline2ai13openai_clientNtB6_12OpenAiClient29repair_extracted_transactions00Csf6zF57cabuO_20ai_document_ai_tests
FNDA:0,_RNCNCNvMNtNtCshN9TtrzEz6i_22dual_core_pdf_pipeline2ai13openai_clientNtB6_12OpenAiClient9post_json00Csf6zF57cabuO_20ai_document_ai_tests
FNDA:0,_RNCNCNvMNtNtCshN9TtrzEz6i_22dual_core_pdf_pipeline2ai13openai_clientNtB6_12OpenAiClient9post_json0s_0Csf6zF57cabuO_20ai_document_ai_tests
FNDA:0,_RNCNvMNtNtCshN9TtrzEz6i_22dual_core_pdf_pipeline2ai13openai_clientNtB4_12OpenAiClient21from_app_config_async0Csf6zF57cabuO_20ai_document_ai_tests
FNDA:0,_RNCNvMNtNtCshN9TtrzEz6i_22dual_core_pdf_pipeline2ai13openai_clientNtB4_12OpenAiClient29repair_extracted_transactions0Csf6zF57cabuO_20ai_document_ai_tests
FNDA:0,_RNCNvMNtNtCshN9TtrzEz6i_22dual_core_pdf_pipeline2ai13openai_clientNtB4_12OpenAiClient9post_json0Csf6zF57cabuO_20ai_document_ai_tests
FNDA:0,_RNCNCNvMNtNtCshN9TtrzEz6i_22dual_core_pdf_pipeline2ai13openai_clientNtB6_12OpenAiClient29repair_extracted_transactions00CshaMNJSpjAve_7ai_live
FNDA:0,_RNCNCNvMNtNtCshN9TtrzEz6i_22dual_core_pdf_pipeline2ai13openai_clientNtB6_12OpenAiClient9post_json00CshaMNJSpjAve_7ai_live
FNDA:0,_RNCNCNvMNtNtCshN9TtrzEz6i_22dual_core_pdf_pipeline2ai13openai_clientNtB6_12OpenAiClient9post_json0s_0CshaMNJSpjAve_7ai_live
FNDA:0,_RNCNvMNtNtCshN9TtrzEz6i_22dual_core_pdf_pipeline2ai13openai_clientNtB4_12OpenAiClient21from_app_config_async0CshaMNJSpjAve_7ai_live
FNDA:0,_RNCNvMNtNtCshN9TtrzEz6i_22dual_core_pdf_pipeline2ai13openai_clientNtB4_12OpenAiClient29repair_extracted_transactions0CshaMNJSpjAve_7ai_live
FNDA:0,_RNCNvMNtNtCshN9TtrzEz6i_22dual_core_pdf_pipeline2ai13openai_clientNtB4_12OpenAiClient9post_json0CshaMNJSpjAve_7ai_live
FNDA:0,_RNCNCNvMNtNtCshN9TtrzEz6i_22dual_core_pdf_pipeline2ai13openai_clientNtB6_12OpenAiClient29repair_extracted_transactions00Cs1dXm4FxIgQC_13ai_loop_tests
FNDA:0,_RNCNCNvMNtNtCshN9TtrzEz6i_22dual_core_pdf_pipeline2ai13openai_clientNtB6_12OpenAiClient9post_json00Cs1dXm4FxIgQC_13ai_loop_tests
FNDA:0,_RNCNCNvMNtNtCshN9TtrzEz6i_22dual_core_pdf_pipeline2ai13openai_clientNtB6_12OpenAiClient9post_json0s_0Cs1dXm4FxIgQC_13ai_loop_tests
FNDA:0,_RNCNvMNtNtCshN9TtrzEz6i_22dual_core_pdf_pipeline2ai13openai_clientNtB4_12OpenAiClient29repair_extracted_transactions0Cs1dXm4FxIgQC_13ai_loop_tests
FNDA:0,_RNCNvMNtNtCshN9TtrzEz6i_22dual_core_pdf_pipeline2ai13openai_clientNtB4_12OpenAiClient9post_json0Cs1dXm4FxIgQC_13ai_loop_tests
FNDA:0,_RNCNCNvMNtNtCshN9TtrzEz6i_22dual_core_pdf_pipeline2ai13openai_clientNtB6_12OpenAiClient29repair_extracted_transactions00Cs8rgthVp5iEY_11chaos_tests
FNDA:0,_RNCNCNvMNtNtCshN9TtrzEz6i_22dual_core_pdf_pipeline2ai13openai_clientNtB6_12OpenAiClient9post_json00Cs8rgthVp5iEY_11chaos_tests
FNDA:0,_RNCNCNvMNtNtCshN9TtrzEz6i_22dual_core_pdf_pipeline2ai13openai_clientNtB6_12OpenAiClient9post_json0s_0Cs8rgthVp5iEY_11chaos_tests
FNDA:0,_RNCNvMNtNtCshN9TtrzEz6i_22dual_core_pdf_pipeline2ai13openai_clientNtB4_12OpenAiClient29repair_extracted_transactions0Cs8rgthVp5iEY_11chaos_tests
FNDA:0,_RNCNvMNtNtCshN9TtrzEz6i_22dual_core_pdf_pipeline2ai13openai_clientNtB4_12OpenAiClient9post_json0Cs8rgthVp5iEY_11chaos_tests
FNDA:0,_RNCNCNvMNtNtCsdGsEM3RpwG4_22dual_core_pdf_pipeline2ai13openai_clientNtB6_12OpenAiClient20verify_transfer_math00Ba_
FNDA:0,_RNCNCNvMNtNtCsdGsEM3RpwG4_22dual_core_pdf_pipeline2ai13openai_clientNtB6_12OpenAiClient27propose_balance_adjustments00Ba_
FNDA:0,_RNCNCNvMNtNtCsdGsEM3RpwG4_22dual_core_pdf_pipeline2ai13openai_clientNtB6_12OpenAiClient27propose_balance_adjustments0s_0Ba_
FNDA:0,_RNCNCNvMNtNtCsdGsEM3RpwG4_22dual_core_pdf_pipeline2ai13openai_clientNtB6_12OpenAiClient27validate_parse_completeness00Ba_
FNDA:0,_RNCNCNvMNtNtCsdGsEM3RpwG4_22dual_core_pdf_pipeline2ai13openai_clientNtB6_12OpenAiClient27validate_parse_completeness0s_0Ba_
FNDA:0,_RNCNCNvMNtNtCsdGsEM3RpwG4_22dual_core_pdf_pipeline2ai13openai_clientNtB6_12OpenAiClient28verify_statement_mathematics00Ba_
FNDA:0,_RNCNCNvMNtNtCsdGsEM3RpwG4_22dual_core_pdf_pipeline2ai13openai_clientNtB6_12OpenAiClient29repair_extracted_transactions00Ba_
FNDA:0,_RNCNCNvMNtNtCsdGsEM3RpwG4_22dual_core_pdf_pipeline2ai13openai_clientNtB6_12OpenAiClient9post_json00Ba_
FNDA:0,_RNCNCNvMNtNtCsdGsEM3RpwG4_22dual_core_pdf_pipeline2ai13openai_clientNtB6_12OpenAiClient9post_json0s_0Ba_
FNDA:0,_RNCNvMNtNtCsdGsEM3RpwG4_22dual_core_pdf_pipeline2ai13openai_clientNtB4_12OpenAiClient20verify_transfer_math0B8_
FNDA:0,_RNCNvMNtNtCsdGsEM3RpwG4_22dual_core_pdf_pipeline2ai13openai_clientNtB4_12OpenAiClient21from_app_config_async0B8_
FNDA:0,_RNCNvMNtNtCsdGsEM3RpwG4_22dual_core_pdf_pipeline2ai13openai_clientNtB4_12OpenAiClient27propose_balance_adjustments0B8_
FNDA:0,_RNCNvMNtNtCsdGsEM3RpwG4_22dual_core_pdf_pipeline2ai13openai_clientNtB4_12OpenAiClient27validate_parse_completeness0B8_
FNDA:0,_RNCNvMNtNtCsdGsEM3RpwG4_22dual_core_pdf_pipeline2ai13openai_clientNtB4_12OpenAiClient28verify_statement_mathematics0B8_
FNDA:0,_RNCNvMNtNtCsdGsEM3RpwG4_22dual_core_pdf_pipeline2ai13openai_clientNtB4_12OpenAiClient29repair_extracted_transactions0B8_
FNDA:0,_RNCNvMNtNtCsdGsEM3RpwG4_22dual_core_pdf_pipeline2ai13openai_clientNtB4_12OpenAiClient4ping0B8_
FNDA:0,_RNCNvMNtNtCsdGsEM3RpwG4_22dual_core_pdf_pipeline2ai13openai_clientNtB4_12OpenAiClient9post_json0B8_
FNDA:0,_RNvMNtNtCsdGsEM3RpwG4_22dual_core_pdf_pipeline2ai13openai_clientNtB2_12OpenAiClient13with_base_url
FNDA:0,_RNvMNtNtCsdGsEM3RpwG4_22dual_core_pdf_pipeline2ai13openai_clientNtB2_12OpenAiClient15from_app_config
FNDA:0,_RNvMNtNtCsdGsEM3RpwG4_22dual_core_pdf_pipeline2ai13openai_clientNtB2_12OpenAiClient20verify_transfer_math
FNDA:0,_RNvMNtNtCsdGsEM3RpwG4_22dual_core_pdf_pipeline2ai13openai_clientNtB2_12OpenAiClient21from_app_config_async
FNDA:0,_RNvMNtNtCsdGsEM3RpwG4_22dual_core_pdf_pipeline2ai13openai_clientNtB2_12OpenAiClient27propose_balance_adjustments
FNDA:0,_RNvMNtNtCsdGsEM3RpwG4_22dual_core_pdf_pipeline2ai13openai_clientNtB2_12OpenAiClient27validate_parse_completeness
FNDA:0,_RNvMNtNtCsdGsEM3RpwG4_22dual_core_pdf_pipeline2ai13openai_clientNtB2_12OpenAiClient28verify_statement_mathematics
FNDA:0,_RNvMNtNtCsdGsEM3RpwG4_22dual_core_pdf_pipeline2ai13openai_clientNtB2_12OpenAiClient29repair_extracted_transactions
FNDA:0,_RNvMNtNtCsdGsEM3RpwG4_22dual_core_pdf_pipeline2ai13openai_clientNtB2_12OpenAiClient4ping
FNDA:0,_RNvMNtNtCsdGsEM3RpwG4_22dual_core_pdf_pipeline2ai13openai_clientNtB2_12OpenAiClient9post_json
FNDA:0,_RNCNCNvMNtNtCshN9TtrzEz6i_22dual_core_pdf_pipeline2ai13openai_clientNtB6_12OpenAiClient27propose_balance_adjustments00CseEmI1GKjWjI_22engine_statement_tests
FNDA:0,_RNCNCNvMNtNtCshN9TtrzEz6i_22dual_core_pdf_pipeline2ai13openai_clientNtB6_12OpenAiClient27propose_balance_adjustments0s_0CseEmI1GKjWjI_22engine_statement_tests
FNDA:0,_RNCNCNvMNtNtCshN9TtrzEz6i_22dual_core_pdf_pipeline2ai13openai_clientNtB6_12OpenAiClient29repair_extracted_transactions00CseEmI1GKjWjI_22engine_statement_tests
FNDA:0,_RNCNCNvMNtNtCshN9TtrzEz6i_22dual_core_pdf_pipeline2ai13openai_clientNtB6_12OpenAiClient9post_json00CseEmI1GKjWjI_22engine_statement_tests
FNDA:0,_RNCNCNvMNtNtCshN9TtrzEz6i_22dual_core_pdf_pipeline2ai13openai_clientNtB6_12OpenAiClient9post_json0s_0CseEmI1GKjWjI_22engine_statement_tests
FNDA:0,_RNCNvMNtNtCshN9TtrzEz6i_22dual_core_pdf_pipeline2ai13openai_clientNtB4_12OpenAiClient21from_app_config_async0CseEmI1GKjWjI_22engine_statement_tests
FNDA:0,_RNCNvMNtNtCshN9TtrzEz6i_22dual_core_pdf_pipeline2ai13openai_clientNtB4_12OpenAiClient27propose_balance_adjustments0CseEmI1GKjWjI_22engine_statement_tests
FNDA:0,_RNCNvMNtNtCshN9TtrzEz6i_22dual_core_pdf_pipeline2ai13openai_clientNtB4_12OpenAiClient29repair_extracted_transactions0CseEmI1GKjWjI_22engine_statement_tests
FNDA:0,_RNCNvMNtNtCshN9TtrzEz6i_22dual_core_pdf_pipeline2ai13openai_clientNtB4_12OpenAiClient9post_json0CseEmI1GKjWjI_22engine_statement_tests
FNDA:0,_RNCNCNvMNtNtCshN9TtrzEz6i_22dual_core_pdf_pipeline2ai13openai_clientNtB6_12OpenAiClient29repair_extracted_transactions00Csi3ESQQ38hK3_12ranking_test
FNDA:0,_RNCNCNvMNtNtCshN9TtrzEz6i_22dual_core_pdf_pipeline2ai13openai_clientNtB6_12OpenAiClient9post_json00Csi3ESQQ38hK3_12ranking_test
FNDA:0,_RNCNCNvMNtNtCshN9TtrzEz6i_22dual_core_pdf_pipeline2ai13openai_clientNtB6_12OpenAiClient9post_json0s_0Csi3ESQQ38hK3_12ranking_test
FNDA:0,_RNCNvMNtNtCshN9TtrzEz6i_22dual_core_pdf_pipeline2ai13openai_clientNtB4_12OpenAiClient21from_app_config_async0Csi3ESQQ38hK3_12ranking_test
FNDA:0,_RNCNvMNtNtCshN9TtrzEz6i_22dual_core_pdf_pipeline2ai13openai_clientNtB4_12OpenAiClient29repair_extracted_transactions0Csi3ESQQ38hK3_12ranking_test
FNDA:0,_RNCNvMNtNtCshN9TtrzEz6i_22dual_core_pdf_pipeline2ai13openai_clientNtB4_12OpenAiClient9post_json0Csi3ESQQ38hK3_12ranking_test
FNF:27
FNH:8
DA:29,8
DA:30,8
DA:32,4
DA:33,4
DA:34,4
DA:35,4
DA:36,4
DA:37,4
DA:40,4
DA:41,4
DA:42,4
DA:43,4
DA:44,4
DA:45,4
DA:46,4
DA:47,4
DA:48,4
DA:50,0
DA:52,8
DA:53,8
DA:54,8
DA:55,8
DA:56,8
DA:57,8
DA:58,8
DA:60,6
DA:61,6
DA:62,6
DA:63,6
DA:64,6
DA:65,6
DA:66,6
DA:67,6
DA:69,2
DA:70,2
DA:71,2
DA:73,0
DA:74,0
DA:75,0
DA:76,0
DA:77,0
DA:78,0
DA:79,0
DA:80,0
DA:82,0
DA:83,0
DA:85,0
DA:86,0
DA:87,0
DA:89,0
DA:91,4
DA:92,4
DA:93,4
DA:94,4
DA:95,4
DA:96,4
DA:97,4
DA:99,4
DA:100,4
DA:103,4
DA:104,4
DA:105,4
DA:106,4
DA:107,4
DA:108,4
DA:109,4
DA:111,4
DA:112,4
DA:113,4
DA:114,3
DA:115,1
DA:117,1
DA:118,1
DA:119,1
DA:120,1
DA:121,1
DA:122,1
DA:124,1
DA:125,4
DA:127,0
DA:128,0
DA:129,0
DA:130,0
DA:131,0
DA:132,0
DA:133,0
DA:135,0
DA:136,0
DA:137,0
DA:139,0
DA:140,0
DA:141,0
DA:142,0
DA:143,0
DA:145,0
DA:146,0
DA:147,0
DA:148,0
DA:149,0
DA:150,0
DA:151,0
DA:152,0
DA:153,0
DA:154,0
DA:158,0
DA:160,0
DA:161,0
DA:162,0
DA:163,0
DA:164,0
DA:166,4
DA:167,4
DA:168,4
DA:169,4
DA:170,4
DA:171,4
DA:172,4
DA:173,4
DA:174,1
DA:175,1
DA:176,1
DA:177,4
DA:179,0
DA:180,0
DA:181,0
DA:182,0
DA:183,0
DA:184,0
DA:185,0
DA:186,0
DA:188,0
DA:190,0
DA:191,0
DA:192,0
DA:193,0
DA:194,0
DA:196,0
DA:197,0
DA:198,0
DA:199,0
DA:200,0
DA:201,0
DA:202,0
DA:203,0
DA:204,0
DA:205,0
DA:206,0
DA:207,0
DA:208,0
DA:210,0
DA:211,0
DA:212,0
DA:213,0
BRF:0
BRH:0
LF:170
LH:79
end_of_record
SF:/Volumes/Macintosh_HD/Users/user298993/Documents/GitHub/bank-statement-fidelity-editor/src/ai/pdfrest.rs
FN:74,_RNvMs_NtNtCshN9TtrzEz6i_22dual_core_pdf_pipeline2ai7pdfrestNtB4_13PdfRestClient13with_base_url
FN:80,_RNvMs_NtNtCshN9TtrzEz6i_22dual_core_pdf_pipeline2ai7pdfrestNtB4_13PdfRestClient14authed_request
FN:92,_RNvMs_NtNtCshN9TtrzEz6i_22dual_core_pdf_pipeline2ai7pdfrestNtB4_13PdfRestClient20render_pdf_to_images
FN:65,_RNvMs_NtNtCshN9TtrzEz6i_22dual_core_pdf_pipeline2ai7pdfrestNtB4_13PdfRestClient3new
FN:39,_RNvXNtNtCshN9TtrzEz6i_22dual_core_pdf_pipeline2ai7pdfrestNtB2_13PdfRestClientNtNtCsaNl6UpbT7bw_4core3fmt5Debug3fmt
FN:105,_RNCNCNvMs_NtNtCshN9TtrzEz6i_22dual_core_pdf_pipeline2ai7pdfrestNtB8_13PdfRestClient20render_pdf_to_images00Bc_
FN:126,_RNCNCNvMs_NtNtCshN9TtrzEz6i_22dual_core_pdf_pipeline2ai7pdfrestNtB8_13PdfRestClient20render_pdf_to_images0s0_0Bc_
FN:142,_RNCNCNvMs_NtNtCshN9TtrzEz6i_22dual_core_pdf_pipeline2ai7pdfrestNtB8_13PdfRestClient20render_pdf_to_images0s1_0Bc_
FN:162,_RNCNCNvMs_NtNtCshN9TtrzEz6i_22dual_core_pdf_pipeline2ai7pdfrestNtB8_13PdfRestClient20render_pdf_to_images0s2_0Bc_
FN:168,_RNCNCNvMs_NtNtCshN9TtrzEz6i_22dual_core_pdf_pipeline2ai7pdfrestNtB8_13PdfRestClient20render_pdf_to_images0s3_0Bc_
FN:190,_RNCNCNvMs_NtNtCshN9TtrzEz6i_22dual_core_pdf_pipeline2ai7pdfrestNtB8_13PdfRestClient20render_pdf_to_images0s4_0Bc_
FN:202,_RNCNCNvMs_NtNtCshN9TtrzEz6i_22dual_core_pdf_pipeline2ai7pdfrestNtB8_13PdfRestClient20render_pdf_to_images0s5_0Bc_
FN:115,_RNCNCNvMs_NtNtCshN9TtrzEz6i_22dual_core_pdf_pipeline2ai7pdfrestNtB8_13PdfRestClient20render_pdf_to_images0s_0Bc_
FN:97,_RNCNvMs_NtNtCshN9TtrzEz6i_22dual_core_pdf_pipeline2ai7pdfrestNtB6_13PdfRestClient20render_pdf_to_images0Ba_
FN:105,_RNCNCNvMs_NtNtCsdGsEM3RpwG4_22dual_core_pdf_pipeline2ai7pdfrestNtB8_13PdfRestClient20render_pdf_to_images00Bc_
FN:126,_RNCNCNvMs_NtNtCsdGsEM3RpwG4_22dual_core_pdf_pipeline2ai7pdfrestNtB8_13PdfRestClient20render_pdf_to_images0s0_0Bc_
FN:142,_RNCNCNvMs_NtNtCsdGsEM3RpwG4_22dual_core_pdf_pipeline2ai7pdfrestNtB8_13PdfRestClient20render_pdf_to_images0s1_0Bc_
FN:162,_RNCNCNvMs_NtNtCsdGsEM3RpwG4_22dual_core_pdf_pipeline2ai7pdfrestNtB8_13PdfRestClient20render_pdf_to_images0s2_0Bc_
FN:168,_RNCNCNvMs_NtNtCsdGsEM3RpwG4_22dual_core_pdf_pipeline2ai7pdfrestNtB8_13PdfRestClient20render_pdf_to_images0s3_0Bc_
FN:190,_RNCNCNvMs_NtNtCsdGsEM3RpwG4_22dual_core_pdf_pipeline2ai7pdfrestNtB8_13PdfRestClient20render_pdf_to_images0s4_0Bc_
FN:202,_RNCNCNvMs_NtNtCsdGsEM3RpwG4_22dual_core_pdf_pipeline2ai7pdfrestNtB8_13PdfRestClient20render_pdf_to_images0s5_0Bc_
FN:115,_RNCNCNvMs_NtNtCsdGsEM3RpwG4_22dual_core_pdf_pipeline2ai7pdfrestNtB8_13PdfRestClient20render_pdf_to_images0s_0Bc_
FN:97,_RNCNvMs_NtNtCsdGsEM3RpwG4_22dual_core_pdf_pipeline2ai7pdfrestNtB6_13PdfRestClient20render_pdf_to_images0Ba_
FN:74,_RNvMs_NtNtCsdGsEM3RpwG4_22dual_core_pdf_pipeline2ai7pdfrestNtB4_13PdfRestClient13with_base_url
FN:80,_RNvMs_NtNtCsdGsEM3RpwG4_22dual_core_pdf_pipeline2ai7pdfrestNtB4_13PdfRestClient14authed_request
FN:92,_RNvMs_NtNtCsdGsEM3RpwG4_22dual_core_pdf_pipeline2ai7pdfrestNtB4_13PdfRestClient20render_pdf_to_images
FN:65,_RNvMs_NtNtCsdGsEM3RpwG4_22dual_core_pdf_pipeline2ai7pdfrestNtB4_13PdfRestClient3new
FN:39,_RNvXNtNtCsdGsEM3RpwG4_22dual_core_pdf_pipeline2ai7pdfrestNtB2_13PdfRestClientNtNtCsaNl6UpbT7bw_4core3fmt5Debug3fmt
FNDA:0,_RNvMs_NtNtCshN9TtrzEz6i_22dual_core_pdf_pipeline2ai7pdfrestNtB4_13PdfRestClient13with_base_url
FNDA:0,_RNvMs_NtNtCshN9TtrzEz6i_22dual_core_pdf_pipeline2ai7pdfrestNtB4_13PdfRestClient14authed_request
FNDA:0,_RNvMs_NtNtCshN9TtrzEz6i_22dual_core_pdf_pipeline2ai7pdfrestNtB4_13PdfRestClient20render_pdf_to_images
FNDA:0,_RNvMs_NtNtCshN9TtrzEz6i_22dual_core_pdf_pipeline2ai7pdfrestNtB4_13PdfRestClient3new
FNDA:0,_RNvXNtNtCshN9TtrzEz6i_22dual_core_pdf_pipeline2ai7pdfrestNtB2_13PdfRestClientNtNtCsaNl6UpbT7bw_4core3fmt5Debug3fmt
FNDA:0,_RNCNCNvMs_NtNtCshN9TtrzEz6i_22dual_core_pdf_pipeline2ai7pdfrestNtB8_13PdfRestClient20render_pdf_to_images00Bc_
FNDA:0,_RNCNCNvMs_NtNtCshN9TtrzEz6i_22dual_core_pdf_pipeline2ai7pdfrestNtB8_13PdfRestClient20render_pdf_to_images0s0_0Bc_
FNDA:0,_RNCNCNvMs_NtNtCshN9TtrzEz6i_22dual_core_pdf_pipeline2ai7pdfrestNtB8_13PdfRestClient20render_pdf_to_images0s1_0Bc_
FNDA:0,_RNCNCNvMs_NtNtCshN9TtrzEz6i_22dual_core_pdf_pipeline2ai7pdfrestNtB8_13PdfRestClient20render_pdf_to_images0s2_0Bc_
FNDA:0,_RNCNCNvMs_NtNtCshN9TtrzEz6i_22dual_core_pdf_pipeline2ai7pdfrestNtB8_13PdfRestClient20render_pdf_to_images0s3_0Bc_
FNDA:0,_RNCNCNvMs_NtNtCshN9TtrzEz6i_22dual_core_pdf_pipeline2ai7pdfrestNtB8_13PdfRestClient20render_pdf_to_images0s4_0Bc_
FNDA:0,_RNCNCNvMs_NtNtCshN9TtrzEz6i_22dual_core_pdf_pipeline2ai7pdfrestNtB8_13PdfRestClient20render_pdf_to_images0s5_0Bc_
FNDA:0,_RNCNCNvMs_NtNtCshN9TtrzEz6i_22dual_core_pdf_pipeline2ai7pdfrestNtB8_13PdfRestClient20render_pdf_to_images0s_0Bc_
FNDA:0,_RNCNvMs_NtNtCshN9TtrzEz6i_22dual_core_pdf_pipeline2ai7pdfrestNtB6_13PdfRestClient20render_pdf_to_images0Ba_
FNDA:0,_RNCNCNvMs_NtNtCsdGsEM3RpwG4_22dual_core_pdf_pipeline2ai7pdfrestNtB8_13PdfRestClient20render_pdf_to_images00Bc_
FNDA:0,_RNCNCNvMs_NtNtCsdGsEM3RpwG4_22dual_core_pdf_pipeline2ai7pdfrestNtB8_13PdfRestClient20render_pdf_to_images0s0_0Bc_
FNDA:0,_RNCNCNvMs_NtNtCsdGsEM3RpwG4_22dual_core_pdf_pipeline2ai7pdfrestNtB8_13PdfRestClient20render_pdf_to_images0s1_0Bc_
FNDA:0,_RNCNCNvMs_NtNtCsdGsEM3RpwG4_22dual_core_pdf_pipeline2ai7pdfrestNtB8_13PdfRestClient20render_pdf_to_images0s2_0Bc_
FNDA:0,_RNCNCNvMs_NtNtCsdGsEM3RpwG4_22dual_core_pdf_pipeline2ai7pdfrestNtB8_13PdfRestClient20render_pdf_to_images0s3_0Bc_
FNDA:0,_RNCNCNvMs_NtNtCsdGsEM3RpwG4_22dual_core_pdf_pipeline2ai7pdfrestNtB8_13PdfRestClient20render_pdf_to_images0s4_0Bc_
FNDA:0,_RNCNCNvMs_NtNtCsdGsEM3RpwG4_22dual_core_pdf_pipeline2ai7pdfrestNtB8_13PdfRestClient20render_pdf_to_images0s5_0Bc_
FNDA:0,_RNCNCNvMs_NtNtCsdGsEM3RpwG4_22dual_core_pdf_pipeline2ai7pdfrestNtB8_13PdfRestClient20render_pdf_to_images0s_0Bc_
FNDA:0,_RNCNvMs_NtNtCsdGsEM3RpwG4_22dual_core_pdf_pipeline2ai7pdfrestNtB6_13PdfRestClient20render_pdf_to_images0Ba_
FNDA:0,_RNvMs_NtNtCsdGsEM3RpwG4_22dual_core_pdf_pipeline2ai7pdfrestNtB4_13PdfRestClient13with_base_url
FNDA:0,_RNvMs_NtNtCsdGsEM3RpwG4_22dual_core_pdf_pipeline2ai7pdfrestNtB4_13PdfRestClient14authed_request
FNDA:0,_RNvMs_NtNtCsdGsEM3RpwG4_22dual_core_pdf_pipeline2ai7pdfrestNtB4_13PdfRestClient20render_pdf_to_images
FNDA:0,_RNvMs_NtNtCsdGsEM3RpwG4_22dual_core_pdf_pipeline2ai7pdfrestNtB4_13PdfRestClient3new
FNDA:0,_RNvXNtNtCsdGsEM3RpwG4_22dual_core_pdf_pipeline2ai7pdfrestNtB2_13PdfRestClientNtNtCsaNl6UpbT7bw_4core3fmt5Debug3fmt
FNF:14
FNH:0
DA:39,0
DA:40,0
DA:41,0
DA:42,0
DA:43,0
DA:44,0
DA:45,0
DA:46,0
DA:47,0
DA:65,0
DA:66,0
DA:67,0
DA:68,0
DA:69,0
DA:70,0
DA:71,0
DA:74,0
DA:75,0
DA:76,0
DA:77,0
DA:78,0
DA:80,0
DA:81,0
DA:82,0
DA:83,0
DA:84,0
DA:85,0
DA:86,0
DA:87,0
DA:88,0
DA:92,0
DA:93,0
DA:94,0
DA:95,0
DA:96,0
DA:97,0
DA:98,0
DA:100,0
DA:101,0
DA:102,0
DA:103,0
DA:104,0
DA:105,0
DA:106,0
DA:107,0
DA:109,0
DA:110,0
DA:112,0
DA:113,0
DA:114,0
DA:115,0
DA:117,0
DA:118,0
DA:120,0
DA:121,0
DA:122,0
DA:123,0
DA:124,0
DA:125,0
DA:126,0
DA:128,0
DA:129,0
DA:131,0
DA:132,0
DA:134,0
DA:135,0
DA:136,0
DA:137,0
DA:139,0
DA:140,0
DA:141,0
DA:142,0
DA:144,0
DA:145,0
DA:146,0
DA:147,0
DA:149,0
DA:150,0
DA:151,0
DA:154,0
DA:155,0
DA:156,0
DA:158,0
DA:159,0
DA:160,0
DA:161,0
DA:162,0
DA:164,0
DA:165,0
DA:166,0
DA:167,0
DA:168,0
DA:169,0
DA:170,0
DA:171,0
DA:172,0
DA:173,0
DA:175,0
DA:176,0
DA:179,0
DA:180,0
DA:181,0
DA:184,0
DA:185,0
DA:186,0
DA:187,0
DA:188,0
DA:189,0
DA:190,0
DA:192,0
DA:193,0
DA:194,0
DA:195,0
DA:196,0
DA:197,0
DA:199,0
DA:200,0
DA:201,0
DA:202,0
DA:203,0
DA:204,0
DA:205,0
DA:208,0
DA:209,0
BRF:0
BRH:0
LF:133
LH:0
end_of_record
SF:/Volumes/Macintosh_HD/Users/user298993/Documents/GitHub/bank-statement-fidelity-editor/src/ai/pyo3_bridge.rs
FN:59,_RINvMNtNtCshN9TtrzEz6i_22dual_core_pdf_pipeline2ai11pyo3_bridgeNtB3_8PyEngine20safe_python_with_gilNCNvB2_11clone_pages0NtNtCsiTraAjBDcu4_5alloc6string6StringEB7_
FN:59,_RINvMNtNtCshN9TtrzEz6i_22dual_core_pdf_pipeline2ai11pyo3_bridgeNtB3_8PyEngine20safe_python_with_gilNCNvB2_12extract_font0NtNtCsiTraAjBDcu4_5alloc6string6StringEB7_
FN:59,_RINvMNtNtCshN9TtrzEz6i_22dual_core_pdf_pipeline2ai11pyo3_bridgeNtB3_8PyEngine20safe_python_with_gilNCNvB2_12remove_pages0NtNtCsiTraAjBDcu4_5alloc6string6StringEB7_
FN:59,_RINvMNtNtCshN9TtrzEz6i_22dual_core_pdf_pipeline2ai11pyo3_bridgeNtB3_8PyEngine20safe_python_with_gilNCNvB2_13analyze_fonts0NtNtCsiTraAjBDcu4_5alloc6string6StringEB7_
FN:59,_RINvMNtNtCshN9TtrzEz6i_22dual_core_pdf_pipeline2ai11pyo3_bridgeNtB3_8PyEngine20safe_python_with_gilNCNvB2_15get_text_blocks0NtNtCsiTraAjBDcu4_5alloc6string6StringEB7_
FN:59,_RINvMNtNtCshN9TtrzEz6i_22dual_core_pdf_pipeline2ai11pyo3_bridgeNtB3_8PyEngine20safe_python_with_gilNCNvB2_16apply_many_edits0NtNtCsiTraAjBDcu4_5alloc6string6StringEB7_
FN:59,_RINvMNtNtCshN9TtrzEz6i_22dual_core_pdf_pipeline2ai11pyo3_bridgeNtB3_8PyEngine20safe_python_with_gilNCNvB2_18render_page_to_png0NtNtCsiTraAjBDcu4_5alloc6string6StringEB7_
FN:59,_RINvMNtNtCshN9TtrzEz6i_22dual_core_pdf_pipeline2ai11pyo3_bridgeNtB3_8PyEngine20safe_python_with_gilNCNvB2_19chunk_pdf_for_docai0NtNtCsiTraAjBDcu4_5alloc6string6StringEB7_
FN:59,_RINvMNtNtCshN9TtrzEz6i_22dual_core_pdf_pipeline2ai11pyo3_bridgeNtB3_8PyEngine20safe_python_with_gilNCNvB2_20get_all_transactions0NtNtCsiTraAjBDcu4_5alloc6string6StringEB7_
FN:59,_RINvMNtNtCshN9TtrzEz6i_22dual_core_pdf_pipeline2ai11pyo3_bridgeNtB3_8PyEngine20safe_python_with_gilNCNvB2_20replace_text_in_rect0INtNtCsaNl6UpbT7bw_4core6option6OptionNtNtCsiTraAjBDcu4_5alloc6string6StringEEB7_
FN:59,_RINvMNtNtCshN9TtrzEz6i_22dual_core_pdf_pipeline2ai11pyo3_bridgeNtB3_8PyEngine20safe_python_with_gilNCNvB2_21deep_font_replication0NtNtCsiTraAjBDcu4_5alloc6string6StringEB7_
FN:59,_RINvMNtNtCshN9TtrzEz6i_22dual_core_pdf_pipeline2ai11pyo3_bridgeNtB3_8PyEngine20safe_python_with_gilNCNvB2_23analyze_document_layout0NtNtCsiTraAjBDcu4_5alloc6string6StringEB7_
FN:59,_RINvMNtNtCshN9TtrzEz6i_22dual_core_pdf_pipeline2ai11pyo3_bridgeNtB3_8PyEngine20safe_python_with_gilNCNvB2_24find_text_block_at_click0NtNtCsiTraAjBDcu4_5alloc6string6StringEB7_
FN:59,_RINvMNtNtCshN9TtrzEz6i_22dual_core_pdf_pipeline2ai11pyo3_bridgeNtB3_8PyEngine20safe_python_with_gilNCNvB2_27complete_font_with_adaption0NtNtCsiTraAjBDcu4_5alloc6string6StringEB7_
FN:59,_RINvMNtNtCshN9TtrzEz6i_22dual_core_pdf_pipeline2ai11pyo3_bridgeNtB3_8PyEngine20safe_python_with_gilNCNvB2_32replicate_font_for_missing_chars0NtNtCsiTraAjBDcu4_5alloc6string6StringEB7_
FN:59,_RINvMNtNtCshN9TtrzEz6i_22dual_core_pdf_pipeline2ai11pyo3_bridgeNtB3_8PyEngine20safe_python_with_gilNCNvB2_4init0BZ_EB7_
FN:88,_RINvMNtNtCshN9TtrzEz6i_22dual_core_pdf_pipeline2ai11pyo3_bridgeNtB3_8PyEngine9call_jsonTReB1o_B1o_B1o_EEB7_
FN:88,_RINvMNtNtCshN9TtrzEz6i_22dual_core_pdf_pipeline2ai11pyo3_bridgeNtB3_8PyEngine9call_jsonTReB1o_B1o_EEB7_
FN:88,_RINvMNtNtCshN9TtrzEz6i_22dual_core_pdf_pipeline2ai11pyo3_bridgeNtB3_8PyEngine9call_jsonTReB1o_EEB7_
FN:88,_RINvMNtNtCshN9TtrzEz6i_22dual_core_pdf_pipeline2ai11pyo3_bridgeNtB3_8PyEngine9call_jsonTReB1o_INtNtCsiTraAjBDcu4_5alloc3vec3VecjEEEB7_
FN:88,_RINvMNtNtCshN9TtrzEz6i_22dual_core_pdf_pipeline2ai11pyo3_bridgeNtB3_8PyEngine9call_jsonTReB1o_jEEB7_
FN:88,_RINvMNtNtCshN9TtrzEz6i_22dual_core_pdf_pipeline2ai11pyo3_bridgeNtB3_8PyEngine9call_jsonTReEEB7_
FN:88,_RINvMNtNtCshN9TtrzEz6i_22dual_core_pdf_pipeline2ai11pyo3_bridgeNtB3_8PyEngine9call_jsonTRejEEB7_
FN:88,_RINvMNtNtCshN9TtrzEz6i_22dual_core_pdf_pipeline2ai11pyo3_bridgeNtB3_8PyEngine9call_jsonTRejfEEB7_
FN:88,_RINvMNtNtCshN9TtrzEz6i_22dual_core_pdf_pipeline2ai11pyo3_bridgeNtB3_8PyEngine9call_jsonTRejffdEEB7_
FN:95,_RNCINvMNtNtCshN9TtrzEz6i_22dual_core_pdf_pipeline2ai11pyo3_bridgeNtB5_8PyEngine9call_jsonTReB1q_B1q_B1q_EE0B9_
FN:98,_RNCINvMNtNtCshN9TtrzEz6i_22dual_core_pdf_pipeline2ai11pyo3_bridgeNtB5_8PyEngine9call_jsonTReB1q_B1q_B1q_EEs0_0B9_
FN:99,_RNCINvMNtNtCshN9TtrzEz6i_22dual_core_pdf_pipeline2ai11pyo3_bridgeNtB5_8PyEngine9call_jsonTReB1q_B1q_B1q_EEs1_0B9_
FN:102,_RNCINvMNtNtCshN9TtrzEz6i_22dual_core_pdf_pipeline2ai11pyo3_bridgeNtB5_8PyEngine9call_jsonTReB1q_B1q_B1q_EEs2_0B9_
FN:104,_RNCINvMNtNtCshN9TtrzEz6i_22dual_core_pdf_pipeline2ai11pyo3_bridgeNtB5_8PyEngine9call_jsonTReB1q_B1q_B1q_EEs3_0B9_
FN:96,_RNCINvMNtNtCshN9TtrzEz6i_22dual_core_pdf_pipeline2ai11pyo3_bridgeNtB5_8PyEngine9call_jsonTReB1q_B1q_B1q_EEs_0B9_
FN:95,_RNCINvMNtNtCshN9TtrzEz6i_22dual_core_pdf_pipeline2ai11pyo3_bridgeNtB5_8PyEngine9call_jsonTReB1q_B1q_EE0B9_
FN:98,_RNCINvMNtNtCshN9TtrzEz6i_22dual_core_pdf_pipeline2ai11pyo3_bridgeNtB5_8PyEngine9call_jsonTReB1q_B1q_EEs0_0B9_
FN:99,_RNCINvMNtNtCshN9TtrzEz6i_22dual_core_pdf_pipeline2ai11pyo3_bridgeNtB5_8PyEngine9call_jsonTReB1q_B1q_EEs1_0B9_
FN:102,_RNCINvMNtNtCshN9TtrzEz6i_22dual_core_pdf_pipeline2ai11pyo3_bridgeNtB5_8PyEngine9call_jsonTReB1q_B1q_EEs2_0B9_
FN:104,_RNCINvMNtNtCshN9TtrzEz6i_22dual_core_pdf_pipeline2ai11pyo3_bridgeNtB5_8PyEngine9call_jsonTReB1q_B1q_EEs3_0B9_
FN:96,_RNCINvMNtNtCshN9TtrzEz6i_22dual_core_pdf_pipeline2ai11pyo3_bridgeNtB5_8PyEngine9call_jsonTReB1q_B1q_EEs_0B9_
FN:95,_RNCINvMNtNtCshN9TtrzEz6i_22dual_core_pdf_pipeline2ai11pyo3_bridgeNtB5_8PyEngine9call_jsonTReB1q_EE0B9_
FN:98,_RNCINvMNtNtCshN9TtrzEz6i_22dual_core_pdf_pipeline2ai11pyo3_bridgeNtB5_8PyEngine9call_jsonTReB1q_EEs0_0B9_
FN:99,_RNCINvMNtNtCshN9TtrzEz6i_22dual_core_pdf_pipeline2ai11pyo3_bridgeNtB5_8PyEngine9call_jsonTReB1q_EEs1_0B9_
FN:102,_RNCINvMNtNtCshN9TtrzEz6i_22dual_core_pdf_pipeline2ai11pyo3_bridgeNtB5_8PyEngine9call_jsonTReB1q_EEs2_0B9_
FN:104,_RNCINvMNtNtCshN9TtrzEz6i_22dual_core_pdf_pipeline2ai11pyo3_bridgeNtB5_8PyEngine9call_jsonTReB1q_EEs3_0B9_
FN:96,_RNCINvMNtNtCshN9TtrzEz6i_22dual_core_pdf_pipeline2ai11pyo3_bridgeNtB5_8PyEngine9call_jsonTReB1q_EEs_0B9_
FN:95,_RNCINvMNtNtCshN9TtrzEz6i_22dual_core_pdf_pipeline2ai11pyo3_bridgeNtB5_8PyEngine9call_jsonTReB1q_INtNtCsiTraAjBDcu4_5alloc3vec3VecjEEE0B9_
FN:98,_RNCINvMNtNtCshN9TtrzEz6i_22dual_core_pdf_pipeline2ai11pyo3_bridgeNtB5_8PyEngine9call_jsonTReB1q_INtNtCsiTraAjBDcu4_5alloc3vec3VecjEEEs0_0B9_
FN:99,_RNCINvMNtNtCshN9TtrzEz6i_22dual_core_pdf_pipeline2ai11pyo3_bridgeNtB5_8PyEngine9call_jsonTReB1q_INtNtCsiTraAjBDcu4_5alloc3vec3VecjEEEs1_0B9_
FN:102,_RNCINvMNtNtCshN9TtrzEz6i_22dual_core_pdf_pipeline2ai11pyo3_bridgeNtB5_8PyEngine9call_jsonTReB1q_INtNtCsiTraAjBDcu4_5alloc3vec3VecjEEEs2_0B9_
FN:104,_RNCINvMNtNtCshN9TtrzEz6i_22dual_core_pdf_pipeline2ai11pyo3_bridgeNtB5_8PyEngine9call_jsonTReB1q_INtNtCsiTraAjBDcu4_5alloc3vec3VecjEEEs3_0B9_
FN:96,_RNCINvMNtNtCshN9TtrzEz6i_22dual_core_pdf_pipeline2ai11pyo3_bridgeNtB5_8PyEngine9call_jsonTReB1q_INtNtCsiTraAjBDcu4_5alloc3vec3VecjEEEs_0B9_
FN:95,_RNCINvMNtNtCshN9TtrzEz6i_22dual_core_pdf_pipeline2ai11pyo3_bridgeNtB5_8PyEngine9call_jsonTReB1q_jEE0B9_
FN:98,_RNCINvMNtNtCshN9TtrzEz6i_22dual_core_pdf_pipeline2ai11pyo3_bridgeNtB5_8PyEngine9call_jsonTReB1q_jEEs0_0B9_
FN:99,_RNCINvMNtNtCshN9TtrzEz6i_22dual_core_pdf_pipeline2ai11pyo3_bridgeNtB5_8PyEngine9call_jsonTReB1q_jEEs1_0B9_
FN:102,_RNCINvMNtNtCshN9TtrzEz6i_22dual_core_pdf_pipeline2ai11pyo3_bridgeNtB5_8PyEngine9call_jsonTReB1q_jEEs2_0B9_
FN:104,_RNCINvMNtNtCshN9TtrzEz6i_22dual_core_pdf_pipeline2ai11pyo3_bridgeNtB5_8PyEngine9call_jsonTReB1q_jEEs3_0B9_
FN:96,_RNCINvMNtNtCshN9TtrzEz6i_22dual_core_pdf_pipeline2ai11pyo3_bridgeNtB5_8PyEngine9call_jsonTReB1q_jEEs_0B9_
FN:95,_RNCINvMNtNtCshN9TtrzEz6i_22dual_core_pdf_pipeline2ai11pyo3_bridgeNtB5_8PyEngine9call_jsonTReEE0B9_
FN:98,_RNCINvMNtNtCshN9TtrzEz6i_22dual_core_pdf_pipeline2ai11pyo3_bridgeNtB5_8PyEngine9call_jsonTReEEs0_0B9_
FN:99,_RNCINvMNtNtCshN9TtrzEz6i_22dual_core_pdf_pipeline2ai11pyo3_bridgeNtB5_8PyEngine9call_jsonTReEEs1_0B9_
FN:102,_RNCINvMNtNtCshN9TtrzEz6i_22dual_core_pdf_pipeline2ai11pyo3_bridgeNtB5_8PyEngine9call_jsonTReEEs2_0B9_
FN:104,_RNCINvMNtNtCshN9TtrzEz6i_22dual_core_pdf_pipeline2ai11pyo3_bridgeNtB5_8PyEngine9call_jsonTReEEs3_0B9_
FN:96,_RNCINvMNtNtCshN9TtrzEz6i_22dual_core_pdf_pipeline2ai11pyo3_bridgeNtB5_8PyEngine9call_jsonTReEEs_0B9_
FN:95,_RNCINvMNtNtCshN9TtrzEz6i_22dual_core_pdf_pipeline2ai11pyo3_bridgeNtB5_8PyEngine9call_jsonTRejEE0B9_
FN:98,_RNCINvMNtNtCshN9TtrzEz6i_22dual_core_pdf_pipeline2ai11pyo3_bridgeNtB5_8PyEngine9call_jsonTRejEEs0_0B9_
FN:99,_RNCINvMNtNtCshN9TtrzEz6i_22dual_core_pdf_pipeline2ai11pyo3_bridgeNtB5_8PyEngine9call_jsonTRejEEs1_0B9_
FN:102,_RNCINvMNtNtCshN9TtrzEz6i_22dual_core_pdf_pipeline2ai11pyo3_bridgeNtB5_8PyEngine9call_jsonTRejEEs2_0B9_
FN:104,_RNCINvMNtNtCshN9TtrzEz6i_22dual_core_pdf_pipeline2ai11pyo3_bridgeNtB5_8PyEngine9call_jsonTRejEEs3_0B9_
FN:96,_RNCINvMNtNtCshN9TtrzEz6i_22dual_core_pdf_pipeline2ai11pyo3_bridgeNtB5_8PyEngine9call_jsonTRejEEs_0B9_
FN:95,_RNCINvMNtNtCshN9TtrzEz6i_22dual_core_pdf_pipeline2ai11pyo3_bridgeNtB5_8PyEngine9call_jsonTRejfEE0B9_
FN:98,_RNCINvMNtNtCshN9TtrzEz6i_22dual_core_pdf_pipeline2ai11pyo3_bridgeNtB5_8PyEngine9call_jsonTRejfEEs0_0B9_
FN:99,_RNCINvMNtNtCshN9TtrzEz6i_22dual_core_pdf_pipeline2ai11pyo3_bridgeNtB5_8PyEngine9call_jsonTRejfEEs1_0B9_
FN:102,_RNCINvMNtNtCshN9TtrzEz6i_22dual_core_pdf_pipeline2ai11pyo3_bridgeNtB5_8PyEngine9call_jsonTRejfEEs2_0B9_
FN:104,_RNCINvMNtNtCshN9TtrzEz6i_22dual_core_pdf_pipeline2ai11pyo3_bridgeNtB5_8PyEngine9call_jsonTRejfEEs3_0B9_
FN:96,_RNCINvMNtNtCshN9TtrzEz6i_22dual_core_pdf_pipeline2ai11pyo3_bridgeNtB5_8PyEngine9call_jsonTRejfEEs_0B9_
FN:95,_RNCINvMNtNtCshN9TtrzEz6i_22dual_core_pdf_pipeline2ai11pyo3_bridgeNtB5_8PyEngine9call_jsonTRejffdEE0B9_
FN:98,_RNCINvMNtNtCshN9TtrzEz6i_22dual_core_pdf_pipeline2ai11pyo3_bridgeNtB5_8PyEngine9call_jsonTRejffdEEs0_0B9_
FN:99,_RNCINvMNtNtCshN9TtrzEz6i_22dual_core_pdf_pipeline2ai11pyo3_bridgeNtB5_8PyEngine9call_jsonTRejffdEEs1_0B9_
FN:102,_RNCINvMNtNtCshN9TtrzEz6i_22dual_core_pdf_pipeline2ai11pyo3_bridgeNtB5_8PyEngine9call_jsonTRejffdEEs2_0B9_
FN:104,_RNCINvMNtNtCshN9TtrzEz6i_22dual_core_pdf_pipeline2ai11pyo3_bridgeNtB5_8PyEngine9call_jsonTRejffdEEs3_0B9_
FN:96,_RNCINvMNtNtCshN9TtrzEz6i_22dual_core_pdf_pipeline2ai11pyo3_bridgeNtB5_8PyEngine9call_jsonTRejffdEEs_0B9_
FN:64,_RNCINvMNtNtCshN9TtrzEz6i_22dual_core_pdf_pipeline2ai11pyo3_bridgeNtB5_8PyEngine20safe_python_with_gilNCNvB4_11clone_pages0NtNtCsiTraAjBDcu4_5alloc6string6StringE0B9_
FN:64,_RNCINvMNtNtCshN9TtrzEz6i_22dual_core_pdf_pipeline2ai11pyo3_bridgeNtB5_8PyEngine20safe_python_with_gilNCNvB4_12extract_font0NtNtCsiTraAjBDcu4_5alloc6string6StringE0B9_
FN:64,_RNCINvMNtNtCshN9TtrzEz6i_22dual_core_pdf_pipeline2ai11pyo3_bridgeNtB5_8PyEngine20safe_python_with_gilNCNvB4_12remove_pages0NtNtCsiTraAjBDcu4_5alloc6string6StringE0B9_
FN:64,_RNCINvMNtNtCshN9TtrzEz6i_22dual_core_pdf_pipeline2ai11pyo3_bridgeNtB5_8PyEngine20safe_python_with_gilNCNvB4_13analyze_fonts0NtNtCsiTraAjBDcu4_5alloc6string6StringE0B9_
FN:64,_RNCINvMNtNtCshN9TtrzEz6i_22dual_core_pdf_pipeline2ai11pyo3_bridgeNtB5_8PyEngine20safe_python_with_gilNCNvB4_15get_text_blocks0NtNtCsiTraAjBDcu4_5alloc6string6StringE0B9_
FN:64,_RNCINvMNtNtCshN9TtrzEz6i_22dual_core_pdf_pipeline2ai11pyo3_bridgeNtB5_8PyEngine20safe_python_with_gilNCNvB4_16apply_many_edits0NtNtCsiTraAjBDcu4_5alloc6string6StringE0B9_
FN:64,_RNCINvMNtNtCshN9TtrzEz6i_22dual_core_pdf_pipeline2ai11pyo3_bridgeNtB5_8PyEngine20safe_python_with_gilNCNvB4_18render_page_to_png0NtNtCsiTraAjBDcu4_5alloc6string6StringE0B9_
FN:64,_RNCINvMNtNtCshN9TtrzEz6i_22dual_core_pdf_pipeline2ai11pyo3_bridgeNtB5_8PyEngine20safe_python_with_gilNCNvB4_19chunk_pdf_for_docai0NtNtCsiTraAjBDcu4_5alloc6string6StringE0B9_
FN:64,_RNCINvMNtNtCshN9TtrzEz6i_22dual_core_pdf_pipeline2ai11pyo3_bridgeNtB5_8PyEngine20safe_python_with_gilNCNvB4_20get_all_transactions0NtNtCsiTraAjBDcu4_5alloc6string6StringE0B9_
FN:64,_RNCINvMNtNtCshN9TtrzEz6i_22dual_core_pdf_pipeline2ai11pyo3_bridgeNtB5_8PyEngine20safe_python_with_gilNCNvB4_20replace_text_in_rect0INtNtCsaNl6UpbT7bw_4core6option6OptionNtNtCsiTraAjBDcu4_5alloc6string6StringEE0B9_
FN:64,_RNCINvMNtNtCshN9TtrzEz6i_22dual_core_pdf_pipeline2ai11pyo3_bridgeNtB5_8PyEngine20safe_python_with_gilNCNvB4_21deep_font_replication0NtNtCsiTraAjBDcu4_5alloc6string6StringE0B9_
FN:64,_RNCINvMNtNtCshN9TtrzEz6i_22dual_core_pdf_pipeline2ai11pyo3_bridgeNtB5_8PyEngine20safe_python_with_gilNCNvB4_23analyze_document_layout0NtNtCsiTraAjBDcu4_5alloc6string6StringE0B9_
FN:64,_RNCINvMNtNtCshN9TtrzEz6i_22dual_core_pdf_pipeline2ai11pyo3_bridgeNtB5_8PyEngine20safe_python_with_gilNCNvB4_24find_text_block_at_click0NtNtCsiTraAjBDcu4_5alloc6string6StringE0B9_
FN:64,_RNCINvMNtNtCshN9TtrzEz6i_22dual_core_pdf_pipeline2ai11pyo3_bridgeNtB5_8PyEngine20safe_python_with_gilNCNvB4_27complete_font_with_adaption0NtNtCsiTraAjBDcu4_5alloc6string6StringE0B9_
FN:64,_RNCINvMNtNtCshN9TtrzEz6i_22dual_core_pdf_pipeline2ai11pyo3_bridgeNtB5_8PyEngine20safe_python_with_gilNCNvB4_32replicate_font_for_missing_chars0NtNtCsiTraAjBDcu4_5alloc6string6StringE0B9_
FN:64,_RNCINvMNtNtCshN9TtrzEz6i_22dual_core_pdf_pipeline2ai11pyo3_bridgeNtB5_8PyEngine20safe_python_with_gilNCNvB4_4init0B11_E0B9_
FN:294,_RNCNCNvMNtNtCshN9TtrzEz6i_22dual_core_pdf_pipeline2ai11pyo3_bridgeNtB6_8PyEngine16apply_many_edits00Ba_
FN:298,_RNCNCNvMNtNtCshN9TtrzEz6i_22dual_core_pdf_pipeline2ai11pyo3_bridgeNtB6_8PyEngine16apply_many_edits0s0_0Ba_
FN:301,_RNCNCNvMNtNtCshN9TtrzEz6i_22dual_core_pdf_pipeline2ai11pyo3_bridgeNtB6_8PyEngine16apply_many_edits0s1_0Ba_
FN:306,_RNCNCNvMNtNtCshN9TtrzEz6i_22dual_core_pdf_pipeline2ai11pyo3_bridgeNtB6_8PyEngine16apply_many_edits0s2_0Ba_
FN:310,_RNCNCNvMNtNtCshN9TtrzEz6i_22dual_core_pdf_pipeline2ai11pyo3_bridgeNtB6_8PyEngine16apply_many_edits0s3_0Ba_
FN:313,_RNCNCNvMNtNtCshN9TtrzEz6i_22dual_core_pdf_pipeline2ai11pyo3_bridgeNtB6_8PyEngine16apply_many_edits0s4_0Ba_
FN:316,_RNCNCNvMNtNtCshN9TtrzEz6i_22dual_core_pdf_pipeline2ai11pyo3_bridgeNtB6_8PyEngine16apply_many_edits0s5_0Ba_
FN:320,_RNCNCNvMNtNtCshN9TtrzEz6i_22dual_core_pdf_pipeline2ai11pyo3_bridgeNtB6_8PyEngine16apply_many_edits0s6_0Ba_
FN:326,_RNCNCNvMNtNtCshN9TtrzEz6i_22dual_core_pdf_pipeline2ai11pyo3_bridgeNtB6_8PyEngine16apply_many_edits0s7_0Ba_
FN:329,_RNCNCNvMNtNtCshN9TtrzEz6i_22dual_core_pdf_pipeline2ai11pyo3_bridgeNtB6_8PyEngine16apply_many_edits0s8_0Ba_
FN:331,_RNCNCNvMNtNtCshN9TtrzEz6i_22dual_core_pdf_pipeline2ai11pyo3_bridgeNtB6_8PyEngine16apply_many_edits0s9_0Ba_
FN:295,_RNCNCNvMNtNtCshN9TtrzEz6i_22dual_core_pdf_pipeline2ai11pyo3_bridgeNtB6_8PyEngine16apply_many_edits0s_0Ba_
FN:131,_RNCNCNvMNtNtCshN9TtrzEz6i_22dual_core_pdf_pipeline2ai11pyo3_bridgeNtB6_8PyEngine20replace_text_in_rect00Ba_
FN:138,_RNCNCNvMNtNtCshN9TtrzEz6i_22dual_core_pdf_pipeline2ai11pyo3_bridgeNtB6_8PyEngine20replace_text_in_rect0s0_0Ba_
FN:150,_RNCNCNvMNtNtCshN9TtrzEz6i_22dual_core_pdf_pipeline2ai11pyo3_bridgeNtB6_8PyEngine20replace_text_in_rect0s1_0Ba_
FN:154,_RNCNCNvMNtNtCshN9TtrzEz6i_22dual_core_pdf_pipeline2ai11pyo3_bridgeNtB6_8PyEngine20replace_text_in_rect0s2_0Ba_
FN:157,_RNCNCNvMNtNtCshN9TtrzEz6i_22dual_core_pdf_pipeline2ai11pyo3_bridgeNtB6_8PyEngine20replace_text_in_rect0s3_0Ba_
FN:160,_RNCNCNvMNtNtCshN9TtrzEz6i_22dual_core_pdf_pipeline2ai11pyo3_bridgeNtB6_8PyEngine20replace_text_in_rect0s4_0Ba_
FN:163,_RNCNCNvMNtNtCshN9TtrzEz6i_22dual_core_pdf_pipeline2ai11pyo3_bridgeNtB6_8PyEngine20replace_text_in_rect0s5_0Ba_
FN:166,_RNCNCNvMNtNtCshN9TtrzEz6i_22dual_core_pdf_pipeline2ai11pyo3_bridgeNtB6_8PyEngine20replace_text_in_rect0s6_0Ba_
FN:169,_RNCNCNvMNtNtCshN9TtrzEz6i_22dual_core_pdf_pipeline2ai11pyo3_bridgeNtB6_8PyEngine20replace_text_in_rect0s7_0Ba_
FN:173,_RNCNCNvMNtNtCshN9TtrzEz6i_22dual_core_pdf_pipeline2ai11pyo3_bridgeNtB6_8PyEngine20replace_text_in_rect0s8_0Ba_
FN:187,_RNCNCNvMNtNtCshN9TtrzEz6i_22dual_core_pdf_pipeline2ai11pyo3_bridgeNtB6_8PyEngine20replace_text_in_rect0s9_0Ba_
FN:134,_RNCNCNvMNtNtCshN9TtrzEz6i_22dual_core_pdf_pipeline2ai11pyo3_bridgeNtB6_8PyEngine20replace_text_in_rect0s_0Ba_
FN:188,_RNCNCNvMNtNtCshN9TtrzEz6i_22dual_core_pdf_pipeline2ai11pyo3_bridgeNtB6_8PyEngine20replace_text_in_rect0sa_0Ba_
FN:191,_RNCNCNvMNtNtCshN9TtrzEz6i_22dual_core_pdf_pipeline2ai11pyo3_bridgeNtB6_8PyEngine20replace_text_in_rect0sb_0Ba_
FN:23,_RNCNCNvMNtNtCshN9TtrzEz6i_22dual_core_pdf_pipeline2ai11pyo3_bridgeNtB6_8PyEngine4init00Ba_
FN:27,_RNCNCNvMNtNtCshN9TtrzEz6i_22dual_core_pdf_pipeline2ai11pyo3_bridgeNtB6_8PyEngine4init0s0_0Ba_
FN:45,_RNCNCNvMNtNtCshN9TtrzEz6i_22dual_core_pdf_pipeline2ai11pyo3_bridgeNtB6_8PyEngine4init0s1_0Ba_
FN:47,_RNCNCNvMNtNtCshN9TtrzEz6i_22dual_core_pdf_pipeline2ai11pyo3_bridgeNtB6_8PyEngine4init0s2_0Ba_
FN:49,_RNCNCNvMNtNtCshN9TtrzEz6i_22dual_core_pdf_pipeline2ai11pyo3_bridgeNtB6_8PyEngine4init0s3_0Ba_
FN:24,_RNCNCNvMNtNtCshN9TtrzEz6i_22dual_core_pdf_pipeline2ai11pyo3_bridgeNtB6_8PyEngine4init0s_0Ba_
FN:412,_RNCNvMNtNtCshN9TtrzEz6i_22dual_core_pdf_pipeline2ai11pyo3_bridgeNtB4_8PyEngine11clone_pages0B8_
FN:245,_RNCNvMNtNtCshN9TtrzEz6i_22dual_core_pdf_pipeline2ai11pyo3_bridgeNtB4_8PyEngine12extract_font0B8_
FN:438,_RNCNvMNtNtCshN9TtrzEz6i_22dual_core_pdf_pipeline2ai11pyo3_bridgeNtB4_8PyEngine12remove_pages0B8_
FN:377,_RNCNvMNtNtCshN9TtrzEz6i_22dual_core_pdf_pipeline2ai11pyo3_bridgeNtB4_8PyEngine13analyze_fonts0B8_
FN:115,_RNCNvMNtNtCshN9TtrzEz6i_22dual_core_pdf_pipeline2ai11pyo3_bridgeNtB4_8PyEngine15get_text_blocks0B8_
FN:293,_RNCNvMNtNtCshN9TtrzEz6i_22dual_core_pdf_pipeline2ai11pyo3_bridgeNtB4_8PyEngine16apply_many_edits0B8_
FN:427,_RNCNvMNtNtCshN9TtrzEz6i_22dual_core_pdf_pipeline2ai11pyo3_bridgeNtB4_8PyEngine18render_page_to_png0B8_
FN:364,_RNCNvMNtNtCshN9TtrzEz6i_22dual_core_pdf_pipeline2ai11pyo3_bridgeNtB4_8PyEngine19chunk_pdf_for_docai0B8_
FN:237,_RNCNvMNtNtCshN9TtrzEz6i_22dual_core_pdf_pipeline2ai11pyo3_bridgeNtB4_8PyEngine20get_all_transactions0B8_
FN:127,_RNCNvMNtNtCshN9TtrzEz6i_22dual_core_pdf_pipeline2ai11pyo3_bridgeNtB4_8PyEngine20replace_text_in_rect0B8_
FN:268,_RNCNvMNtNtCshN9TtrzEz6i_22dual_core_pdf_pipeline2ai11pyo3_bridgeNtB4_8PyEngine21deep_font_replication0B8_
FN:241,_RNCNvMNtNtCshN9TtrzEz6i_22dual_core_pdf_pipeline2ai11pyo3_bridgeNtB4_8PyEngine23analyze_document_layout0B8_
FN:227,_RNCNvMNtNtCshN9TtrzEz6i_22dual_core_pdf_pipeline2ai11pyo3_bridgeNtB4_8PyEngine24find_text_block_at_click0B8_
FN:253,_RNCNvMNtNtCshN9TtrzEz6i_22dual_core_pdf_pipeline2ai11pyo3_bridgeNtB4_8PyEngine27complete_font_with_adaption0B8_
FN:397,_RNCNvMNtNtCshN9TtrzEz6i_22dual_core_pdf_pipeline2ai11pyo3_bridgeNtB4_8PyEngine32replicate_font_for_missing_chars0B8_
FN:16,_RNCNvMNtNtCshN9TtrzEz6i_22dual_core_pdf_pipeline2ai11pyo3_bridgeNtB4_8PyEngine4init0B8_
FN:450,_RNCNvMNtNtCshN9TtrzEz6i_22dual_core_pdf_pipeline2ai11pyo3_bridgeNtB4_8PyEngine15garbage_collect0B8_
FN:406,_RNvMNtNtCshN9TtrzEz6i_22dual_core_pdf_pipeline2ai11pyo3_bridgeNtB2_8PyEngine11clone_pages
FN:244,_RNvMNtNtCshN9TtrzEz6i_22dual_core_pdf_pipeline2ai11pyo3_bridgeNtB2_8PyEngine12extract_font
FN:432,_RNvMNtNtCshN9TtrzEz6i_22dual_core_pdf_pipeline2ai11pyo3_bridgeNtB2_8PyEngine12remove_pages
FN:376,_RNvMNtNtCshN9TtrzEz6i_22dual_core_pdf_pipeline2ai11pyo3_bridgeNtB2_8PyEngine13analyze_fonts
FN:449,_RNvMNtNtCshN9TtrzEz6i_22dual_core_pdf_pipeline2ai11pyo3_bridgeNtB2_8PyEngine15garbage_collect
FN:109,_RNvMNtNtCshN9TtrzEz6i_22dual_core_pdf_pipeline2ai11pyo3_bridgeNtB2_8PyEngine15get_text_blocks
FN:286,_RNvMNtNtCshN9TtrzEz6i_22dual_core_pdf_pipeline2ai11pyo3_bridgeNtB2_8PyEngine16apply_many_edits
FN:421,_RNvMNtNtCshN9TtrzEz6i_22dual_core_pdf_pipeline2ai11pyo3_bridgeNtB2_8PyEngine18render_page_to_png
FN:358,_RNvMNtNtCshN9TtrzEz6i_22dual_core_pdf_pipeline2ai11pyo3_bridgeNtB2_8PyEngine19chunk_pdf_for_docai
FN:236,_RNvMNtNtCshN9TtrzEz6i_22dual_core_pdf_pipeline2ai11pyo3_bridgeNtB2_8PyEngine20get_all_transactions
FN:118,_RNvMNtNtCshN9TtrzEz6i_22dual_core_pdf_pipeline2ai11pyo3_bridgeNtB2_8PyEngine20replace_text_in_rect
FN:262,_RNvMNtNtCshN9TtrzEz6i_22dual_core_pdf_pipeline2ai11pyo3_bridgeNtB2_8PyEngine21deep_font_replication
FN:240,_RNvMNtNtCshN9TtrzEz6i_22dual_core_pdf_pipeline2ai11pyo3_bridgeNtB2_8PyEngine23analyze_document_layout
FN:220,_RNvMNtNtCshN9TtrzEz6i_22dual_core_pdf_pipeline2ai11pyo3_bridgeNtB2_8PyEngine24find_text_block_at_click
FN:248,_RNvMNtNtCshN9TtrzEz6i_22dual_core_pdf_pipeline2ai11pyo3_bridgeNtB2_8PyEngine27complete_font_with_adaption
FN:390,_RNvMNtNtCshN9TtrzEz6i_22dual_core_pdf_pipeline2ai11pyo3_bridgeNtB2_8PyEngine32replicate_font_for_missing_chars
FN:10,_RNvMNtNtCshN9TtrzEz6i_22dual_core_pdf_pipeline2ai11pyo3_bridgeNtB2_8PyEngine4init
FN:64,_RNCINvMNtNtCsdGsEM3RpwG4_22dual_core_pdf_pipeline2ai11pyo3_bridgeNtB5_8PyEngine20safe_python_with_gilNCNvNtB5_5testss_31test_python_gil_lock_simulation0uE0B9_
FN:64,_RNCINvMNtNtCsdGsEM3RpwG4_22dual_core_pdf_pipeline2ai11pyo3_bridgeNtB5_8PyEngine20safe_python_with_gilNCNvNtB5_5testss_31test_python_panic_safely_caught0uE0B9_
FN:64,_RNCINvMNtNtCsdGsEM3RpwG4_22dual_core_pdf_pipeline2ai11pyo3_bridgeNtB5_8PyEngine20safe_python_with_gilNCNvNtB5_5testss_49test_python_exception_safely_mapped_to_rust_error0uE0B9_
FN:520,_RNCNCNvNtNtNtCsdGsEM3RpwG4_22dual_core_pdf_pipeline2ai11pyo3_bridge5testss_31test_python_gil_lock_simulation00Bb_
FN:470,_RNCNCNvNtNtNtCsdGsEM3RpwG4_22dual_core_pdf_pipeline2ai11pyo3_bridge5testss_49test_python_exception_safely_mapped_to_rust_error00Bb_
FN:514,_RNCNvNtNtNtCsdGsEM3RpwG4_22dual_core_pdf_pipeline2ai11pyo3_bridge5testss_31test_python_gil_lock_simulation0B9_
FN:489,_RNCNvNtNtNtCsdGsEM3RpwG4_22dual_core_pdf_pipeline2ai11pyo3_bridge5testss_31test_python_panic_safely_caught0B9_
FN:463,_RNCNvNtNtNtCsdGsEM3RpwG4_22dual_core_pdf_pipeline2ai11pyo3_bridge5testss_49test_python_exception_safely_mapped_to_rust_error0B9_
FN:88,_RINvMNtNtCsdGsEM3RpwG4_22dual_core_pdf_pipeline2ai11pyo3_bridgeNtB3_8PyEngine9call_jsonpEB7_
FN:95,_RNCINvMNtNtCsdGsEM3RpwG4_22dual_core_pdf_pipeline2ai11pyo3_bridgeNtB5_8PyEngine9call_jsonpE0B9_
FN:98,_RNCINvMNtNtCsdGsEM3RpwG4_22dual_core_pdf_pipeline2ai11pyo3_bridgeNtB5_8PyEngine9call_jsonpEs0_0B9_
FN:99,_RNCINvMNtNtCsdGsEM3RpwG4_22dual_core_pdf_pipeline2ai11pyo3_bridgeNtB5_8PyEngine9call_jsonpEs1_0B9_
FN:102,_RNCINvMNtNtCsdGsEM3RpwG4_22dual_core_pdf_pipeline2ai11pyo3_bridgeNtB5_8PyEngine9call_jsonpEs2_0B9_
FN:104,_RNCINvMNtNtCsdGsEM3RpwG4_22dual_core_pdf_pipeline2ai11pyo3_bridgeNtB5_8PyEngine9call_jsonpEs3_0B9_
FN:96,_RNCINvMNtNtCsdGsEM3RpwG4_22dual_core_pdf_pipeline2ai11pyo3_bridgeNtB5_8PyEngine9call_jsonpEs_0B9_
FN:294,_RNCNCNvMNtNtCsdGsEM3RpwG4_22dual_core_pdf_pipeline2ai11pyo3_bridgeNtB6_8PyEngine16apply_many_edits00Ba_
FN:298,_RNCNCNvMNtNtCsdGsEM3RpwG4_22dual_core_pdf_pipeline2ai11pyo3_bridgeNtB6_8PyEngine16apply_many_edits0s0_0Ba_
FN:301,_RNCNCNvMNtNtCsdGsEM3RpwG4_22dual_core_pdf_pipeline2ai11pyo3_bridgeNtB6_8PyEngine16apply_many_edits0s1_0Ba_
FN:306,_RNCNCNvMNtNtCsdGsEM3RpwG4_22dual_core_pdf_pipeline2ai11pyo3_bridgeNtB6_8PyEngine16apply_many_edits0s2_0Ba_
FN:310,_RNCNCNvMNtNtCsdGsEM3RpwG4_22dual_core_pdf_pipeline2ai11pyo3_bridgeNtB6_8PyEngine16apply_many_edits0s3_0Ba_
FN:313,_RNCNCNvMNtNtCsdGsEM3RpwG4_22dual_core_pdf_pipeline2ai11pyo3_bridgeNtB6_8PyEngine16apply_many_edits0s4_0Ba_
FN:316,_RNCNCNvMNtNtCsdGsEM3RpwG4_22dual_core_pdf_pipeline2ai11pyo3_bridgeNtB6_8PyEngine16apply_many_edits0s5_0Ba_
FN:320,_RNCNCNvMNtNtCsdGsEM3RpwG4_22dual_core_pdf_pipeline2ai11pyo3_bridgeNtB6_8PyEngine16apply_many_edits0s6_0Ba_
FN:326,_RNCNCNvMNtNtCsdGsEM3RpwG4_22dual_core_pdf_pipeline2ai11pyo3_bridgeNtB6_8PyEngine16apply_many_edits0s7_0Ba_
FN:329,_RNCNCNvMNtNtCsdGsEM3RpwG4_22dual_core_pdf_pipeline2ai11pyo3_bridgeNtB6_8PyEngine16apply_many_edits0s8_0Ba_
FN:331,_RNCNCNvMNtNtCsdGsEM3RpwG4_22dual_core_pdf_pipeline2ai11pyo3_bridgeNtB6_8PyEngine16apply_many_edits0s9_0Ba_
FN:295,_RNCNCNvMNtNtCsdGsEM3RpwG4_22dual_core_pdf_pipeline2ai11pyo3_bridgeNtB6_8PyEngine16apply_many_edits0s_0Ba_
FN:131,_RNCNCNvMNtNtCsdGsEM3RpwG4_22dual_core_pdf_pipeline2ai11pyo3_bridgeNtB6_8PyEngine20replace_text_in_rect00Ba_
FN:138,_RNCNCNvMNtNtCsdGsEM3RpwG4_22dual_core_pdf_pipeline2ai11pyo3_bridgeNtB6_8PyEngine20replace_text_in_rect0s0_0Ba_
FN:150,_RNCNCNvMNtNtCsdGsEM3RpwG4_22dual_core_pdf_pipeline2ai11pyo3_bridgeNtB6_8PyEngine20replace_text_in_rect0s1_0Ba_
FN:154,_RNCNCNvMNtNtCsdGsEM3RpwG4_22dual_core_pdf_pipeline2ai11pyo3_bridgeNtB6_8PyEngine20replace_text_in_rect0s2_0Ba_
FN:157,_RNCNCNvMNtNtCsdGsEM3RpwG4_22dual_core_pdf_pipeline2ai11pyo3_bridgeNtB6_8PyEngine20replace_text_in_rect0s3_0Ba_
FN:160,_RNCNCNvMNtNtCsdGsEM3RpwG4_22dual_core_pdf_pipeline2ai11pyo3_bridgeNtB6_8PyEngine20replace_text_in_rect0s4_0Ba_
FN:163,_RNCNCNvMNtNtCsdGsEM3RpwG4_22dual_core_pdf_pipeline2ai11pyo3_bridgeNtB6_8PyEngine20replace_text_in_rect0s5_0Ba_
FN:166,_RNCNCNvMNtNtCsdGsEM3RpwG4_22dual_core_pdf_pipeline2ai11pyo3_bridgeNtB6_8PyEngine20replace_text_in_rect0s6_0Ba_
FN:169,_RNCNCNvMNtNtCsdGsEM3RpwG4_22dual_core_pdf_pipeline2ai11pyo3_bridgeNtB6_8PyEngine20replace_text_in_rect0s7_0Ba_
FN:173,_RNCNCNvMNtNtCsdGsEM3RpwG4_22dual_core_pdf_pipeline2ai11pyo3_bridgeNtB6_8PyEngine20replace_text_in_rect0s8_0Ba_
FN:187,_RNCNCNvMNtNtCsdGsEM3RpwG4_22dual_core_pdf_pipeline2ai11pyo3_bridgeNtB6_8PyEngine20replace_text_in_rect0s9_0Ba_
FN:134,_RNCNCNvMNtNtCsdGsEM3RpwG4_22dual_core_pdf_pipeline2ai11pyo3_bridgeNtB6_8PyEngine20replace_text_in_rect0s_0Ba_
FN:188,_RNCNCNvMNtNtCsdGsEM3RpwG4_22dual_core_pdf_pipeline2ai11pyo3_bridgeNtB6_8PyEngine20replace_text_in_rect0sa_0Ba_
FN:191,_RNCNCNvMNtNtCsdGsEM3RpwG4_22dual_core_pdf_pipeline2ai11pyo3_bridgeNtB6_8PyEngine20replace_text_in_rect0sb_0Ba_
FN:23,_RNCNCNvMNtNtCsdGsEM3RpwG4_22dual_core_pdf_pipeline2ai11pyo3_bridgeNtB6_8PyEngine4init00Ba_
FN:27,_RNCNCNvMNtNtCsdGsEM3RpwG4_22dual_core_pdf_pipeline2ai11pyo3_bridgeNtB6_8PyEngine4init0s0_0Ba_
FN:45,_RNCNCNvMNtNtCsdGsEM3RpwG4_22dual_core_pdf_pipeline2ai11pyo3_bridgeNtB6_8PyEngine4init0s1_0Ba_
FN:47,_RNCNCNvMNtNtCsdGsEM3RpwG4_22dual_core_pdf_pipeline2ai11pyo3_bridgeNtB6_8PyEngine4init0s2_0Ba_
FN:49,_RNCNCNvMNtNtCsdGsEM3RpwG4_22dual_core_pdf_pipeline2ai11pyo3_bridgeNtB6_8PyEngine4init0s3_0Ba_
FN:24,_RNCNCNvMNtNtCsdGsEM3RpwG4_22dual_core_pdf_pipeline2ai11pyo3_bridgeNtB6_8PyEngine4init0s_0Ba_
FN:412,_RNCNvMNtNtCsdGsEM3RpwG4_22dual_core_pdf_pipeline2ai11pyo3_bridgeNtB4_8PyEngine11clone_pages0B8_
FN:245,_RNCNvMNtNtCsdGsEM3RpwG4_22dual_core_pdf_pipeline2ai11pyo3_bridgeNtB4_8PyEngine12extract_font0B8_
FN:438,_RNCNvMNtNtCsdGsEM3RpwG4_22dual_core_pdf_pipeline2ai11pyo3_bridgeNtB4_8PyEngine12remove_pages0B8_
FN:377,_RNCNvMNtNtCsdGsEM3RpwG4_22dual_core_pdf_pipeline2ai11pyo3_bridgeNtB4_8PyEngine13analyze_fonts0B8_
FN:450,_RNCNvMNtNtCsdGsEM3RpwG4_22dual_core_pdf_pipeline2ai11pyo3_bridgeNtB4_8PyEngine15garbage_collect0B8_
FN:115,_RNCNvMNtNtCsdGsEM3RpwG4_22dual_core_pdf_pipeline2ai11pyo3_bridgeNtB4_8PyEngine15get_text_blocks0B8_
FN:293,_RNCNvMNtNtCsdGsEM3RpwG4_22dual_core_pdf_pipeline2ai11pyo3_bridgeNtB4_8PyEngine16apply_many_edits0B8_
FN:427,_RNCNvMNtNtCsdGsEM3RpwG4_22dual_core_pdf_pipeline2ai11pyo3_bridgeNtB4_8PyEngine18render_page_to_png0B8_
FN:364,_RNCNvMNtNtCsdGsEM3RpwG4_22dual_core_pdf_pipeline2ai11pyo3_bridgeNtB4_8PyEngine19chunk_pdf_for_docai0B8_
FN:237,_RNCNvMNtNtCsdGsEM3RpwG4_22dual_core_pdf_pipeline2ai11pyo3_bridgeNtB4_8PyEngine20get_all_transactions0B8_
FN:127,_RNCNvMNtNtCsdGsEM3RpwG4_22dual_core_pdf_pipeline2ai11pyo3_bridgeNtB4_8PyEngine20replace_text_in_rect0B8_
FN:268,_RNCNvMNtNtCsdGsEM3RpwG4_22dual_core_pdf_pipeline2ai11pyo3_bridgeNtB4_8PyEngine21deep_font_replication0B8_
FN:241,_RNCNvMNtNtCsdGsEM3RpwG4_22dual_core_pdf_pipeline2ai11pyo3_bridgeNtB4_8PyEngine23analyze_document_layout0B8_
FN:227,_RNCNvMNtNtCsdGsEM3RpwG4_22dual_core_pdf_pipeline2ai11pyo3_bridgeNtB4_8PyEngine24find_text_block_at_click0B8_
FN:253,_RNCNvMNtNtCsdGsEM3RpwG4_22dual_core_pdf_pipeline2ai11pyo3_bridgeNtB4_8PyEngine27complete_font_with_adaption0B8_
FN:397,_RNCNvMNtNtCsdGsEM3RpwG4_22dual_core_pdf_pipeline2ai11pyo3_bridgeNtB4_8PyEngine32replicate_font_for_missing_chars0B8_
FN:16,_RNCNvMNtNtCsdGsEM3RpwG4_22dual_core_pdf_pipeline2ai11pyo3_bridgeNtB4_8PyEngine4init0B8_
FN:406,_RNvMNtNtCsdGsEM3RpwG4_22dual_core_pdf_pipeline2ai11pyo3_bridgeNtB2_8PyEngine11clone_pages
FN:244,_RNvMNtNtCsdGsEM3RpwG4_22dual_core_pdf_pipeline2ai11pyo3_bridgeNtB2_8PyEngine12extract_font
FN:432,_RNvMNtNtCsdGsEM3RpwG4_22dual_core_pdf_pipeline2ai11pyo3_bridgeNtB2_8PyEngine12remove_pages
FN:376,_RNvMNtNtCsdGsEM3RpwG4_22dual_core_pdf_pipeline2ai11pyo3_bridgeNtB2_8PyEngine13analyze_fonts
FN:449,_RNvMNtNtCsdGsEM3RpwG4_22dual_core_pdf_pipeline2ai11pyo3_bridgeNtB2_8PyEngine15garbage_collect
FN:109,_RNvMNtNtCsdGsEM3RpwG4_22dual_core_pdf_pipeline2ai11pyo3_bridgeNtB2_8PyEngine15get_text_blocks
FN:286,_RNvMNtNtCsdGsEM3RpwG4_22dual_core_pdf_pipeline2ai11pyo3_bridgeNtB2_8PyEngine16apply_many_edits
FN:421,_RNvMNtNtCsdGsEM3RpwG4_22dual_core_pdf_pipeline2ai11pyo3_bridgeNtB2_8PyEngine18render_page_to_png
FN:358,_RNvMNtNtCsdGsEM3RpwG4_22dual_core_pdf_pipeline2ai11pyo3_bridgeNtB2_8PyEngine19chunk_pdf_for_docai
FN:236,_RNvMNtNtCsdGsEM3RpwG4_22dual_core_pdf_pipeline2ai11pyo3_bridgeNtB2_8PyEngine20get_all_transactions
FN:118,_RNvMNtNtCsdGsEM3RpwG4_22dual_core_pdf_pipeline2ai11pyo3_bridgeNtB2_8PyEngine20replace_text_in_rect
FN:262,_RNvMNtNtCsdGsEM3RpwG4_22dual_core_pdf_pipeline2ai11pyo3_bridgeNtB2_8PyEngine21deep_font_replication
FN:240,_RNvMNtNtCsdGsEM3RpwG4_22dual_core_pdf_pipeline2ai11pyo3_bridgeNtB2_8PyEngine23analyze_document_layout
FN:220,_RNvMNtNtCsdGsEM3RpwG4_22dual_core_pdf_pipeline2ai11pyo3_bridgeNtB2_8PyEngine24find_text_block_at_click
FN:248,_RNvMNtNtCsdGsEM3RpwG4_22dual_core_pdf_pipeline2ai11pyo3_bridgeNtB2_8PyEngine27complete_font_with_adaption
FN:390,_RNvMNtNtCsdGsEM3RpwG4_22dual_core_pdf_pipeline2ai11pyo3_bridgeNtB2_8PyEngine32replicate_font_for_missing_chars
FN:10,_RNvMNtNtCsdGsEM3RpwG4_22dual_core_pdf_pipeline2ai11pyo3_bridgeNtB2_8PyEngine4init
FN:510,_RNvNtNtNtCsdGsEM3RpwG4_22dual_core_pdf_pipeline2ai11pyo3_bridge5testss_31test_python_gil_lock_simulation
FN:487,_RNvNtNtNtCsdGsEM3RpwG4_22dual_core_pdf_pipeline2ai11pyo3_bridge5testss_31test_python_panic_safely_caught
FN:461,_RNvNtNtNtCsdGsEM3RpwG4_22dual_core_pdf_pipeline2ai11pyo3_bridge5testss_49test_python_exception_safely_mapped_to_rust_error
FN:59,_RINvMNtNtCsdGsEM3RpwG4_22dual_core_pdf_pipeline2ai11pyo3_bridgeNtB3_8PyEngine20safe_python_with_gilNCNvNtB3_5testss_31test_python_gil_lock_simulation0uEB7_
FN:59,_RINvMNtNtCsdGsEM3RpwG4_22dual_core_pdf_pipeline2ai11pyo3_bridgeNtB3_8PyEngine20safe_python_with_gilNCNvNtB3_5testss_31test_python_panic_safely_caught0uEB7_
FN:59,_RINvMNtNtCsdGsEM3RpwG4_22dual_core_pdf_pipeline2ai11pyo3_bridgeNtB3_8PyEngine20safe_python_with_gilNCNvNtB3_5testss_49test_python_exception_safely_mapped_to_rust_error0uEB7_
FNDA:0,_RINvMNtNtCshN9TtrzEz6i_22dual_core_pdf_pipeline2ai11pyo3_bridgeNtB3_8PyEngine20safe_python_with_gilNCNvB2_11clone_pages0NtNtCsiTraAjBDcu4_5alloc6string6StringEB7_
FNDA:1,_RINvMNtNtCshN9TtrzEz6i_22dual_core_pdf_pipeline2ai11pyo3_bridgeNtB3_8PyEngine20safe_python_with_gilNCNvB2_12extract_font0NtNtCsiTraAjBDcu4_5alloc6string6StringEB7_
FNDA:0,_RINvMNtNtCshN9TtrzEz6i_22dual_core_pdf_pipeline2ai11pyo3_bridgeNtB3_8PyEngine20safe_python_with_gilNCNvB2_12remove_pages0NtNtCsiTraAjBDcu4_5alloc6string6StringEB7_
FNDA:1,_RINvMNtNtCshN9TtrzEz6i_22dual_core_pdf_pipeline2ai11pyo3_bridgeNtB3_8PyEngine20safe_python_with_gilNCNvB2_13analyze_fonts0NtNtCsiTraAjBDcu4_5alloc6string6StringEB7_
FNDA:8,_RINvMNtNtCshN9TtrzEz6i_22dual_core_pdf_pipeline2ai11pyo3_bridgeNtB3_8PyEngine20safe_python_with_gilNCNvB2_15get_text_blocks0NtNtCsiTraAjBDcu4_5alloc6string6StringEB7_
FNDA:0,_RINvMNtNtCshN9TtrzEz6i_22dual_core_pdf_pipeline2ai11pyo3_bridgeNtB3_8PyEngine20safe_python_with_gilNCNvB2_16apply_many_edits0NtNtCsiTraAjBDcu4_5alloc6string6StringEB7_
FNDA:0,_RINvMNtNtCshN9TtrzEz6i_22dual_core_pdf_pipeline2ai11pyo3_bridgeNtB3_8PyEngine20safe_python_with_gilNCNvB2_18render_page_to_png0NtNtCsiTraAjBDcu4_5alloc6string6StringEB7_
FNDA:0,_RINvMNtNtCshN9TtrzEz6i_22dual_core_pdf_pipeline2ai11pyo3_bridgeNtB3_8PyEngine20safe_python_with_gilNCNvB2_19chunk_pdf_for_docai0NtNtCsiTraAjBDcu4_5alloc6string6StringEB7_
FNDA:0,_RINvMNtNtCshN9TtrzEz6i_22dual_core_pdf_pipeline2ai11pyo3_bridgeNtB3_8PyEngine20safe_python_with_gilNCNvB2_20get_all_transactions0NtNtCsiTraAjBDcu4_5alloc6string6StringEB7_
FNDA:2,_RINvMNtNtCshN9TtrzEz6i_22dual_core_pdf_pipeline2ai11pyo3_bridgeNtB3_8PyEngine20safe_python_with_gilNCNvB2_20replace_text_in_rect0INtNtCsaNl6UpbT7bw_4core6option6OptionNtNtCsiTraAjBDcu4_5alloc6string6StringEEB7_
FNDA:0,_RINvMNtNtCshN9TtrzEz6i_22dual_core_pdf_pipeline2ai11pyo3_bridgeNtB3_8PyEngine20safe_python_with_gilNCNvB2_21deep_font_replication0NtNtCsiTraAjBDcu4_5alloc6string6StringEB7_
FNDA:7,_RINvMNtNtCshN9TtrzEz6i_22dual_core_pdf_pipeline2ai11pyo3_bridgeNtB3_8PyEngine20safe_python_with_gilNCNvB2_23analyze_document_layout0NtNtCsiTraAjBDcu4_5alloc6string6StringEB7_
FNDA:0,_RINvMNtNtCshN9TtrzEz6i_22dual_core_pdf_pipeline2ai11pyo3_bridgeNtB3_8PyEngine20safe_python_with_gilNCNvB2_24find_text_block_at_click0NtNtCsiTraAjBDcu4_5alloc6string6StringEB7_
FNDA:0,_RINvMNtNtCshN9TtrzEz6i_22dual_core_pdf_pipeline2ai11pyo3_bridgeNtB3_8PyEngine20safe_python_with_gilNCNvB2_27complete_font_with_adaption0NtNtCsiTraAjBDcu4_5alloc6string6StringEB7_
FNDA:0,_RINvMNtNtCshN9TtrzEz6i_22dual_core_pdf_pipeline2ai11pyo3_bridgeNtB3_8PyEngine20safe_python_with_gilNCNvB2_32replicate_font_for_missing_chars0NtNtCsiTraAjBDcu4_5alloc6string6StringEB7_
FNDA:16,_RINvMNtNtCshN9TtrzEz6i_22dual_core_pdf_pipeline2ai11pyo3_bridgeNtB3_8PyEngine20safe_python_with_gilNCNvB2_4init0BZ_EB7_
FNDA:0,_RINvMNtNtCshN9TtrzEz6i_22dual_core_pdf_pipeline2ai11pyo3_bridgeNtB3_8PyEngine9call_jsonTReB1o_B1o_B1o_EEB7_
FNDA:0,_RINvMNtNtCshN9TtrzEz6i_22dual_core_pdf_pipeline2ai11pyo3_bridgeNtB3_8PyEngine9call_jsonTReB1o_B1o_EEB7_
FNDA:1,_RINvMNtNtCshN9TtrzEz6i_22dual_core_pdf_pipeline2ai11pyo3_bridgeNtB3_8PyEngine9call_jsonTReB1o_EEB7_
FNDA:0,_RINvMNtNtCshN9TtrzEz6i_22dual_core_pdf_pipeline2ai11pyo3_bridgeNtB3_8PyEngine9call_jsonTReB1o_INtNtCsiTraAjBDcu4_5alloc3vec3VecjEEEB7_
FNDA:0,_RINvMNtNtCshN9TtrzEz6i_22dual_core_pdf_pipeline2ai11pyo3_bridgeNtB3_8PyEngine9call_jsonTReB1o_jEEB7_
FNDA:8,_RINvMNtNtCshN9TtrzEz6i_22dual_core_pdf_pipeline2ai11pyo3_bridgeNtB3_8PyEngine9call_jsonTReEEB7_
FNDA:8,_RINvMNtNtCshN9TtrzEz6i_22dual_core_pdf_pipeline2ai11pyo3_bridgeNtB3_8PyEngine9call_jsonTRejEEB7_
FNDA:0,_RINvMNtNtCshN9TtrzEz6i_22dual_core_pdf_pipeline2ai11pyo3_bridgeNtB3_8PyEngine9call_jsonTRejfEEB7_
FNDA:0,_RINvMNtNtCshN9TtrzEz6i_22dual_core_pdf_pipeline2ai11pyo3_bridgeNtB3_8PyEngine9call_jsonTRejffdEEB7_
FNDA:0,_RNCINvMNtNtCshN9TtrzEz6i_22dual_core_pdf_pipeline2ai11pyo3_bridgeNtB5_8PyEngine9call_jsonTReB1q_B1q_B1q_EE0B9_
FNDA:0,_RNCINvMNtNtCshN9TtrzEz6i_22dual_core_pdf_pipeline2ai11pyo3_bridgeNtB5_8PyEngine9call_jsonTReB1q_B1q_B1q_EEs0_0B9_
FNDA:0,_RNCINvMNtNtCshN9TtrzEz6i_22dual_core_pdf_pipeline2ai11pyo3_bridgeNtB5_8PyEngine9call_jsonTReB1q_B1q_B1q_EEs1_0B9_
FNDA:0,_RNCINvMNtNtCshN9TtrzEz6i_22dual_core_pdf_pipeline2ai11pyo3_bridgeNtB5_8PyEngine9call_jsonTReB1q_B1q_B1q_EEs2_0B9_
FNDA:0,_RNCINvMNtNtCshN9TtrzEz6i_22dual_core_pdf_pipeline2ai11pyo3_bridgeNtB5_8PyEngine9call_jsonTReB1q_B1q_B1q_EEs3_0B9_
FNDA:0,_RNCINvMNtNtCshN9TtrzEz6i_22dual_core_pdf_pipeline2ai11pyo3_bridgeNtB5_8PyEngine9call_jsonTReB1q_B1q_B1q_EEs_0B9_
FNDA:0,_RNCINvMNtNtCshN9TtrzEz6i_22dual_core_pdf_pipeline2ai11pyo3_bridgeNtB5_8PyEngine9call_jsonTReB1q_B1q_EE0B9_
FNDA:0,_RNCINvMNtNtCshN9TtrzEz6i_22dual_core_pdf_pipeline2ai11pyo3_bridgeNtB5_8PyEngine9call_jsonTReB1q_B1q_EEs0_0B9_
FNDA:0,_RNCINvMNtNtCshN9TtrzEz6i_22dual_core_pdf_pipeline2ai11pyo3_bridgeNtB5_8PyEngine9call_jsonTReB1q_B1q_EEs1_0B9_
FNDA:0,_RNCINvMNtNtCshN9TtrzEz6i_22dual_core_pdf_pipeline2ai11pyo3_bridgeNtB5_8PyEngine9call_jsonTReB1q_B1q_EEs2_0B9_
FNDA:0,_RNCINvMNtNtCshN9TtrzEz6i_22dual_core_pdf_pipeline2ai11pyo3_bridgeNtB5_8PyEngine9call_jsonTReB1q_B1q_EEs3_0B9_
FNDA:0,_RNCINvMNtNtCshN9TtrzEz6i_22dual_core_pdf_pipeline2ai11pyo3_bridgeNtB5_8PyEngine9call_jsonTReB1q_B1q_EEs_0B9_
FNDA:0,_RNCINvMNtNtCshN9TtrzEz6i_22dual_core_pdf_pipeline2ai11pyo3_bridgeNtB5_8PyEngine9call_jsonTReB1q_EE0B9_
FNDA:0,_RNCINvMNtNtCshN9TtrzEz6i_22dual_core_pdf_pipeline2ai11pyo3_bridgeNtB5_8PyEngine9call_jsonTReB1q_EEs0_0B9_
FNDA:0,_RNCINvMNtNtCshN9TtrzEz6i_22dual_core_pdf_pipeline2ai11pyo3_bridgeNtB5_8PyEngine9call_jsonTReB1q_EEs1_0B9_
FNDA:0,_RNCINvMNtNtCshN9TtrzEz6i_22dual_core_pdf_pipeline2ai11pyo3_bridgeNtB5_8PyEngine9call_jsonTReB1q_EEs2_0B9_
FNDA:0,_RNCINvMNtNtCshN9TtrzEz6i_22dual_core_pdf_pipeline2ai11pyo3_bridgeNtB5_8PyEngine9call_jsonTReB1q_EEs3_0B9_
FNDA:1,_RNCINvMNtNtCshN9TtrzEz6i_22dual_core_pdf_pipeline2ai11pyo3_bridgeNtB5_8PyEngine9call_jsonTReB1q_EEs_0B9_
FNDA:0,_RNCINvMNtNtCshN9TtrzEz6i_22dual_core_pdf_pipeline2ai11pyo3_bridgeNtB5_8PyEngine9call_jsonTReB1q_INtNtCsiTraAjBDcu4_5alloc3vec3VecjEEE0B9_
FNDA:0,_RNCINvMNtNtCshN9TtrzEz6i_22dual_core_pdf_pipeline2ai11pyo3_bridgeNtB5_8PyEngine9call_jsonTReB1q_INtNtCsiTraAjBDcu4_5alloc3vec3VecjEEEs0_0B9_
FNDA:0,_RNCINvMNtNtCshN9TtrzEz6i_22dual_core_pdf_pipeline2ai11pyo3_bridgeNtB5_8PyEngine9call_jsonTReB1q_INtNtCsiTraAjBDcu4_5alloc3vec3VecjEEEs1_0B9_
FNDA:0,_RNCINvMNtNtCshN9TtrzEz6i_22dual_core_pdf_pipeline2ai11pyo3_bridgeNtB5_8PyEngine9call_jsonTReB1q_INtNtCsiTraAjBDcu4_5alloc3vec3VecjEEEs2_0B9_
FNDA:0,_RNCINvMNtNtCshN9TtrzEz6i_22dual_core_pdf_pipeline2ai11pyo3_bridgeNtB5_8PyEngine9call_jsonTReB1q_INtNtCsiTraAjBDcu4_5alloc3vec3VecjEEEs3_0B9_
FNDA:0,_RNCINvMNtNtCshN9TtrzEz6i_22dual_core_pdf_pipeline2ai11pyo3_bridgeNtB5_8PyEngine9call_jsonTReB1q_INtNtCsiTraAjBDcu4_5alloc3vec3VecjEEEs_0B9_
FNDA:0,_RNCINvMNtNtCshN9TtrzEz6i_22dual_core_pdf_pipeline2ai11pyo3_bridgeNtB5_8PyEngine9call_jsonTReB1q_jEE0B9_
FNDA:0,_RNCINvMNtNtCshN9TtrzEz6i_22dual_core_pdf_pipeline2ai11pyo3_bridgeNtB5_8PyEngine9call_jsonTReB1q_jEEs0_0B9_
FNDA:0,_RNCINvMNtNtCshN9TtrzEz6i_22dual_core_pdf_pipeline2ai11pyo3_bridgeNtB5_8PyEngine9call_jsonTReB1q_jEEs1_0B9_
FNDA:0,_RNCINvMNtNtCshN9TtrzEz6i_22dual_core_pdf_pipeline2ai11pyo3_bridgeNtB5_8PyEngine9call_jsonTReB1q_jEEs2_0B9_
FNDA:0,_RNCINvMNtNtCshN9TtrzEz6i_22dual_core_pdf_pipeline2ai11pyo3_bridgeNtB5_8PyEngine9call_jsonTReB1q_jEEs3_0B9_
FNDA:0,_RNCINvMNtNtCshN9TtrzEz6i_22dual_core_pdf_pipeline2ai11pyo3_bridgeNtB5_8PyEngine9call_jsonTReB1q_jEEs_0B9_
FNDA:0,_RNCINvMNtNtCshN9TtrzEz6i_22dual_core_pdf_pipeline2ai11pyo3_bridgeNtB5_8PyEngine9call_jsonTReEE0B9_
FNDA:0,_RNCINvMNtNtCshN9TtrzEz6i_22dual_core_pdf_pipeline2ai11pyo3_bridgeNtB5_8PyEngine9call_jsonTReEEs0_0B9_
FNDA:0,_RNCINvMNtNtCshN9TtrzEz6i_22dual_core_pdf_pipeline2ai11pyo3_bridgeNtB5_8PyEngine9call_jsonTReEEs1_0B9_
FNDA:0,_RNCINvMNtNtCshN9TtrzEz6i_22dual_core_pdf_pipeline2ai11pyo3_bridgeNtB5_8PyEngine9call_jsonTReEEs2_0B9_
FNDA:0,_RNCINvMNtNtCshN9TtrzEz6i_22dual_core_pdf_pipeline2ai11pyo3_bridgeNtB5_8PyEngine9call_jsonTReEEs3_0B9_
FNDA:0,_RNCINvMNtNtCshN9TtrzEz6i_22dual_core_pdf_pipeline2ai11pyo3_bridgeNtB5_8PyEngine9call_jsonTReEEs_0B9_
FNDA:0,_RNCINvMNtNtCshN9TtrzEz6i_22dual_core_pdf_pipeline2ai11pyo3_bridgeNtB5_8PyEngine9call_jsonTRejEE0B9_
FNDA:0,_RNCINvMNtNtCshN9TtrzEz6i_22dual_core_pdf_pipeline2ai11pyo3_bridgeNtB5_8PyEngine9call_jsonTRejEEs0_0B9_
FNDA:0,_RNCINvMNtNtCshN9TtrzEz6i_22dual_core_pdf_pipeline2ai11pyo3_bridgeNtB5_8PyEngine9call_jsonTRejEEs1_0B9_
FNDA:0,_RNCINvMNtNtCshN9TtrzEz6i_22dual_core_pdf_pipeline2ai11pyo3_bridgeNtB5_8PyEngine9call_jsonTRejEEs2_0B9_
FNDA:0,_RNCINvMNtNtCshN9TtrzEz6i_22dual_core_pdf_pipeline2ai11pyo3_bridgeNtB5_8PyEngine9call_jsonTRejEEs3_0B9_
FNDA:0,_RNCINvMNtNtCshN9TtrzEz6i_22dual_core_pdf_pipeline2ai11pyo3_bridgeNtB5_8PyEngine9call_jsonTRejEEs_0B9_
FNDA:0,_RNCINvMNtNtCshN9TtrzEz6i_22dual_core_pdf_pipeline2ai11pyo3_bridgeNtB5_8PyEngine9call_jsonTRejfEE0B9_
FNDA:0,_RNCINvMNtNtCshN9TtrzEz6i_22dual_core_pdf_pipeline2ai11pyo3_bridgeNtB5_8PyEngine9call_jsonTRejfEEs0_0B9_
FNDA:0,_RNCINvMNtNtCshN9TtrzEz6i_22dual_core_pdf_pipeline2ai11pyo3_bridgeNtB5_8PyEngine9call_jsonTRejfEEs1_0B9_
FNDA:0,_RNCINvMNtNtCshN9TtrzEz6i_22dual_core_pdf_pipeline2ai11pyo3_bridgeNtB5_8PyEngine9call_jsonTRejfEEs2_0B9_
FNDA:0,_RNCINvMNtNtCshN9TtrzEz6i_22dual_core_pdf_pipeline2ai11pyo3_bridgeNtB5_8PyEngine9call_jsonTRejfEEs3_0B9_
FNDA:0,_RNCINvMNtNtCshN9TtrzEz6i_22dual_core_pdf_pipeline2ai11pyo3_bridgeNtB5_8PyEngine9call_jsonTRejfEEs_0B9_
FNDA:0,_RNCINvMNtNtCshN9TtrzEz6i_22dual_core_pdf_pipeline2ai11pyo3_bridgeNtB5_8PyEngine9call_jsonTRejffdEE0B9_
FNDA:0,_RNCINvMNtNtCshN9TtrzEz6i_22dual_core_pdf_pipeline2ai11pyo3_bridgeNtB5_8PyEngine9call_jsonTRejffdEEs0_0B9_
FNDA:0,_RNCINvMNtNtCshN9TtrzEz6i_22dual_core_pdf_pipeline2ai11pyo3_bridgeNtB5_8PyEngine9call_jsonTRejffdEEs1_0B9_
FNDA:0,_RNCINvMNtNtCshN9TtrzEz6i_22dual_core_pdf_pipeline2ai11pyo3_bridgeNtB5_8PyEngine9call_jsonTRejffdEEs2_0B9_
FNDA:0,_RNCINvMNtNtCshN9TtrzEz6i_22dual_core_pdf_pipeline2ai11pyo3_bridgeNtB5_8PyEngine9call_jsonTRejffdEEs3_0B9_
FNDA:0,_RNCINvMNtNtCshN9TtrzEz6i_22dual_core_pdf_pipeline2ai11pyo3_bridgeNtB5_8PyEngine9call_jsonTRejffdEEs_0B9_
FNDA:0,_RNCINvMNtNtCshN9TtrzEz6i_22dual_core_pdf_pipeline2ai11pyo3_bridgeNtB5_8PyEngine20safe_python_with_gilNCNvB4_11clone_pages0NtNtCsiTraAjBDcu4_5alloc6string6StringE0B9_
FNDA:1,_RNCINvMNtNtCshN9TtrzEz6i_22dual_core_pdf_pipeline2ai11pyo3_bridgeNtB5_8PyEngine20safe_python_with_gilNCNvB4_12extract_font0NtNtCsiTraAjBDcu4_5alloc6string6StringE0B9_
FNDA:0,_RNCINvMNtNtCshN9TtrzEz6i_22dual_core_pdf_pipeline2ai11pyo3_bridgeNtB5_8PyEngine20safe_python_with_gilNCNvB4_12remove_pages0NtNtCsiTraAjBDcu4_5alloc6string6StringE0B9_
FNDA:1,_RNCINvMNtNtCshN9TtrzEz6i_22dual_core_pdf_pipeline2ai11pyo3_bridgeNtB5_8PyEngine20safe_python_with_gilNCNvB4_13analyze_fonts0NtNtCsiTraAjBDcu4_5alloc6string6StringE0B9_
FNDA:8,_RNCINvMNtNtCshN9TtrzEz6i_22dual_core_pdf_pipeline2ai11pyo3_bridgeNtB5_8PyEngine20safe_python_with_gilNCNvB4_15get_text_blocks0NtNtCsiTraAjBDcu4_5alloc6string6StringE0B9_
FNDA:0,_RNCINvMNtNtCshN9TtrzEz6i_22dual_core_pdf_pipeline2ai11pyo3_bridgeNtB5_8PyEngine20safe_python_with_gilNCNvB4_16apply_many_edits0NtNtCsiTraAjBDcu4_5alloc6string6StringE0B9_
FNDA:0,_RNCINvMNtNtCshN9TtrzEz6i_22dual_core_pdf_pipeline2ai11pyo3_bridgeNtB5_8PyEngine20safe_python_with_gilNCNvB4_18render_page_to_png0NtNtCsiTraAjBDcu4_5alloc6string6StringE0B9_
FNDA:0,_RNCINvMNtNtCshN9TtrzEz6i_22dual_core_pdf_pipeline2ai11pyo3_bridgeNtB5_8PyEngine20safe_python_with_gilNCNvB4_19chunk_pdf_for_docai0NtNtCsiTraAjBDcu4_5alloc6string6StringE0B9_
FNDA:0,_RNCINvMNtNtCshN9TtrzEz6i_22dual_core_pdf_pipeline2ai11pyo3_bridgeNtB5_8PyEngine20safe_python_with_gilNCNvB4_20get_all_transactions0NtNtCsiTraAjBDcu4_5alloc6string6StringE0B9_
FNDA:2,_RNCINvMNtNtCshN9TtrzEz6i_22dual_core_pdf_pipeline2ai11pyo3_bridgeNtB5_8PyEngine20safe_python_with_gilNCNvB4_20replace_text_in_rect0INtNtCsaNl6UpbT7bw_4core6option6OptionNtNtCsiTraAjBDcu4_5alloc6string6StringEE0B9_
FNDA:0,_RNCINvMNtNtCshN9TtrzEz6i_22dual_core_pdf_pipeline2ai11pyo3_bridgeNtB5_8PyEngine20safe_python_with_gilNCNvB4_21deep_font_replication0NtNtCsiTraAjBDcu4_5alloc6string6StringE0B9_
FNDA:7,_RNCINvMNtNtCshN9TtrzEz6i_22dual_core_pdf_pipeline2ai11pyo3_bridgeNtB5_8PyEngine20safe_python_with_gilNCNvB4_23analyze_document_layout0NtNtCsiTraAjBDcu4_5alloc6string6StringE0B9_
FNDA:0,_RNCINvMNtNtCshN9TtrzEz6i_22dual_core_pdf_pipeline2ai11pyo3_bridgeNtB5_8PyEngine20safe_python_with_gilNCNvB4_24find_text_block_at_click0NtNtCsiTraAjBDcu4_5alloc6string6StringE0B9_
FNDA:0,_RNCINvMNtNtCshN9TtrzEz6i_22dual_core_pdf_pipeline2ai11pyo3_bridgeNtB5_8PyEngine20safe_python_with_gilNCNvB4_27complete_font_with_adaption0NtNtCsiTraAjBDcu4_5alloc6string6StringE0B9_
FNDA:0,_RNCINvMNtNtCshN9TtrzEz6i_22dual_core_pdf_pipeline2ai11pyo3_bridgeNtB5_8PyEngine20safe_python_with_gilNCNvB4_32replicate_font_for_missing_chars0NtNtCsiTraAjBDcu4_5alloc6string6StringE0B9_
FNDA:16,_RNCINvMNtNtCshN9TtrzEz6i_22dual_core_pdf_pipeline2ai11pyo3_bridgeNtB5_8PyEngine20safe_python_with_gilNCNvB4_4init0B11_E0B9_
FNDA:0,_RNCNCNvMNtNtCshN9TtrzEz6i_22dual_core_pdf_pipeline2ai11pyo3_bridgeNtB6_8PyEngine16apply_many_edits00Ba_
FNDA:0,_RNCNCNvMNtNtCshN9TtrzEz6i_22dual_core_pdf_pipeline2ai11pyo3_bridgeNtB6_8PyEngine16apply_many_edits0s0_0Ba_
FNDA:0,_RNCNCNvMNtNtCshN9TtrzEz6i_22dual_core_pdf_pipeline2ai11pyo3_bridgeNtB6_8PyEngine16apply_many_edits0s1_0Ba_
FNDA:0,_RNCNCNvMNtNtCshN9TtrzEz6i_22dual_core_pdf_pipeline2ai11pyo3_bridgeNtB6_8PyEngine16apply_many_edits0s2_0Ba_
FNDA:0,_RNCNCNvMNtNtCshN9TtrzEz6i_22dual_core_pdf_pipeline2ai11pyo3_bridgeNtB6_8PyEngine16apply_many_edits0s3_0Ba_
FNDA:0,_RNCNCNvMNtNtCshN9TtrzEz6i_22dual_core_pdf_pipeline2ai11pyo3_bridgeNtB6_8PyEngine16apply_many_edits0s4_0Ba_
FNDA:0,_RNCNCNvMNtNtCshN9TtrzEz6i_22dual_core_pdf_pipeline2ai11pyo3_bridgeNtB6_8PyEngine16apply_many_edits0s5_0Ba_
FNDA:0,_RNCNCNvMNtNtCshN9TtrzEz6i_22dual_core_pdf_pipeline2ai11pyo3_bridgeNtB6_8PyEngine16apply_many_edits0s6_0Ba_
FNDA:0,_RNCNCNvMNtNtCshN9TtrzEz6i_22dual_core_pdf_pipeline2ai11pyo3_bridgeNtB6_8PyEngine16apply_many_edits0s7_0Ba_
FNDA:0,_RNCNCNvMNtNtCshN9TtrzEz6i_22dual_core_pdf_pipeline2ai11pyo3_bridgeNtB6_8PyEngine16apply_many_edits0s8_0Ba_
FNDA:0,_RNCNCNvMNtNtCshN9TtrzEz6i_22dual_core_pdf_pipeline2ai11pyo3_bridgeNtB6_8PyEngine16apply_many_edits0s9_0Ba_
FNDA:0,_RNCNCNvMNtNtCshN9TtrzEz6i_22dual_core_pdf_pipeline2ai11pyo3_bridgeNtB6_8PyEngine16apply_many_edits0s_0Ba_
FNDA:0,_RNCNCNvMNtNtCshN9TtrzEz6i_22dual_core_pdf_pipeline2ai11pyo3_bridgeNtB6_8PyEngine20replace_text_in_rect00Ba_
FNDA:0,_RNCNCNvMNtNtCshN9TtrzEz6i_22dual_core_pdf_pipeline2ai11pyo3_bridgeNtB6_8PyEngine20replace_text_in_rect0s0_0Ba_
FNDA:0,_RNCNCNvMNtNtCshN9TtrzEz6i_22dual_core_pdf_pipeline2ai11pyo3_bridgeNtB6_8PyEngine20replace_text_in_rect0s1_0Ba_
FNDA:0,_RNCNCNvMNtNtCshN9TtrzEz6i_22dual_core_pdf_pipeline2ai11pyo3_bridgeNtB6_8PyEngine20replace_text_in_rect0s2_0Ba_
FNDA:0,_RNCNCNvMNtNtCshN9TtrzEz6i_22dual_core_pdf_pipeline2ai11pyo3_bridgeNtB6_8PyEngine20replace_text_in_rect0s3_0Ba_
FNDA:0,_RNCNCNvMNtNtCshN9TtrzEz6i_22dual_core_pdf_pipeline2ai11pyo3_bridgeNtB6_8PyEngine20replace_text_in_rect0s4_0Ba_
FNDA:0,_RNCNCNvMNtNtCshN9TtrzEz6i_22dual_core_pdf_pipeline2ai11pyo3_bridgeNtB6_8PyEngine20replace_text_in_rect0s5_0Ba_
FNDA:0,_RNCNCNvMNtNtCshN9TtrzEz6i_22dual_core_pdf_pipeline2ai11pyo3_bridgeNtB6_8PyEngine20replace_text_in_rect0s6_0Ba_
FNDA:0,_RNCNCNvMNtNtCshN9TtrzEz6i_22dual_core_pdf_pipeline2ai11pyo3_bridgeNtB6_8PyEngine20replace_text_in_rect0s7_0Ba_
FNDA:0,_RNCNCNvMNtNtCshN9TtrzEz6i_22dual_core_pdf_pipeline2ai11pyo3_bridgeNtB6_8PyEngine20replace_text_in_rect0s8_0Ba_
FNDA:2,_RNCNCNvMNtNtCshN9TtrzEz6i_22dual_core_pdf_pipeline2ai11pyo3_bridgeNtB6_8PyEngine20replace_text_in_rect0s9_0Ba_
FNDA:0,_RNCNCNvMNtNtCshN9TtrzEz6i_22dual_core_pdf_pipeline2ai11pyo3_bridgeNtB6_8PyEngine20replace_text_in_rect0s_0Ba_
FNDA:2,_RNCNCNvMNtNtCshN9TtrzEz6i_22dual_core_pdf_pipeline2ai11pyo3_bridgeNtB6_8PyEngine20replace_text_in_rect0sa_0Ba_
FNDA:0,_RNCNCNvMNtNtCshN9TtrzEz6i_22dual_core_pdf_pipeline2ai11pyo3_bridgeNtB6_8PyEngine20replace_text_in_rect0sb_0Ba_
FNDA:0,_RNCNCNvMNtNtCshN9TtrzEz6i_22dual_core_pdf_pipeline2ai11pyo3_bridgeNtB6_8PyEngine4init00Ba_
FNDA:0,_RNCNCNvMNtNtCshN9TtrzEz6i_22dual_core_pdf_pipeline2ai11pyo3_bridgeNtB6_8PyEngine4init0s0_0Ba_
FNDA:0,_RNCNCNvMNtNtCshN9TtrzEz6i_22dual_core_pdf_pipeline2ai11pyo3_bridgeNtB6_8PyEngine4init0s1_0Ba_
FNDA:0,_RNCNCNvMNtNtCshN9TtrzEz6i_22dual_core_pdf_pipeline2ai11pyo3_bridgeNtB6_8PyEngine4init0s2_0Ba_
FNDA:0,_RNCNCNvMNtNtCshN9TtrzEz6i_22dual_core_pdf_pipeline2ai11pyo3_bridgeNtB6_8PyEngine4init0s3_0Ba_
FNDA:0,_RNCNCNvMNtNtCshN9TtrzEz6i_22dual_core_pdf_pipeline2ai11pyo3_bridgeNtB6_8PyEngine4init0s_0Ba_
FNDA:0,_RNCNvMNtNtCshN9TtrzEz6i_22dual_core_pdf_pipeline2ai11pyo3_bridgeNtB4_8PyEngine11clone_pages0B8_
FNDA:1,_RNCNvMNtNtCshN9TtrzEz6i_22dual_core_pdf_pipeline2ai11pyo3_bridgeNtB4_8PyEngine12extract_font0B8_
FNDA:0,_RNCNvMNtNtCshN9TtrzEz6i_22dual_core_pdf_pipeline2ai11pyo3_bridgeNtB4_8PyEngine12remove_pages0B8_
FNDA:1,_RNCNvMNtNtCshN9TtrzEz6i_22dual_core_pdf_pipeline2ai11pyo3_bridgeNtB4_8PyEngine13analyze_fonts0B8_
FNDA:8,_RNCNvMNtNtCshN9TtrzEz6i_22dual_core_pdf_pipeline2ai11pyo3_bridgeNtB4_8PyEngine15get_text_blocks0B8_
FNDA:0,_RNCNvMNtNtCshN9TtrzEz6i_22dual_core_pdf_pipeline2ai11pyo3_bridgeNtB4_8PyEngine16apply_many_edits0B8_
FNDA:0,_RNCNvMNtNtCshN9TtrzEz6i_22dual_core_pdf_pipeline2ai11pyo3_bridgeNtB4_8PyEngine18render_page_to_png0B8_
FNDA:0,_RNCNvMNtNtCshN9TtrzEz6i_22dual_core_pdf_pipeline2ai11pyo3_bridgeNtB4_8PyEngine19chunk_pdf_for_docai0B8_
FNDA:0,_RNCNvMNtNtCshN9TtrzEz6i_22dual_core_pdf_pipeline2ai11pyo3_bridgeNtB4_8PyEngine20get_all_transactions0B8_
FNDA:2,_RNCNvMNtNtCshN9TtrzEz6i_22dual_core_pdf_pipeline2ai11pyo3_bridgeNtB4_8PyEngine20replace_text_in_rect0B8_
FNDA:0,_RNCNvMNtNtCshN9TtrzEz6i_22dual_core_pdf_pipeline2ai11pyo3_bridgeNtB4_8PyEngine21deep_font_replication0B8_
FNDA:7,_RNCNvMNtNtCshN9TtrzEz6i_22dual_core_pdf_pipeline2ai11pyo3_bridgeNtB4_8PyEngine23analyze_document_layout0B8_
FNDA:0,_RNCNvMNtNtCshN9TtrzEz6i_22dual_core_pdf_pipeline2ai11pyo3_bridgeNtB4_8PyEngine24find_text_block_at_click0B8_
FNDA:0,_RNCNvMNtNtCshN9TtrzEz6i_22dual_core_pdf_pipeline2ai11pyo3_bridgeNtB4_8PyEngine27complete_font_with_adaption0B8_
FNDA:0,_RNCNvMNtNtCshN9TtrzEz6i_22dual_core_pdf_pipeline2ai11pyo3_bridgeNtB4_8PyEngine32replicate_font_for_missing_chars0B8_
FNDA:16,_RNCNvMNtNtCshN9TtrzEz6i_22dual_core_pdf_pipeline2ai11pyo3_bridgeNtB4_8PyEngine4init0B8_
FNDA:18,_RNCNvMNtNtCshN9TtrzEz6i_22dual_core_pdf_pipeline2ai11pyo3_bridgeNtB4_8PyEngine15garbage_collect0B8_
FNDA:0,_RNvMNtNtCshN9TtrzEz6i_22dual_core_pdf_pipeline2ai11pyo3_bridgeNtB2_8PyEngine11clone_pages
FNDA:1,_RNvMNtNtCshN9TtrzEz6i_22dual_core_pdf_pipeline2ai11pyo3_bridgeNtB2_8PyEngine12extract_font
FNDA:0,_RNvMNtNtCshN9TtrzEz6i_22dual_core_pdf_pipeline2ai11pyo3_bridgeNtB2_8PyEngine12remove_pages
FNDA:1,_RNvMNtNtCshN9TtrzEz6i_22dual_core_pdf_pipeline2ai11pyo3_bridgeNtB2_8PyEngine13analyze_fonts
FNDA:18,_RNvMNtNtCshN9TtrzEz6i_22dual_core_pdf_pipeline2ai11pyo3_bridgeNtB2_8PyEngine15garbage_collect
FNDA:8,_RNvMNtNtCshN9TtrzEz6i_22dual_core_pdf_pipeline2ai11pyo3_bridgeNtB2_8PyEngine15get_text_blocks
FNDA:0,_RNvMNtNtCshN9TtrzEz6i_22dual_core_pdf_pipeline2ai11pyo3_bridgeNtB2_8PyEngine16apply_many_edits
FNDA:0,_RNvMNtNtCshN9TtrzEz6i_22dual_core_pdf_pipeline2ai11pyo3_bridgeNtB2_8PyEngine18render_page_to_png
FNDA:0,_RNvMNtNtCshN9TtrzEz6i_22dual_core_pdf_pipeline2ai11pyo3_bridgeNtB2_8PyEngine19chunk_pdf_for_docai
FNDA:0,_RNvMNtNtCshN9TtrzEz6i_22dual_core_pdf_pipeline2ai11pyo3_bridgeNtB2_8PyEngine20get_all_transactions
FNDA:2,_RNvMNtNtCshN9TtrzEz6i_22dual_core_pdf_pipeline2ai11pyo3_bridgeNtB2_8PyEngine20replace_text_in_rect
FNDA:0,_RNvMNtNtCshN9TtrzEz6i_22dual_core_pdf_pipeline2ai11pyo3_bridgeNtB2_8PyEngine21deep_font_replication
FNDA:7,_RNvMNtNtCshN9TtrzEz6i_22dual_core_pdf_pipeline2ai11pyo3_bridgeNtB2_8PyEngine23analyze_document_layout
FNDA:0,_RNvMNtNtCshN9TtrzEz6i_22dual_core_pdf_pipeline2ai11pyo3_bridgeNtB2_8PyEngine24find_text_block_at_click
FNDA:0,_RNvMNtNtCshN9TtrzEz6i_22dual_core_pdf_pipeline2ai11pyo3_bridgeNtB2_8PyEngine27complete_font_with_adaption
FNDA:0,_RNvMNtNtCshN9TtrzEz6i_22dual_core_pdf_pipeline2ai11pyo3_bridgeNtB2_8PyEngine32replicate_font_for_missing_chars
FNDA:18,_RNvMNtNtCshN9TtrzEz6i_22dual_core_pdf_pipeline2ai11pyo3_bridgeNtB2_8PyEngine4init
FNDA:1,_RNCINvMNtNtCsdGsEM3RpwG4_22dual_core_pdf_pipeline2ai11pyo3_bridgeNtB5_8PyEngine20safe_python_with_gilNCNvNtB5_5testss_31test_python_gil_lock_simulation0uE0B9_
FNDA:1,_RNCINvMNtNtCsdGsEM3RpwG4_22dual_core_pdf_pipeline2ai11pyo3_bridgeNtB5_8PyEngine20safe_python_with_gilNCNvNtB5_5testss_31test_python_panic_safely_caught0uE0B9_
FNDA:1,_RNCINvMNtNtCsdGsEM3RpwG4_22dual_core_pdf_pipeline2ai11pyo3_bridgeNtB5_8PyEngine20safe_python_with_gilNCNvNtB5_5testss_49test_python_exception_safely_mapped_to_rust_error0uE0B9_
FNDA:0,_RNCNCNvNtNtNtCsdGsEM3RpwG4_22dual_core_pdf_pipeline2ai11pyo3_bridge5testss_31test_python_gil_lock_simulation00Bb_
FNDA:1,_RNCNCNvNtNtNtCsdGsEM3RpwG4_22dual_core_pdf_pipeline2ai11pyo3_bridge5testss_49test_python_exception_safely_mapped_to_rust_error00Bb_
FNDA:1,_RNCNvNtNtNtCsdGsEM3RpwG4_22dual_core_pdf_pipeline2ai11pyo3_bridge5testss_31test_python_gil_lock_simulation0B9_
FNDA:1,_RNCNvNtNtNtCsdGsEM3RpwG4_22dual_core_pdf_pipeline2ai11pyo3_bridge5testss_31test_python_panic_safely_caught0B9_
FNDA:1,_RNCNvNtNtNtCsdGsEM3RpwG4_22dual_core_pdf_pipeline2ai11pyo3_bridge5testss_49test_python_exception_safely_mapped_to_rust_error0B9_
FNDA:0,_RINvMNtNtCsdGsEM3RpwG4_22dual_core_pdf_pipeline2ai11pyo3_bridgeNtB3_8PyEngine9call_jsonpEB7_
FNDA:0,_RNCINvMNtNtCsdGsEM3RpwG4_22dual_core_pdf_pipeline2ai11pyo3_bridgeNtB5_8PyEngine9call_jsonpE0B9_
FNDA:0,_RNCINvMNtNtCsdGsEM3RpwG4_22dual_core_pdf_pipeline2ai11pyo3_bridgeNtB5_8PyEngine9call_jsonpEs0_0B9_
FNDA:0,_RNCINvMNtNtCsdGsEM3RpwG4_22dual_core_pdf_pipeline2ai11pyo3_bridgeNtB5_8PyEngine9call_jsonpEs1_0B9_
FNDA:0,_RNCINvMNtNtCsdGsEM3RpwG4_22dual_core_pdf_pipeline2ai11pyo3_bridgeNtB5_8PyEngine9call_jsonpEs2_0B9_
FNDA:0,_RNCINvMNtNtCsdGsEM3RpwG4_22dual_core_pdf_pipeline2ai11pyo3_bridgeNtB5_8PyEngine9call_jsonpEs3_0B9_
FNDA:0,_RNCINvMNtNtCsdGsEM3RpwG4_22dual_core_pdf_pipeline2ai11pyo3_bridgeNtB5_8PyEngine9call_jsonpEs_0B9_
FNDA:0,_RNCNCNvMNtNtCsdGsEM3RpwG4_22dual_core_pdf_pipeline2ai11pyo3_bridgeNtB6_8PyEngine16apply_many_edits00Ba_
FNDA:0,_RNCNCNvMNtNtCsdGsEM3RpwG4_22dual_core_pdf_pipeline2ai11pyo3_bridgeNtB6_8PyEngine16apply_many_edits0s0_0Ba_
FNDA:0,_RNCNCNvMNtNtCsdGsEM3RpwG4_22dual_core_pdf_pipeline2ai11pyo3_bridgeNtB6_8PyEngine16apply_many_edits0s1_0Ba_
FNDA:0,_RNCNCNvMNtNtCsdGsEM3RpwG4_22dual_core_pdf_pipeline2ai11pyo3_bridgeNtB6_8PyEngine16apply_many_edits0s2_0Ba_
FNDA:0,_RNCNCNvMNtNtCsdGsEM3RpwG4_22dual_core_pdf_pipeline2ai11pyo3_bridgeNtB6_8PyEngine16apply_many_edits0s3_0Ba_
FNDA:0,_RNCNCNvMNtNtCsdGsEM3RpwG4_22dual_core_pdf_pipeline2ai11pyo3_bridgeNtB6_8PyEngine16apply_many_edits0s4_0Ba_
FNDA:0,_RNCNCNvMNtNtCsdGsEM3RpwG4_22dual_core_pdf_pipeline2ai11pyo3_bridgeNtB6_8PyEngine16apply_many_edits0s5_0Ba_
FNDA:0,_RNCNCNvMNtNtCsdGsEM3RpwG4_22dual_core_pdf_pipeline2ai11pyo3_bridgeNtB6_8PyEngine16apply_many_edits0s6_0Ba_
FNDA:0,_RNCNCNvMNtNtCsdGsEM3RpwG4_22dual_core_pdf_pipeline2ai11pyo3_bridgeNtB6_8PyEngine16apply_many_edits0s7_0Ba_
FNDA:0,_RNCNCNvMNtNtCsdGsEM3RpwG4_22dual_core_pdf_pipeline2ai11pyo3_bridgeNtB6_8PyEngine16apply_many_edits0s8_0Ba_
FNDA:0,_RNCNCNvMNtNtCsdGsEM3RpwG4_22dual_core_pdf_pipeline2ai11pyo3_bridgeNtB6_8PyEngine16apply_many_edits0s9_0Ba_
FNDA:0,_RNCNCNvMNtNtCsdGsEM3RpwG4_22dual_core_pdf_pipeline2ai11pyo3_bridgeNtB6_8PyEngine16apply_many_edits0s_0Ba_
FNDA:0,_RNCNCNvMNtNtCsdGsEM3RpwG4_22dual_core_pdf_pipeline2ai11pyo3_bridgeNtB6_8PyEngine20replace_text_in_rect00Ba_
FNDA:0,_RNCNCNvMNtNtCsdGsEM3RpwG4_22dual_core_pdf_pipeline2ai11pyo3_bridgeNtB6_8PyEngine20replace_text_in_rect0s0_0Ba_
FNDA:0,_RNCNCNvMNtNtCsdGsEM3RpwG4_22dual_core_pdf_pipeline2ai11pyo3_bridgeNtB6_8PyEngine20replace_text_in_rect0s1_0Ba_
FNDA:0,_RNCNCNvMNtNtCsdGsEM3RpwG4_22dual_core_pdf_pipeline2ai11pyo3_bridgeNtB6_8PyEngine20replace_text_in_rect0s2_0Ba_
FNDA:0,_RNCNCNvMNtNtCsdGsEM3RpwG4_22dual_core_pdf_pipeline2ai11pyo3_bridgeNtB6_8PyEngine20replace_text_in_rect0s3_0Ba_
FNDA:0,_RNCNCNvMNtNtCsdGsEM3RpwG4_22dual_core_pdf_pipeline2ai11pyo3_bridgeNtB6_8PyEngine20replace_text_in_rect0s4_0Ba_
FNDA:0,_RNCNCNvMNtNtCsdGsEM3RpwG4_22dual_core_pdf_pipeline2ai11pyo3_bridgeNtB6_8PyEngine20replace_text_in_rect0s5_0Ba_
FNDA:0,_RNCNCNvMNtNtCsdGsEM3RpwG4_22dual_core_pdf_pipeline2ai11pyo3_bridgeNtB6_8PyEngine20replace_text_in_rect0s6_0Ba_
FNDA:0,_RNCNCNvMNtNtCsdGsEM3RpwG4_22dual_core_pdf_pipeline2ai11pyo3_bridgeNtB6_8PyEngine20replace_text_in_rect0s7_0Ba_
FNDA:0,_RNCNCNvMNtNtCsdGsEM3RpwG4_22dual_core_pdf_pipeline2ai11pyo3_bridgeNtB6_8PyEngine20replace_text_in_rect0s8_0Ba_
FNDA:0,_RNCNCNvMNtNtCsdGsEM3RpwG4_22dual_core_pdf_pipeline2ai11pyo3_bridgeNtB6_8PyEngine20replace_text_in_rect0s9_0Ba_
FNDA:0,_RNCNCNvMNtNtCsdGsEM3RpwG4_22dual_core_pdf_pipeline2ai11pyo3_bridgeNtB6_8PyEngine20replace_text_in_rect0s_0Ba_
FNDA:0,_RNCNCNvMNtNtCsdGsEM3RpwG4_22dual_core_pdf_pipeline2ai11pyo3_bridgeNtB6_8PyEngine20replace_text_in_rect0sa_0Ba_
FNDA:0,_RNCNCNvMNtNtCsdGsEM3RpwG4_22dual_core_pdf_pipeline2ai11pyo3_bridgeNtB6_8PyEngine20replace_text_in_rect0sb_0Ba_
FNDA:0,_RNCNCNvMNtNtCsdGsEM3RpwG4_22dual_core_pdf_pipeline2ai11pyo3_bridgeNtB6_8PyEngine4init00Ba_
FNDA:0,_RNCNCNvMNtNtCsdGsEM3RpwG4_22dual_core_pdf_pipeline2ai11pyo3_bridgeNtB6_8PyEngine4init0s0_0Ba_
FNDA:0,_RNCNCNvMNtNtCsdGsEM3RpwG4_22dual_core_pdf_pipeline2ai11pyo3_bridgeNtB6_8PyEngine4init0s1_0Ba_
FNDA:0,_RNCNCNvMNtNtCsdGsEM3RpwG4_22dual_core_pdf_pipeline2ai11pyo3_bridgeNtB6_8PyEngine4init0s2_0Ba_
FNDA:0,_RNCNCNvMNtNtCsdGsEM3RpwG4_22dual_core_pdf_pipeline2ai11pyo3_bridgeNtB6_8PyEngine4init0s3_0Ba_
FNDA:0,_RNCNCNvMNtNtCsdGsEM3RpwG4_22dual_core_pdf_pipeline2ai11pyo3_bridgeNtB6_8PyEngine4init0s_0Ba_
FNDA:0,_RNCNvMNtNtCsdGsEM3RpwG4_22dual_core_pdf_pipeline2ai11pyo3_bridgeNtB4_8PyEngine11clone_pages0B8_
FNDA:0,_RNCNvMNtNtCsdGsEM3RpwG4_22dual_core_pdf_pipeline2ai11pyo3_bridgeNtB4_8PyEngine12extract_font0B8_
FNDA:0,_RNCNvMNtNtCsdGsEM3RpwG4_22dual_core_pdf_pipeline2ai11pyo3_bridgeNtB4_8PyEngine12remove_pages0B8_
FNDA:0,_RNCNvMNtNtCsdGsEM3RpwG4_22dual_core_pdf_pipeline2ai11pyo3_bridgeNtB4_8PyEngine13analyze_fonts0B8_
FNDA:0,_RNCNvMNtNtCsdGsEM3RpwG4_22dual_core_pdf_pipeline2ai11pyo3_bridgeNtB4_8PyEngine15garbage_collect0B8_
FNDA:0,_RNCNvMNtNtCsdGsEM3RpwG4_22dual_core_pdf_pipeline2ai11pyo3_bridgeNtB4_8PyEngine15get_text_blocks0B8_
FNDA:0,_RNCNvMNtNtCsdGsEM3RpwG4_22dual_core_pdf_pipeline2ai11pyo3_bridgeNtB4_8PyEngine16apply_many_edits0B8_
FNDA:0,_RNCNvMNtNtCsdGsEM3RpwG4_22dual_core_pdf_pipeline2ai11pyo3_bridgeNtB4_8PyEngine18render_page_to_png0B8_
FNDA:0,_RNCNvMNtNtCsdGsEM3RpwG4_22dual_core_pdf_pipeline2ai11pyo3_bridgeNtB4_8PyEngine19chunk_pdf_for_docai0B8_
FNDA:0,_RNCNvMNtNtCsdGsEM3RpwG4_22dual_core_pdf_pipeline2ai11pyo3_bridgeNtB4_8PyEngine20get_all_transactions0B8_
FNDA:0,_RNCNvMNtNtCsdGsEM3RpwG4_22dual_core_pdf_pipeline2ai11pyo3_bridgeNtB4_8PyEngine20replace_text_in_rect0B8_
FNDA:0,_RNCNvMNtNtCsdGsEM3RpwG4_22dual_core_pdf_pipeline2ai11pyo3_bridgeNtB4_8PyEngine21deep_font_replication0B8_
FNDA:0,_RNCNvMNtNtCsdGsEM3RpwG4_22dual_core_pdf_pipeline2ai11pyo3_bridgeNtB4_8PyEngine23analyze_document_layout0B8_
FNDA:0,_RNCNvMNtNtCsdGsEM3RpwG4_22dual_core_pdf_pipeline2ai11pyo3_bridgeNtB4_8PyEngine24find_text_block_at_click0B8_
FNDA:0,_RNCNvMNtNtCsdGsEM3RpwG4_22dual_core_pdf_pipeline2ai11pyo3_bridgeNtB4_8PyEngine27complete_font_with_adaption0B8_
FNDA:0,_RNCNvMNtNtCsdGsEM3RpwG4_22dual_core_pdf_pipeline2ai11pyo3_bridgeNtB4_8PyEngine32replicate_font_for_missing_chars0B8_
FNDA:0,_RNCNvMNtNtCsdGsEM3RpwG4_22dual_core_pdf_pipeline2ai11pyo3_bridgeNtB4_8PyEngine4init0B8_
FNDA:0,_RNvMNtNtCsdGsEM3RpwG4_22dual_core_pdf_pipeline2ai11pyo3_bridgeNtB2_8PyEngine11clone_pages
FNDA:0,_RNvMNtNtCsdGsEM3RpwG4_22dual_core_pdf_pipeline2ai11pyo3_bridgeNtB2_8PyEngine12extract_font
FNDA:0,_RNvMNtNtCsdGsEM3RpwG4_22dual_core_pdf_pipeline2ai11pyo3_bridgeNtB2_8PyEngine12remove_pages
FNDA:0,_RNvMNtNtCsdGsEM3RpwG4_22dual_core_pdf_pipeline2ai11pyo3_bridgeNtB2_8PyEngine13analyze_fonts
FNDA:0,_RNvMNtNtCsdGsEM3RpwG4_22dual_core_pdf_pipeline2ai11pyo3_bridgeNtB2_8PyEngine15garbage_collect
FNDA:0,_RNvMNtNtCsdGsEM3RpwG4_22dual_core_pdf_pipeline2ai11pyo3_bridgeNtB2_8PyEngine15get_text_blocks
FNDA:0,_RNvMNtNtCsdGsEM3RpwG4_22dual_core_pdf_pipeline2ai11pyo3_bridgeNtB2_8PyEngine16apply_many_edits
FNDA:0,_RNvMNtNtCsdGsEM3RpwG4_22dual_core_pdf_pipeline2ai11pyo3_bridgeNtB2_8PyEngine18render_page_to_png
FNDA:0,_RNvMNtNtCsdGsEM3RpwG4_22dual_core_pdf_pipeline2ai11pyo3_bridgeNtB2_8PyEngine19chunk_pdf_for_docai
FNDA:0,_RNvMNtNtCsdGsEM3RpwG4_22dual_core_pdf_pipeline2ai11pyo3_bridgeNtB2_8PyEngine20get_all_transactions
FNDA:0,_RNvMNtNtCsdGsEM3RpwG4_22dual_core_pdf_pipeline2ai11pyo3_bridgeNtB2_8PyEngine20replace_text_in_rect
FNDA:0,_RNvMNtNtCsdGsEM3RpwG4_22dual_core_pdf_pipeline2ai11pyo3_bridgeNtB2_8PyEngine21deep_font_replication
FNDA:0,_RNvMNtNtCsdGsEM3RpwG4_22dual_core_pdf_pipeline2ai11pyo3_bridgeNtB2_8PyEngine23analyze_document_layout
FNDA:0,_RNvMNtNtCsdGsEM3RpwG4_22dual_core_pdf_pipeline2ai11pyo3_bridgeNtB2_8PyEngine24find_text_block_at_click
FNDA:0,_RNvMNtNtCsdGsEM3RpwG4_22dual_core_pdf_pipeline2ai11pyo3_bridgeNtB2_8PyEngine27complete_font_with_adaption
FNDA:0,_RNvMNtNtCsdGsEM3RpwG4_22dual_core_pdf_pipeline2ai11pyo3_bridgeNtB2_8PyEngine32replicate_font_for_missing_chars
FNDA:0,_RNvMNtNtCsdGsEM3RpwG4_22dual_core_pdf_pipeline2ai11pyo3_bridgeNtB2_8PyEngine4init
FNDA:1,_RNvNtNtNtCsdGsEM3RpwG4_22dual_core_pdf_pipeline2ai11pyo3_bridge5testss_31test_python_gil_lock_simulation
FNDA:1,_RNvNtNtNtCsdGsEM3RpwG4_22dual_core_pdf_pipeline2ai11pyo3_bridge5testss_31test_python_panic_safely_caught
FNDA:1,_RNvNtNtNtCsdGsEM3RpwG4_22dual_core_pdf_pipeline2ai11pyo3_bridge5testss_49test_python_exception_safely_mapped_to_rust_error
FNDA:1,_RINvMNtNtCsdGsEM3RpwG4_22dual_core_pdf_pipeline2ai11pyo3_bridgeNtB3_8PyEngine20safe_python_with_gilNCNvNtB3_5testss_31test_python_gil_lock_simulation0uEB7_
FNDA:1,_RINvMNtNtCsdGsEM3RpwG4_22dual_core_pdf_pipeline2ai11pyo3_bridgeNtB3_8PyEngine20safe_python_with_gilNCNvNtB3_5testss_31test_python_panic_safely_caught0uEB7_
FNDA:1,_RINvMNtNtCsdGsEM3RpwG4_22dual_core_pdf_pipeline2ai11pyo3_bridgeNtB3_8PyEngine20safe_python_with_gilNCNvNtB3_5testss_49test_python_exception_safely_mapped_to_rust_error0uEB7_
FNF:83
FNH:27
DA:10,18
DA:12,18
DA:14,18
DA:16,18
DA:23,16
DA:24,16
DA:25,16
DA:26,16
DA:27,16
DA:28,16
DA:29,16
DA:30,16
DA:31,16
DA:32,16
DA:33,16
DA:34,16
DA:35,16
DA:36,16
DA:37,16
DA:38,48
DA:39,32
DA:40,32
DA:41,32
DA:42,32
DA:45,16
DA:47,16
DA:48,16
DA:49,16
DA:51,16
DA:52,16
DA:53,16
DA:54,16
DA:55,18
DA:59,38
DA:60,38
DA:61,38
DA:62,38
DA:64,38
DA:65,38
DA:66,36
DA:67,2
DA:69,38
DA:71,37
DA:72,35
DA:73,2
DA:74,1
DA:76,1
DA:77,1
DA:78,0
DA:79,0
DA:81,0
DA:83,1
DA:86,38
DA:88,17
DA:89,17
DA:90,17
DA:92,17
DA:93,17
DA:94,17
DA:95,17
DA:96,17
DA:98,16
DA:99,16
DA:100,16
DA:101,16
DA:102,16
DA:103,16
DA:104,16
DA:106,16
DA:107,17
DA:109,8
DA:115,8
DA:116,8
DA:118,2
DA:119,2
DA:120,2
DA:121,2
DA:122,2
DA:123,2
DA:124,2
DA:125,2
DA:126,2
DA:127,2
DA:128,2
DA:129,2
DA:130,2
DA:131,2
DA:132,2
DA:133,2
DA:134,2
DA:136,2
DA:137,2
DA:138,2
DA:140,2
DA:141,2
DA:142,2
DA:143,2
DA:145,2
DA:147,2
DA:148,2
DA:149,2
DA:150,2
DA:151,2
DA:152,2
DA:153,2
DA:154,2
DA:155,2
DA:156,2
DA:157,2
DA:158,2
DA:159,2
DA:160,2
DA:161,2
DA:162,2
DA:163,2
DA:164,2
DA:165,2
DA:166,2
DA:167,2
DA:168,2
DA:169,2
DA:170,2
DA:171,0
DA:172,0
DA:173,0
DA:174,2
DA:181,2
DA:182,2
DA:183,2
DA:185,2
DA:186,2
DA:187,2
DA:188,2
DA:190,2
DA:191,0
DA:192,0
DA:193,0
DA:194,0
DA:195,2
DA:196,0
DA:197,2
DA:199,0
DA:202,0
DA:204,0
DA:205,0
DA:206,0
DA:210,0
DA:212,0
DA:217,2
DA:218,2
DA:220,0
DA:221,0
DA:222,0
DA:223,0
DA:224,0
DA:225,0
DA:226,0
DA:227,0
DA:228,0
DA:229,0
DA:230,0
DA:231,0
DA:233,0
DA:234,0
DA:236,0
DA:237,0
DA:238,0
DA:240,7
DA:241,7
DA:242,7
DA:244,1
DA:245,1
DA:246,1
DA:248,0
DA:249,0
DA:250,0
DA:251,0
DA:252,0
DA:253,0
DA:254,0
DA:255,0
DA:256,0
DA:257,0
DA:259,0
DA:260,0
DA:262,0
DA:263,0
DA:264,0
DA:265,0
DA:266,0
DA:267,0
DA:268,0
DA:273,0
DA:274,0
DA:275,0
DA:276,0
DA:278,0
DA:279,0
DA:286,0
DA:287,0
DA:288,0
DA:289,0
DA:290,0
DA:291,0
DA:292,0
DA:293,0
DA:294,0
DA:295,0
DA:296,0
DA:297,0
DA:298,0
DA:299,0
DA:300,0
DA:301,0
DA:303,0
DA:304,0
DA:305,0
DA:306,0
DA:307,0
DA:308,0
DA:309,0
DA:310,0
DA:311,0
DA:312,0
DA:313,0
DA:314,0
DA:315,0
DA:316,0
DA:317,0
DA:318,0
DA:319,0
DA:320,0
DA:321,0
DA:323,0
DA:324,0
DA:325,0
DA:326,0
DA:327,0
DA:328,0
DA:329,0
DA:330,0
DA:331,0
DA:332,0
DA:334,0
DA:335,0
DA:337,0
DA:338,0
DA:339,0
DA:345,0
DA:347,0
DA:352,0
DA:353,0
DA:358,0
DA:359,0
DA:360,0
DA:361,0
DA:362,0
DA:363,0
DA:364,0
DA:365,0
DA:366,0
DA:367,0
DA:368,0
DA:370,0
DA:371,0
DA:376,1
DA:377,1
DA:378,1
DA:390,0
DA:391,0
DA:392,0
DA:393,0
DA:394,0
DA:395,0
DA:396,0
DA:397,0
DA:398,0
DA:399,0
DA:400,0
DA:401,0
DA:403,0
DA:404,0
DA:406,0
DA:407,0
DA:408,0
DA:409,0
DA:410,0
DA:411,0
DA:412,0
DA:413,0
DA:414,0
DA:415,0
DA:416,0
DA:418,0
DA:419,0
DA:421,0
DA:422,0
DA:423,0
DA:424,0
DA:425,0
DA:426,0
DA:427,0
DA:428,0
DA:429,0
DA:430,0
DA:432,0
DA:433,0
DA:434,0
DA:435,0
DA:436,0
DA:437,0
DA:438,0
DA:439,0
DA:440,0
DA:441,0
DA:442,0
DA:444,0
DA:445,0
DA:449,18
DA:450,18
DA:451,9
DA:452,9
DA:453,18
DA:461,1
DA:462,1
DA:463,1
DA:465,1
DA:466,1
DA:467,1
DA:468,1
DA:470,1
DA:471,0
DA:472,1
DA:474,1
DA:475,1
DA:476,0
DA:478,1
DA:479,1
DA:480,1
DA:481,0
DA:482,0
DA:484,1
DA:487,1
DA:488,1
DA:489,1
DA:491,1
DA:494,1
DA:495,1
DA:496,0
DA:498,1
DA:499,1
DA:500,1
DA:501,0
DA:503,1
DA:504,1
DA:505,0
DA:507,1
DA:510,1
DA:511,1
DA:514,1
DA:515,1
DA:516,1
DA:517,1
DA:518,1
DA:520,1
DA:521,1
DA:522,1
DA:523,1
DA:524,1
BRF:0
BRH:0
LF:430
LH:197
end_of_record
SF:/Volumes/Macintosh_HD/Users/user298993/Documents/GitHub/bank-statement-fidelity-editor/src/ai/repair.rs
FN:21,_RNCNCNvNtNtCshN9TtrzEz6i_22dual_core_pdf_pipeline2ai6repair28verify_and_repair_extraction00B9_
FN:48,_RNCNCNvNtNtCshN9TtrzEz6i_22dual_core_pdf_pipeline2ai6repair28verify_and_repair_extraction0s_0B9_
FN:9,_RNCNvNtNtCshN9TtrzEz6i_22dual_core_pdf_pipeline2ai6repair28verify_and_repair_extraction0B7_
FN:5,_RNvNtNtCshN9TtrzEz6i_22dual_core_pdf_pipeline2ai6repair28verify_and_repair_extraction
FN:21,_RNCNCNvNtNtCshN9TtrzEz6i_22dual_core_pdf_pipeline2ai6repair28verify_and_repair_extraction00Csf6zF57cabuO_20ai_document_ai_tests
FN:48,_RNCNCNvNtNtCshN9TtrzEz6i_22dual_core_pdf_pipeline2ai6repair28verify_and_repair_extraction0s_0Csf6zF57cabuO_20ai_document_ai_tests
FN:9,_RNCNvNtNtCshN9TtrzEz6i_22dual_core_pdf_pipeline2ai6repair28verify_and_repair_extraction0Csf6zF57cabuO_20ai_document_ai_tests
FN:21,_RNCNCNvNtNtCshN9TtrzEz6i_22dual_core_pdf_pipeline2ai6repair28verify_and_repair_extraction00CshaMNJSpjAve_7ai_live
FN:48,_RNCNCNvNtNtCshN9TtrzEz6i_22dual_core_pdf_pipeline2ai6repair28verify_and_repair_extraction0s_0CshaMNJSpjAve_7ai_live
FN:9,_RNCNvNtNtCshN9TtrzEz6i_22dual_core_pdf_pipeline2ai6repair28verify_and_repair_extraction0CshaMNJSpjAve_7ai_live
FN:21,_RNCNCNvNtNtCshN9TtrzEz6i_22dual_core_pdf_pipeline2ai6repair28verify_and_repair_extraction00Cs1dXm4FxIgQC_13ai_loop_tests
FN:48,_RNCNCNvNtNtCshN9TtrzEz6i_22dual_core_pdf_pipeline2ai6repair28verify_and_repair_extraction0s_0Cs1dXm4FxIgQC_13ai_loop_tests
FN:9,_RNCNvNtNtCshN9TtrzEz6i_22dual_core_pdf_pipeline2ai6repair28verify_and_repair_extraction0Cs1dXm4FxIgQC_13ai_loop_tests
FN:21,_RNCNCNvNtNtCsdGsEM3RpwG4_22dual_core_pdf_pipeline2ai6repair28verify_and_repair_extraction00B9_
FN:48,_RNCNCNvNtNtCsdGsEM3RpwG4_22dual_core_pdf_pipeline2ai6repair28verify_and_repair_extraction0s_0B9_
FN:9,_RNCNvNtNtCsdGsEM3RpwG4_22dual_core_pdf_pipeline2ai6repair28verify_and_repair_extraction0B7_
FN:5,_RNvNtNtCsdGsEM3RpwG4_22dual_core_pdf_pipeline2ai6repair28verify_and_repair_extraction
FN:21,_RNCNCNvNtNtCshN9TtrzEz6i_22dual_core_pdf_pipeline2ai6repair28verify_and_repair_extraction00CseEmI1GKjWjI_22engine_statement_tests
FN:48,_RNCNCNvNtNtCshN9TtrzEz6i_22dual_core_pdf_pipeline2ai6repair28verify_and_repair_extraction0s_0CseEmI1GKjWjI_22engine_statement_tests
FN:9,_RNCNvNtNtCshN9TtrzEz6i_22dual_core_pdf_pipeline2ai6repair28verify_and_repair_extraction0CseEmI1GKjWjI_22engine_statement_tests
FN:21,_RNCNCNvNtNtCshN9TtrzEz6i_22dual_core_pdf_pipeline2ai6repair28verify_and_repair_extraction00Csi3ESQQ38hK3_12ranking_test
FN:48,_RNCNCNvNtNtCshN9TtrzEz6i_22dual_core_pdf_pipeline2ai6repair28verify_and_repair_extraction0s_0Csi3ESQQ38hK3_12ranking_test
FN:9,_RNCNvNtNtCshN9TtrzEz6i_22dual_core_pdf_pipeline2ai6repair28verify_and_repair_extraction0Csi3ESQQ38hK3_12ranking_test
FNDA:0,_RNCNCNvNtNtCshN9TtrzEz6i_22dual_core_pdf_pipeline2ai6repair28verify_and_repair_extraction00B9_
FNDA:0,_RNCNCNvNtNtCshN9TtrzEz6i_22dual_core_pdf_pipeline2ai6repair28verify_and_repair_extraction0s_0B9_
FNDA:0,_RNCNvNtNtCshN9TtrzEz6i_22dual_core_pdf_pipeline2ai6repair28verify_and_repair_extraction0B7_
FNDA:1,_RNvNtNtCshN9TtrzEz6i_22dual_core_pdf_pipeline2ai6repair28verify_and_repair_extraction
FNDA:0,_RNCNCNvNtNtCshN9TtrzEz6i_22dual_core_pdf_pipeline2ai6repair28verify_and_repair_extraction00Csf6zF57cabuO_20ai_document_ai_tests
FNDA:0,_RNCNCNvNtNtCshN9TtrzEz6i_22dual_core_pdf_pipeline2ai6repair28verify_and_repair_extraction0s_0Csf6zF57cabuO_20ai_document_ai_tests
FNDA:0,_RNCNvNtNtCshN9TtrzEz6i_22dual_core_pdf_pipeline2ai6repair28verify_and_repair_extraction0Csf6zF57cabuO_20ai_document_ai_tests
FNDA:0,_RNCNCNvNtNtCshN9TtrzEz6i_22dual_core_pdf_pipeline2ai6repair28verify_and_repair_extraction00CshaMNJSpjAve_7ai_live
FNDA:0,_RNCNCNvNtNtCshN9TtrzEz6i_22dual_core_pdf_pipeline2ai6repair28verify_and_repair_extraction0s_0CshaMNJSpjAve_7ai_live
FNDA:0,_RNCNvNtNtCshN9TtrzEz6i_22dual_core_pdf_pipeline2ai6repair28verify_and_repair_extraction0CshaMNJSpjAve_7ai_live
FNDA:1,_RNCNCNvNtNtCshN9TtrzEz6i_22dual_core_pdf_pipeline2ai6repair28verify_and_repair_extraction00Cs1dXm4FxIgQC_13ai_loop_tests
FNDA:0,_RNCNCNvNtNtCshN9TtrzEz6i_22dual_core_pdf_pipeline2ai6repair28verify_and_repair_extraction0s_0Cs1dXm4FxIgQC_13ai_loop_tests
FNDA:1,_RNCNvNtNtCshN9TtrzEz6i_22dual_core_pdf_pipeline2ai6repair28verify_and_repair_extraction0Cs1dXm4FxIgQC_13ai_loop_tests
FNDA:0,_RNCNCNvNtNtCsdGsEM3RpwG4_22dual_core_pdf_pipeline2ai6repair28verify_and_repair_extraction00B9_
FNDA:0,_RNCNCNvNtNtCsdGsEM3RpwG4_22dual_core_pdf_pipeline2ai6repair28verify_and_repair_extraction0s_0B9_
FNDA:0,_RNCNvNtNtCsdGsEM3RpwG4_22dual_core_pdf_pipeline2ai6repair28verify_and_repair_extraction0B7_
FNDA:0,_RNvNtNtCsdGsEM3RpwG4_22dual_core_pdf_pipeline2ai6repair28verify_and_repair_extraction
FNDA:0,_RNCNCNvNtNtCshN9TtrzEz6i_22dual_core_pdf_pipeline2ai6repair28verify_and_repair_extraction00CseEmI1GKjWjI_22engine_statement_tests
FNDA:0,_RNCNCNvNtNtCshN9TtrzEz6i_22dual_core_pdf_pipeline2ai6repair28verify_and_repair_extraction0s_0CseEmI1GKjWjI_22engine_statement_tests
FNDA:0,_RNCNvNtNtCshN9TtrzEz6i_22dual_core_pdf_pipeline2ai6repair28verify_and_repair_extraction0CseEmI1GKjWjI_22engine_statement_tests
FNDA:0,_RNCNCNvNtNtCshN9TtrzEz6i_22dual_core_pdf_pipeline2ai6repair28verify_and_repair_extraction00Csi3ESQQ38hK3_12ranking_test
FNDA:0,_RNCNCNvNtNtCshN9TtrzEz6i_22dual_core_pdf_pipeline2ai6repair28verify_and_repair_extraction0s_0Csi3ESQQ38hK3_12ranking_test
FNDA:0,_RNCNvNtNtCshN9TtrzEz6i_22dual_core_pdf_pipeline2ai6repair28verify_and_repair_extraction0Csi3ESQQ38hK3_12ranking_test
FNF:4
FNH:3
DA:5,1
DA:6,1
DA:7,1
DA:8,1
DA:9,1
DA:11,1
DA:13,1
DA:14,1
DA:16,1
DA:17,1
DA:18,1
DA:20,1
DA:21,1
DA:22,1
DA:23,1
DA:24,1
DA:25,1
DA:26,1
DA:29,0
DA:30,0
DA:31,0
DA:32,0
DA:35,1
DA:36,0
DA:37,1
DA:39,1
DA:42,1
DA:43,1
DA:44,1
DA:45,1
DA:46,1
DA:47,1
DA:48,1
DA:50,1
DA:53,1
DA:54,0
DA:56,1
DA:59,1
DA:60,1
BRF:0
BRH:0
LF:42
LH:35
end_of_record
SF:/Volumes/Macintosh_HD/Users/user298993/Documents/GitHub/bank-statement-fidelity-editor/src/ai/vision.rs
FN:46,_RNCNvNtNtCshN9TtrzEz6i_22dual_core_pdf_pipeline2ai6vision18verify_with_vision0B7_
FN:109,_RNvNtNtCshN9TtrzEz6i_22dual_core_pdf_pipeline2ai6vision12encode_image
FN:46,_RNvNtNtCshN9TtrzEz6i_22dual_core_pdf_pipeline2ai6vision18verify_with_vision
FN:46,_RNCNvNtNtCsdGsEM3RpwG4_22dual_core_pdf_pipeline2ai6vision18verify_with_vision0B7_
FN:109,_RNvNtNtCsdGsEM3RpwG4_22dual_core_pdf_pipeline2ai6vision12encode_image
FN:46,_RNvNtNtCsdGsEM3RpwG4_22dual_core_pdf_pipeline2ai6vision18verify_with_vision
FNDA:0,_RNCNvNtNtCshN9TtrzEz6i_22dual_core_pdf_pipeline2ai6vision18verify_with_vision0B7_
FNDA:0,_RNvNtNtCshN9TtrzEz6i_22dual_core_pdf_pipeline2ai6vision12encode_image
FNDA:0,_RNvNtNtCshN9TtrzEz6i_22dual_core_pdf_pipeline2ai6vision18verify_with_vision
FNDA:0,_RNCNvNtNtCsdGsEM3RpwG4_22dual_core_pdf_pipeline2ai6vision18verify_with_vision0B7_
FNDA:0,_RNvNtNtCsdGsEM3RpwG4_22dual_core_pdf_pipeline2ai6vision12encode_image
FNDA:0,_RNvNtNtCsdGsEM3RpwG4_22dual_core_pdf_pipeline2ai6vision18verify_with_vision
FNF:3
FNH:0
DA:46,0
DA:47,0
DA:48,0
DA:50,0
DA:51,0
DA:52,0
DA:53,0
DA:54,0
DA:55,0
DA:57,0
DA:58,0
DA:59,0
DA:61,0
DA:62,0
DA:63,0
DA:64,0
DA:65,0
DA:66,0
DA:67,0
DA:68,0
DA:69,0
DA:70,0
DA:71,0
DA:72,0
DA:73,0
DA:74,0
DA:75,0
DA:76,0
DA:77,0
DA:78,0
DA:79,0
DA:80,0
DA:81,0
DA:82,0
DA:84,0
DA:85,0
DA:86,0
DA:87,0
DA:88,0
DA:90,0
DA:91,0
DA:92,0
DA:93,0
DA:94,0
DA:95,0
DA:96,0
DA:97,0
DA:98,0
DA:99,0
DA:100,0
DA:101,0
DA:102,0
DA:105,0
DA:106,0
DA:107,0
DA:109,0
DA:110,0
DA:111,0
DA:112,0
BRF:0
BRH:0
LF:60
LH:0
end_of_record
SF:/Volumes/Macintosh_HD/Users/user298993/Documents/GitHub/bank-statement-fidelity-editor/src/app/api_verification.rs
FN:69,_RNCNvMNtNtCshN9TtrzEz6i_22dual_core_pdf_pipeline3app16api_verificationNtB4_18VerificationReport24calculate_overall_status0B8_
FN:79,_RNCNvMNtNtCshN9TtrzEz6i_22dual_core_pdf_pipeline3app16api_verificationNtB4_18VerificationReport24calculate_overall_statuss0_0B8_
FN:76,_RNCNvMNtNtCshN9TtrzEz6i_22dual_core_pdf_pipeline3app16api_verificationNtB4_18VerificationReport24calculate_overall_statuss_0B8_
FN:68,_RNvMNtNtCshN9TtrzEz6i_22dual_core_pdf_pipeline3app16api_verificationNtB2_18VerificationReport24calculate_overall_status
FN:56,_RNvMNtNtCshN9TtrzEz6i_22dual_core_pdf_pipeline3app16api_verificationNtB2_18VerificationReport3new
FN:91,_RNvMNtNtCshN9TtrzEz6i_22dual_core_pdf_pipeline3app16api_verificationNtB2_18VerificationReport9exit_code
FN:263,_RNvNtNtCshN9TtrzEz6i_22dual_core_pdf_pipeline3app16api_verification13verify_gemini
FN:397,_RNvNtNtCshN9TtrzEz6i_22dual_core_pdf_pipeline3app16api_verification13verify_vision
FN:369,_RNvNtNtCshN9TtrzEz6i_22dual_core_pdf_pipeline3app16api_verification14verify_pdfrest
FN:332,_RNvNtNtCshN9TtrzEz6i_22dual_core_pdf_pipeline3app16api_verification17verify_llamaparse
FN:192,_RNvNtNtCshN9TtrzEz6i_22dual_core_pdf_pipeline3app16api_verification18verify_document_ai
FN:140,_RNvNtNtCshN9TtrzEz6i_22dual_core_pdf_pipeline3app16api_verification18verify_pymupdf_pro
FN:102,_RNvNtNtCshN9TtrzEz6i_22dual_core_pdf_pipeline3app16api_verification19verify_all_api_keys
FN:490,_RNvNtNtCshN9TtrzEz6i_22dual_core_pdf_pipeline3app16api_verification20print_human_readable
FN:441,_RNvNtNtCshN9TtrzEz6i_22dual_core_pdf_pipeline3app16api_verification24get_docai_error_guidance
FN:460,_RNvNtNtCshN9TtrzEz6i_22dual_core_pdf_pipeline3app16api_verification25get_gemini_error_guidance
FN:428,_RNvNtNtCshN9TtrzEz6i_22dual_core_pdf_pipeline3app16api_verification27determine_docai_auth_method
FN:269,_RNCNCNvNtNtCshN9TtrzEz6i_22dual_core_pdf_pipeline3app16api_verification13verify_gemini00B9_
FN:298,_RNCNCNvNtNtCshN9TtrzEz6i_22dual_core_pdf_pipeline3app16api_verification13verify_gemini0s0_0B9_
FN:312,_RNCNCNvNtNtCshN9TtrzEz6i_22dual_core_pdf_pipeline3app16api_verification13verify_gemini0s1_0B9_
FN:272,_RNCNCNvNtNtCshN9TtrzEz6i_22dual_core_pdf_pipeline3app16api_verification13verify_gemini0s_0B9_
FN:403,_RNCNCNvNtNtCshN9TtrzEz6i_22dual_core_pdf_pipeline3app16api_verification13verify_vision00B9_
FN:373,_RNCNCNvNtNtCshN9TtrzEz6i_22dual_core_pdf_pipeline3app16api_verification14verify_pdfrest00B9_
FN:336,_RNCNCNvNtNtCshN9TtrzEz6i_22dual_core_pdf_pipeline3app16api_verification17verify_llamaparse00B9_
FN:145,_RNCNCNvNtNtCshN9TtrzEz6i_22dual_core_pdf_pipeline3app16api_verification18verify_pymupdf_pro00B9_
FN:263,_RNCNvNtNtCshN9TtrzEz6i_22dual_core_pdf_pipeline3app16api_verification13verify_gemini0B7_
FN:397,_RNCNvNtNtCshN9TtrzEz6i_22dual_core_pdf_pipeline3app16api_verification13verify_vision0B7_
FN:369,_RNCNvNtNtCshN9TtrzEz6i_22dual_core_pdf_pipeline3app16api_verification14verify_pdfrest0B7_
FN:332,_RNCNvNtNtCshN9TtrzEz6i_22dual_core_pdf_pipeline3app16api_verification17verify_llamaparse0B7_
FN:192,_RNCNvNtNtCshN9TtrzEz6i_22dual_core_pdf_pipeline3app16api_verification18verify_document_ai0B7_
FN:140,_RNCNvNtNtCshN9TtrzEz6i_22dual_core_pdf_pipeline3app16api_verification18verify_pymupdf_pro0B7_
FN:102,_RNCNvNtNtCshN9TtrzEz6i_22dual_core_pdf_pipeline3app16api_verification19verify_all_api_keys0B7_
FN:269,_RNCNCNvNtNtCsdGsEM3RpwG4_22dual_core_pdf_pipeline3app16api_verification13verify_gemini00B9_
FN:298,_RNCNCNvNtNtCsdGsEM3RpwG4_22dual_core_pdf_pipeline3app16api_verification13verify_gemini0s0_0B9_
FN:312,_RNCNCNvNtNtCsdGsEM3RpwG4_22dual_core_pdf_pipeline3app16api_verification13verify_gemini0s1_0B9_
FN:272,_RNCNCNvNtNtCsdGsEM3RpwG4_22dual_core_pdf_pipeline3app16api_verification13verify_gemini0s_0B9_
FN:403,_RNCNCNvNtNtCsdGsEM3RpwG4_22dual_core_pdf_pipeline3app16api_verification13verify_vision00B9_
FN:373,_RNCNCNvNtNtCsdGsEM3RpwG4_22dual_core_pdf_pipeline3app16api_verification14verify_pdfrest00B9_
FN:336,_RNCNCNvNtNtCsdGsEM3RpwG4_22dual_core_pdf_pipeline3app16api_verification17verify_llamaparse00B9_
FN:145,_RNCNCNvNtNtCsdGsEM3RpwG4_22dual_core_pdf_pipeline3app16api_verification18verify_pymupdf_pro00B9_
FN:69,_RNCNvMNtNtCsdGsEM3RpwG4_22dual_core_pdf_pipeline3app16api_verificationNtB4_18VerificationReport24calculate_overall_status0B8_
FN:79,_RNCNvMNtNtCsdGsEM3RpwG4_22dual_core_pdf_pipeline3app16api_verificationNtB4_18VerificationReport24calculate_overall_statuss0_0B8_
FN:76,_RNCNvMNtNtCsdGsEM3RpwG4_22dual_core_pdf_pipeline3app16api_verificationNtB4_18VerificationReport24calculate_overall_statuss_0B8_
FN:263,_RNCNvNtNtCsdGsEM3RpwG4_22dual_core_pdf_pipeline3app16api_verification13verify_gemini0B7_
FN:397,_RNCNvNtNtCsdGsEM3RpwG4_22dual_core_pdf_pipeline3app16api_verification13verify_vision0B7_
FN:369,_RNCNvNtNtCsdGsEM3RpwG4_22dual_core_pdf_pipeline3app16api_verification14verify_pdfrest0B7_
FN:332,_RNCNvNtNtCsdGsEM3RpwG4_22dual_core_pdf_pipeline3app16api_verification17verify_llamaparse0B7_
FN:192,_RNCNvNtNtCsdGsEM3RpwG4_22dual_core_pdf_pipeline3app16api_verification18verify_document_ai0B7_
FN:140,_RNCNvNtNtCsdGsEM3RpwG4_22dual_core_pdf_pipeline3app16api_verification18verify_pymupdf_pro0B7_
FN:102,_RNCNvNtNtCsdGsEM3RpwG4_22dual_core_pdf_pipeline3app16api_verification19verify_all_api_keys0B7_
FN:68,_RNvMNtNtCsdGsEM3RpwG4_22dual_core_pdf_pipeline3app16api_verificationNtB2_18VerificationReport24calculate_overall_status
FN:56,_RNvMNtNtCsdGsEM3RpwG4_22dual_core_pdf_pipeline3app16api_verificationNtB2_18VerificationReport3new
FN:91,_RNvMNtNtCsdGsEM3RpwG4_22dual_core_pdf_pipeline3app16api_verificationNtB2_18VerificationReport9exit_code
FN:263,_RNvNtNtCsdGsEM3RpwG4_22dual_core_pdf_pipeline3app16api_verification13verify_gemini
FN:397,_RNvNtNtCsdGsEM3RpwG4_22dual_core_pdf_pipeline3app16api_verification13verify_vision
FN:369,_RNvNtNtCsdGsEM3RpwG4_22dual_core_pdf_pipeline3app16api_verification14verify_pdfrest
FN:332,_RNvNtNtCsdGsEM3RpwG4_22dual_core_pdf_pipeline3app16api_verification17verify_llamaparse
FN:192,_RNvNtNtCsdGsEM3RpwG4_22dual_core_pdf_pipeline3app16api_verification18verify_document_ai
FN:140,_RNvNtNtCsdGsEM3RpwG4_22dual_core_pdf_pipeline3app16api_verification18verify_pymupdf_pro
FN:102,_RNvNtNtCsdGsEM3RpwG4_22dual_core_pdf_pipeline3app16api_verification19verify_all_api_keys
FN:490,_RNvNtNtCsdGsEM3RpwG4_22dual_core_pdf_pipeline3app16api_verification20print_human_readable
FN:441,_RNvNtNtCsdGsEM3RpwG4_22dual_core_pdf_pipeline3app16api_verification24get_docai_error_guidance
FN:460,_RNvNtNtCsdGsEM3RpwG4_22dual_core_pdf_pipeline3app16api_verification25get_gemini_error_guidance
FN:428,_RNvNtNtCsdGsEM3RpwG4_22dual_core_pdf_pipeline3app16api_verification27determine_docai_auth_method
FNDA:24,_RNCNvMNtNtCshN9TtrzEz6i_22dual_core_pdf_pipeline3app16api_verificationNtB4_18VerificationReport24calculate_overall_status0B8_
FNDA:90,_RNCNvMNtNtCshN9TtrzEz6i_22dual_core_pdf_pipeline3app16api_verificationNtB4_18VerificationReport24calculate_overall_statuss0_0B8_
FNDA:24,_RNCNvMNtNtCshN9TtrzEz6i_22dual_core_pdf_pipeline3app16api_verificationNtB4_18VerificationReport24calculate_overall_statuss_0B8_
FNDA:15,_RNvMNtNtCshN9TtrzEz6i_22dual_core_pdf_pipeline3app16api_verificationNtB2_18VerificationReport24calculate_overall_status
FNDA:15,_RNvMNtNtCshN9TtrzEz6i_22dual_core_pdf_pipeline3app16api_verificationNtB2_18VerificationReport3new
FNDA:15,_RNvMNtNtCshN9TtrzEz6i_22dual_core_pdf_pipeline3app16api_verificationNtB2_18VerificationReport9exit_code
FNDA:16,_RNvNtNtCshN9TtrzEz6i_22dual_core_pdf_pipeline3app16api_verification13verify_gemini
FNDA:15,_RNvNtNtCshN9TtrzEz6i_22dual_core_pdf_pipeline3app16api_verification13verify_vision
FNDA:15,_RNvNtNtCshN9TtrzEz6i_22dual_core_pdf_pipeline3app16api_verification14verify_pdfrest
FNDA:15,_RNvNtNtCshN9TtrzEz6i_22dual_core_pdf_pipeline3app16api_verification17verify_llamaparse
FNDA:16,_RNvNtNtCshN9TtrzEz6i_22dual_core_pdf_pipeline3app16api_verification18verify_document_ai
FNDA:16,_RNvNtNtCshN9TtrzEz6i_22dual_core_pdf_pipeline3app16api_verification18verify_pymupdf_pro
FNDA:16,_RNvNtNtCshN9TtrzEz6i_22dual_core_pdf_pipeline3app16api_verification19verify_all_api_keys
FNDA:15,_RNvNtNtCshN9TtrzEz6i_22dual_core_pdf_pipeline3app16api_verification20print_human_readable
FNDA:0,_RNvNtNtCshN9TtrzEz6i_22dual_core_pdf_pipeline3app16api_verification24get_docai_error_guidance
FNDA:9,_RNvNtNtCshN9TtrzEz6i_22dual_core_pdf_pipeline3app16api_verification25get_gemini_error_guidance
FNDA:0,_RNvNtNtCshN9TtrzEz6i_22dual_core_pdf_pipeline3app16api_verification27determine_docai_auth_method
FNDA:10,_RNCNCNvNtNtCshN9TtrzEz6i_22dual_core_pdf_pipeline3app16api_verification13verify_gemini00B9_
FNDA:0,_RNCNCNvNtNtCshN9TtrzEz6i_22dual_core_pdf_pipeline3app16api_verification13verify_gemini0s0_0B9_
FNDA:9,_RNCNCNvNtNtCshN9TtrzEz6i_22dual_core_pdf_pipeline3app16api_verification13verify_gemini0s1_0B9_
FNDA:0,_RNCNCNvNtNtCshN9TtrzEz6i_22dual_core_pdf_pipeline3app16api_verification13verify_gemini0s_0B9_
FNDA:0,_RNCNCNvNtNtCshN9TtrzEz6i_22dual_core_pdf_pipeline3app16api_verification13verify_vision00B9_
FNDA:9,_RNCNCNvNtNtCshN9TtrzEz6i_22dual_core_pdf_pipeline3app16api_verification14verify_pdfrest00B9_
FNDA:9,_RNCNCNvNtNtCshN9TtrzEz6i_22dual_core_pdf_pipeline3app16api_verification17verify_llamaparse00B9_
FNDA:10,_RNCNCNvNtNtCshN9TtrzEz6i_22dual_core_pdf_pipeline3app16api_verification18verify_pymupdf_pro00B9_
FNDA:16,_RNCNvNtNtCshN9TtrzEz6i_22dual_core_pdf_pipeline3app16api_verification13verify_gemini0B7_
FNDA:15,_RNCNvNtNtCshN9TtrzEz6i_22dual_core_pdf_pipeline3app16api_verification13verify_vision0B7_
FNDA:15,_RNCNvNtNtCshN9TtrzEz6i_22dual_core_pdf_pipeline3app16api_verification14verify_pdfrest0B7_
FNDA:15,_RNCNvNtNtCshN9TtrzEz6i_22dual_core_pdf_pipeline3app16api_verification17verify_llamaparse0B7_
FNDA:16,_RNCNvNtNtCshN9TtrzEz6i_22dual_core_pdf_pipeline3app16api_verification18verify_document_ai0B7_
FNDA:16,_RNCNvNtNtCshN9TtrzEz6i_22dual_core_pdf_pipeline3app16api_verification18verify_pymupdf_pro0B7_
FNDA:16,_RNCNvNtNtCshN9TtrzEz6i_22dual_core_pdf_pipeline3app16api_verification19verify_all_api_keys0B7_
FNDA:0,_RNCNCNvNtNtCsdGsEM3RpwG4_22dual_core_pdf_pipeline3app16api_verification13verify_gemini00B9_
FNDA:0,_RNCNCNvNtNtCsdGsEM3RpwG4_22dual_core_pdf_pipeline3app16api_verification13verify_gemini0s0_0B9_
FNDA:0,_RNCNCNvNtNtCsdGsEM3RpwG4_22dual_core_pdf_pipeline3app16api_verification13verify_gemini0s1_0B9_
FNDA:0,_RNCNCNvNtNtCsdGsEM3RpwG4_22dual_core_pdf_pipeline3app16api_verification13verify_gemini0s_0B9_
FNDA:0,_RNCNCNvNtNtCsdGsEM3RpwG4_22dual_core_pdf_pipeline3app16api_verification13verify_vision00B9_
FNDA:0,_RNCNCNvNtNtCsdGsEM3RpwG4_22dual_core_pdf_pipeline3app16api_verification14verify_pdfrest00B9_
FNDA:0,_RNCNCNvNtNtCsdGsEM3RpwG4_22dual_core_pdf_pipeline3app16api_verification17verify_llamaparse00B9_
FNDA:0,_RNCNCNvNtNtCsdGsEM3RpwG4_22dual_core_pdf_pipeline3app16api_verification18verify_pymupdf_pro00B9_
FNDA:0,_RNCNvMNtNtCsdGsEM3RpwG4_22dual_core_pdf_pipeline3app16api_verificationNtB4_18VerificationReport24calculate_overall_status0B8_
FNDA:0,_RNCNvMNtNtCsdGsEM3RpwG4_22dual_core_pdf_pipeline3app16api_verificationNtB4_18VerificationReport24calculate_overall_statuss0_0B8_
FNDA:0,_RNCNvMNtNtCsdGsEM3RpwG4_22dual_core_pdf_pipeline3app16api_verificationNtB4_18VerificationReport24calculate_overall_statuss_0B8_
FNDA:0,_RNCNvNtNtCsdGsEM3RpwG4_22dual_core_pdf_pipeline3app16api_verification13verify_gemini0B7_
FNDA:0,_RNCNvNtNtCsdGsEM3RpwG4_22dual_core_pdf_pipeline3app16api_verification13verify_vision0B7_
FNDA:0,_RNCNvNtNtCsdGsEM3RpwG4_22dual_core_pdf_pipeline3app16api_verification14verify_pdfrest0B7_
FNDA:0,_RNCNvNtNtCsdGsEM3RpwG4_22dual_core_pdf_pipeline3app16api_verification17verify_llamaparse0B7_
FNDA:0,_RNCNvNtNtCsdGsEM3RpwG4_22dual_core_pdf_pipeline3app16api_verification18verify_document_ai0B7_
FNDA:0,_RNCNvNtNtCsdGsEM3RpwG4_22dual_core_pdf_pipeline3app16api_verification18verify_pymupdf_pro0B7_
FNDA:0,_RNCNvNtNtCsdGsEM3RpwG4_22dual_core_pdf_pipeline3app16api_verification19verify_all_api_keys0B7_
FNDA:0,_RNvMNtNtCsdGsEM3RpwG4_22dual_core_pdf_pipeline3app16api_verificationNtB2_18VerificationReport24calculate_overall_status
FNDA:0,_RNvMNtNtCsdGsEM3RpwG4_22dual_core_pdf_pipeline3app16api_verificationNtB2_18VerificationReport3new
FNDA:0,_RNvMNtNtCsdGsEM3RpwG4_22dual_core_pdf_pipeline3app16api_verificationNtB2_18VerificationReport9exit_code
FNDA:0,_RNvNtNtCsdGsEM3RpwG4_22dual_core_pdf_pipeline3app16api_verification13verify_gemini
FNDA:0,_RNvNtNtCsdGsEM3RpwG4_22dual_core_pdf_pipeline3app16api_verification13verify_vision
FNDA:0,_RNvNtNtCsdGsEM3RpwG4_22dual_core_pdf_pipeline3app16api_verification14verify_pdfrest
FNDA:0,_RNvNtNtCsdGsEM3RpwG4_22dual_core_pdf_pipeline3app16api_verification17verify_llamaparse
FNDA:0,_RNvNtNtCsdGsEM3RpwG4_22dual_core_pdf_pipeline3app16api_verification18verify_document_ai
FNDA:0,_RNvNtNtCsdGsEM3RpwG4_22dual_core_pdf_pipeline3app16api_verification18verify_pymupdf_pro
FNDA:0,_RNvNtNtCsdGsEM3RpwG4_22dual_core_pdf_pipeline3app16api_verification19verify_all_api_keys
FNDA:0,_RNvNtNtCsdGsEM3RpwG4_22dual_core_pdf_pipeline3app16api_verification20print_human_readable
FNDA:0,_RNvNtNtCsdGsEM3RpwG4_22dual_core_pdf_pipeline3app16api_verification24get_docai_error_guidance
FNDA:0,_RNvNtNtCsdGsEM3RpwG4_22dual_core_pdf_pipeline3app16api_verification25get_gemini_error_guidance
FNDA:0,_RNvNtNtCsdGsEM3RpwG4_22dual_core_pdf_pipeline3app16api_verification27determine_docai_auth_method
FNF:32
FNH:27
DA:56,15
DA:57,15
DA:58,15
DA:60,15
DA:61,15
DA:62,15
DA:63,15
DA:64,15
DA:65,15
DA:68,15
DA:69,24
DA:70,24
DA:71,15
DA:72,24
DA:74,15
DA:75,15
DA:76,24
DA:77,15
DA:78,15
DA:79,90
DA:81,15
DA:82,15
DA:83,0
DA:84,0
DA:86,0
DA:88,15
DA:91,15
DA:92,15
DA:93,0
DA:94,0
DA:95,15
DA:96,0
DA:98,15
DA:102,16
DA:103,16
DA:106,16
DA:109,16
DA:112,16
DA:117,15
DA:120,15
DA:123,15
DA:125,15
DA:127,15
DA:128,0
DA:129,0
DA:130,0
DA:131,0
DA:132,15
DA:133,15
DA:134,15
DA:136,15
DA:137,15
DA:140,16
DA:141,16
DA:144,16
DA:145,16
DA:146,6
DA:147,6
DA:148,6
DA:149,6
DA:150,6
DA:151,6
DA:152,6
DA:153,6
DA:154,6
DA:155,6
DA:156,6
DA:157,10
DA:161,10
DA:162,10
DA:163,0
DA:164,0
DA:165,0
DA:166,0
DA:167,0
DA:168,0
DA:169,0
DA:170,0
DA:171,0
DA:172,0
DA:173,0
DA:174,0
DA:175,0
DA:176,0
DA:177,10
DA:181,10
DA:182,10
DA:183,10
DA:184,10
DA:185,10
DA:186,10
DA:187,10
DA:188,10
DA:189,16
DA:192,16
DA:193,16
DA:195,16
DA:196,10
DA:198,6
DA:199,6
DA:200,6
DA:201,6
DA:202,6
DA:203,6
DA:204,6
DA:205,6
DA:206,6
DA:207,6
DA:208,6
DA:213,10
DA:214,0
DA:215,0
DA:216,0
DA:217,0
DA:218,0
DA:219,0
DA:220,0
DA:221,0
DA:222,0
DA:223,0
DA:224,0
DA:225,0
DA:226,10
DA:229,10
DA:230,0
DA:231,0
DA:232,0
DA:233,0
DA:234,0
DA:235,0
DA:236,0
DA:237,0
DA:238,0
DA:239,0
DA:240,0
DA:241,0
DA:242,0
DA:243,0
DA:244,0
DA:245,0
DA:246,0
DA:247,0
DA:248,0
DA:251,10
DA:252,10
DA:253,10
DA:254,10
DA:255,10
DA:256,10
DA:257,10
DA:258,10
DA:260,16
DA:263,16
DA:264,16
DA:267,16
DA:269,16
DA:271,6
DA:272,6
DA:274,6
DA:275,6
DA:276,6
DA:277,6
DA:278,6
DA:279,6
DA:280,6
DA:281,6
DA:282,6
DA:283,6
DA:284,6
DA:285,6
DA:286,0
DA:287,10
DA:290,10
DA:291,10
DA:293,0
DA:294,0
DA:295,0
DA:296,0
DA:297,0
DA:298,0
DA:299,0
DA:301,0
DA:304,9
DA:305,9
DA:307,9
DA:308,9
DA:309,9
DA:310,9
DA:311,9
DA:312,9
DA:313,9
DA:315,0
DA:320,0
DA:321,0
DA:322,0
DA:323,0
DA:324,0
DA:325,0
DA:326,0
DA:327,0
DA:329,15
DA:332,15
DA:333,15
DA:334,15
DA:336,15
DA:337,6
DA:338,6
DA:339,6
DA:340,6
DA:341,6
DA:342,6
DA:343,6
DA:344,6
DA:345,9
DA:347,9
DA:348,9
DA:349,0
DA:350,0
DA:351,0
DA:352,0
DA:353,0
DA:354,0
DA:355,0
DA:356,0
DA:357,9
DA:359,9
DA:360,9
DA:361,9
DA:362,9
DA:363,9
DA:364,9
DA:365,9
DA:366,9
DA:367,15
DA:369,15
DA:370,15
DA:371,15
DA:373,15
DA:374,6
DA:375,6
DA:376,6
DA:377,6
DA:378,6
DA:379,6
DA:380,6
DA:381,6
DA:382,6
DA:383,6
DA:384,6
DA:385,9
DA:387,9
DA:388,9
DA:389,9
DA:390,9
DA:391,9
DA:392,9
DA:393,9
DA:394,9
DA:395,15
DA:397,15
DA:398,15
DA:399,15
DA:400,15
DA:401,15
DA:403,15
DA:404,15
DA:405,15
DA:406,15
DA:407,15
DA:408,15
DA:409,15
DA:410,15
DA:411,15
DA:412,15
DA:413,15
DA:414,15
DA:415,0
DA:417,0
DA:418,0
DA:419,0
DA:420,0
DA:421,0
DA:422,0
DA:423,0
DA:424,0
DA:425,15
DA:428,0
DA:429,0
DA:430,0
DA:431,0
DA:432,0
DA:433,0
DA:434,0
DA:436,0
DA:438,0
DA:441,0
DA:442,0
DA:443,0
DA:444,0
DA:445,0
DA:446,0
DA:447,0
DA:448,0
DA:449,0
DA:452,0
DA:453,0
DA:454,0
DA:455,0
DA:457,0
DA:460,9
DA:461,9
DA:462,0
DA:463,0
DA:464,0
DA:465,0
DA:466,0
DA:467,0
DA:468,0
DA:469,0
DA:471,0
DA:474,9
DA:475,9
DA:476,0
DA:477,0
DA:478,0
DA:479,0
DA:480,0
DA:481,9
DA:484,0
DA:485,0
DA:487,9
DA:490,15
DA:491,15
DA:492,15
DA:493,15
DA:494,15
DA:495,15
DA:497,105
DA:498,90
DA:499,27
DA:500,0
DA:501,24
DA:502,39
DA:505,90
DA:507,90
DA:508,36
DA:509,54
DA:511,90
DA:512,63
DA:513,63
DA:515,90
DA:516,63
DA:517,63
DA:519,90
DA:522,15
DA:523,0
DA:524,0
DA:525,15
DA:526,0
DA:529,15
DA:530,15
DA:531,15
DA:533,15
DA:535,15
DA:536,15
BRF:0
BRH:0
LF:383
LH:247
end_of_record
SF:/Volumes/Macintosh_HD/Users/user298993/Documents/GitHub/bank-statement-fidelity-editor/src/app/audit.rs
FN:24,_RINvMNtNtCshN9TtrzEz6i_22dual_core_pdf_pipeline3app5auditNtB3_8AuditLog4openReEB7_
FN:28,_RNCINvMNtNtCshN9TtrzEz6i_22dual_core_pdf_pipeline3app5auditNtB5_8AuditLog4openReE0B9_
FN:200,_RNCNvMs_NtNtCshN9TtrzEz6i_22dual_core_pdf_pipeline3app5auditNtB6_14AuditLogParser10parse_file0Ba_
FN:312,_RNCNvMs_NtNtCshN9TtrzEz6i_22dual_core_pdf_pipeline3app5auditNtB6_14AuditLogParser10parse_lines_0Ba_
FN:310,_RNCNvMs_NtNtCshN9TtrzEz6i_22dual_core_pdf_pipeline3app5auditNtB6_14AuditLogParser10parse_line0Ba_
FN:101,_RNCNvMNtNtCshN9TtrzEz6i_22dual_core_pdf_pipeline3app5auditNtB4_8AuditLog11append_line0B8_
FN:109,_RNCNvMNtNtCshN9TtrzEz6i_22dual_core_pdf_pipeline3app5auditNtB4_8AuditLog11ensure_open0B8_
FN:119,_RNCNvMNtNtCshN9TtrzEz6i_22dual_core_pdf_pipeline3app5auditNtB4_8AuditLog11ensure_opens_0B8_
FN:76,_RNCNvMNtNtCshN9TtrzEz6i_22dual_core_pdf_pipeline3app5auditNtB4_8AuditLog5write0B8_
FN:225,_RNCNvMs_NtNtCshN9TtrzEz6i_22dual_core_pdf_pipeline3app5auditNtB6_14AuditLogParser10parse_files0_0Ba_
FN:220,_RNCNvMs_NtNtCshN9TtrzEz6i_22dual_core_pdf_pipeline3app5auditNtB6_14AuditLogParser10parse_files_0Ba_
FN:171,_RNCNvNtNtCshN9TtrzEz6i_22dual_core_pdf_pipeline3app5audit21snapshot_link_or_copy0B7_
FN:182,_RNCNvNtNtCshN9TtrzEz6i_22dual_core_pdf_pipeline3app5audit21snapshot_link_or_copys_0B7_
FN:95,_RNvMNtNtCshN9TtrzEz6i_22dual_core_pdf_pipeline3app5auditNtB2_8AuditLog11append_line
FN:106,_RNvMNtNtCshN9TtrzEz6i_22dual_core_pdf_pipeline3app5auditNtB2_8AuditLog11ensure_open
FN:146,_RNvMNtNtCshN9TtrzEz6i_22dual_core_pdf_pipeline3app5auditNtB2_8AuditLog13snapshots_dir
FN:151,_RNvMNtNtCshN9TtrzEz6i_22dual_core_pdf_pipeline3app5auditNtB2_8AuditLog17snapshot_path_for
FN:39,_RNvMNtNtCshN9TtrzEz6i_22dual_core_pdf_pipeline3app5auditNtB2_8AuditLog5write
FN:196,_RNvMs_NtNtCshN9TtrzEz6i_22dual_core_pdf_pipeline3app5auditNtB4_14AuditLogParser10parse_file
FN:238,_RNvMs_NtNtCshN9TtrzEz6i_22dual_core_pdf_pipeline3app5auditNtB4_14AuditLogParser10parse_line
FN:168,_RNvNtNtCshN9TtrzEz6i_22dual_core_pdf_pipeline3app5audit21snapshot_link_or_copy
FN:24,_RINvMNtNtCshN9TtrzEz6i_22dual_core_pdf_pipeline3app5auditNtB3_8AuditLog4openRNtNtCsht3nMU9UgFu_3std4path4PathECs5JkGRjatpCE_23au_statements_deep_dive
FN:28,_RNCINvMNtNtCshN9TtrzEz6i_22dual_core_pdf_pipeline3app5auditNtB5_8AuditLog4openRNtNtCsht3nMU9UgFu_3std4path4PathE0Cs5JkGRjatpCE_23au_statements_deep_dive
FN:24,_RINvMNtNtCshN9TtrzEz6i_22dual_core_pdf_pipeline3app5auditNtB3_8AuditLog4openRNtNtCsht3nMU9UgFu_3std4path4PathECs4dYnwQwZsBb_18au_transfer_stress
FN:28,_RNCINvMNtNtCshN9TtrzEz6i_22dual_core_pdf_pipeline3app5auditNtB5_8AuditLog4openRNtNtCsht3nMU9UgFu_3std4path4PathE0Cs4dYnwQwZsBb_18au_transfer_stress
FN:24,_RINvMNtNtCshN9TtrzEz6i_22dual_core_pdf_pipeline3app5auditNtB3_8AuditLog4openRNtNtCsht3nMU9UgFu_3std4path4PathECs2YXHkKsVKMt_16cascade_fallback
FN:28,_RNCINvMNtNtCshN9TtrzEz6i_22dual_core_pdf_pipeline3app5auditNtB5_8AuditLog4openRNtNtCsht3nMU9UgFu_3std4path4PathE0Cs2YXHkKsVKMt_16cascade_fallback
FN:109,_RNCNvMNtNtCsdGsEM3RpwG4_22dual_core_pdf_pipeline3app5auditNtB4_8AuditLog11ensure_open0B8_
FN:119,_RNCNvMNtNtCsdGsEM3RpwG4_22dual_core_pdf_pipeline3app5auditNtB4_8AuditLog11ensure_opens_0B8_
FN:76,_RNCNvMNtNtCsdGsEM3RpwG4_22dual_core_pdf_pipeline3app5auditNtB4_8AuditLog5write0B8_
FN:225,_RNCNvMs_NtNtCsdGsEM3RpwG4_22dual_core_pdf_pipeline3app5auditNtB6_14AuditLogParser10parse_files0_0Ba_
FN:220,_RNCNvMs_NtNtCsdGsEM3RpwG4_22dual_core_pdf_pipeline3app5auditNtB6_14AuditLogParser10parse_files_0Ba_
FN:171,_RNCNvNtNtCsdGsEM3RpwG4_22dual_core_pdf_pipeline3app5audit21snapshot_link_or_copy0B7_
FN:182,_RNCNvNtNtCsdGsEM3RpwG4_22dual_core_pdf_pipeline3app5audit21snapshot_link_or_copys_0B7_
FN:106,_RNvMNtNtCsdGsEM3RpwG4_22dual_core_pdf_pipeline3app5auditNtB2_8AuditLog11ensure_open
FN:39,_RNvMNtNtCsdGsEM3RpwG4_22dual_core_pdf_pipeline3app5auditNtB2_8AuditLog5write
FN:196,_RNvMs_NtNtCsdGsEM3RpwG4_22dual_core_pdf_pipeline3app5auditNtB4_14AuditLogParser10parse_file
FN:238,_RNvMs_NtNtCsdGsEM3RpwG4_22dual_core_pdf_pipeline3app5auditNtB4_14AuditLogParser10parse_line
FN:168,_RNvNtNtCsdGsEM3RpwG4_22dual_core_pdf_pipeline3app5audit21snapshot_link_or_copy
FN:101,_RNCNvMNtNtCsdGsEM3RpwG4_22dual_core_pdf_pipeline3app5auditNtB4_8AuditLog11append_line0B8_
FN:95,_RNvMNtNtCsdGsEM3RpwG4_22dual_core_pdf_pipeline3app5auditNtB2_8AuditLog11append_line
FN:146,_RNvMNtNtCsdGsEM3RpwG4_22dual_core_pdf_pipeline3app5auditNtB2_8AuditLog13snapshots_dir
FN:151,_RNvMNtNtCsdGsEM3RpwG4_22dual_core_pdf_pipeline3app5auditNtB2_8AuditLog17snapshot_path_for
FN:310,_RNCNvMs_NtNtCsdGsEM3RpwG4_22dual_core_pdf_pipeline3app5auditNtB6_14AuditLogParser10parse_line0Ba_
FN:24,_RINvMNtNtCsdGsEM3RpwG4_22dual_core_pdf_pipeline3app5auditNtB3_8AuditLog4openRNtNtCsht3nMU9UgFu_3std4path4PathEB7_
FN:28,_RNCINvMNtNtCsdGsEM3RpwG4_22dual_core_pdf_pipeline3app5auditNtB5_8AuditLog4openRNtNtCsht3nMU9UgFu_3std4path4PathE0B9_
FN:200,_RNCNvMs_NtNtCsdGsEM3RpwG4_22dual_core_pdf_pipeline3app5auditNtB6_14AuditLogParser10parse_file0Ba_
FN:312,_RNCNvMs_NtNtCsdGsEM3RpwG4_22dual_core_pdf_pipeline3app5auditNtB6_14AuditLogParser10parse_lines_0Ba_
FN:372,_RNCNvNtNtNtCsdGsEM3RpwG4_22dual_core_pdf_pipeline3app5audit5testss_17roundtrip_recordss_0B9_
FN:381,_RNCNvNtNtNtCsdGsEM3RpwG4_22dual_core_pdf_pipeline3app5audit5testss_27value_containing_key_prefix0B9_
FN:417,_RNCNvNtNtNtCsdGsEM3RpwG4_22dual_core_pdf_pipeline3app5audit5testss_37parse_file_missing_returns_read_error0B9_
FN:437,_RNCNvNtNtNtCsdGsEM3RpwG4_22dual_core_pdf_pipeline3app5audit5testss_45snapshot_link_overwrites_existing_destination0B9_
FN:343,_RNvNtNtNtCsdGsEM3RpwG4_22dual_core_pdf_pipeline3app5audit5testss_17roundtrip_records
FN:378,_RNvNtNtNtCsdGsEM3RpwG4_22dual_core_pdf_pipeline3app5audit5testss_27value_containing_key_prefix
FN:413,_RNvNtNtNtCsdGsEM3RpwG4_22dual_core_pdf_pipeline3app5audit5testss_37parse_file_missing_returns_read_error
FN:432,_RNvNtNtNtCsdGsEM3RpwG4_22dual_core_pdf_pipeline3app5audit5testss_45snapshot_link_overwrites_existing_destination
FN:389,_RNvNtNtNtCsdGsEM3RpwG4_22dual_core_pdf_pipeline3app5audit5testss_70snapshot_link_creates_either_a_hard_link_or_a_copy_and_content_matches
FN:364,_RNCNvNtNtNtCsdGsEM3RpwG4_22dual_core_pdf_pipeline3app5audit5testss_17roundtrip_records0B9_
FN:24,_RINvMNtNtCshN9TtrzEz6i_22dual_core_pdf_pipeline3app5auditNtB3_8AuditLog4openRNtNtCsht3nMU9UgFu_3std4path4PathECslgI51dG6cCo_12font_cascade
FN:28,_RNCINvMNtNtCshN9TtrzEz6i_22dual_core_pdf_pipeline3app5auditNtB5_8AuditLog4openRNtNtCsht3nMU9UgFu_3std4path4PathE0CslgI51dG6cCo_12font_cascade
FN:24,_RINvMNtNtCshN9TtrzEz6i_22dual_core_pdf_pipeline3app5auditNtB3_8AuditLog4openRNtNtCsht3nMU9UgFu_3std4path4PathECs6EM3uTw5PuE_13runtime_smoke
FN:28,_RNCINvMNtNtCshN9TtrzEz6i_22dual_core_pdf_pipeline3app5auditNtB5_8AuditLog4openRNtNtCsht3nMU9UgFu_3std4path4PathE0Cs6EM3uTw5PuE_13runtime_smoke
FN:24,_RINvMNtNtCshN9TtrzEz6i_22dual_core_pdf_pipeline3app5auditNtB3_8AuditLog4openNtNtCsht3nMU9UgFu_3std4path7PathBufECs7C9q7pHIR3w_12stress_tests
FN:28,_RNCINvMNtNtCshN9TtrzEz6i_22dual_core_pdf_pipeline3app5auditNtB5_8AuditLog4openNtNtCsht3nMU9UgFu_3std4path7PathBufE0Cs7C9q7pHIR3w_12stress_tests
FN:24,_RINvMNtNtCshN9TtrzEz6i_22dual_core_pdf_pipeline3app5auditNtB3_8AuditLog4openRNtNtCsht3nMU9UgFu_3std4path4PathECshkqZRiG7CcO_12transparency
FN:28,_RNCINvMNtNtCshN9TtrzEz6i_22dual_core_pdf_pipeline3app5auditNtB5_8AuditLog4openRNtNtCsht3nMU9UgFu_3std4path4PathE0CshkqZRiG7CcO_12transparency
FN:24,_RINvMNtNtCshN9TtrzEz6i_22dual_core_pdf_pipeline3app5auditNtB3_8AuditLog4openRNtNtCsht3nMU9UgFu_3std4path4PathECs6WEal4RWrsj_12workflow_e2e
FN:28,_RNCINvMNtNtCshN9TtrzEz6i_22dual_core_pdf_pipeline3app5auditNtB5_8AuditLog4openRNtNtCsht3nMU9UgFu_3std4path4PathE0Cs6WEal4RWrsj_12workflow_e2e
FNDA:11,_RINvMNtNtCshN9TtrzEz6i_22dual_core_pdf_pipeline3app5auditNtB3_8AuditLog4openReEB7_
FNDA:0,_RNCINvMNtNtCshN9TtrzEz6i_22dual_core_pdf_pipeline3app5auditNtB5_8AuditLog4openReE0B9_
FNDA:0,_RNCNvMs_NtNtCshN9TtrzEz6i_22dual_core_pdf_pipeline3app5auditNtB6_14AuditLogParser10parse_file0Ba_
FNDA:0,_RNCNvMs_NtNtCshN9TtrzEz6i_22dual_core_pdf_pipeline3app5auditNtB6_14AuditLogParser10parse_lines_0Ba_
FNDA:0,_RNCNvMs_NtNtCshN9TtrzEz6i_22dual_core_pdf_pipeline3app5auditNtB6_14AuditLogParser10parse_line0Ba_
FNDA:0,_RNCNvMNtNtCshN9TtrzEz6i_22dual_core_pdf_pipeline3app5auditNtB4_8AuditLog11append_line0B8_
FNDA:0,_RNCNvMNtNtCshN9TtrzEz6i_22dual_core_pdf_pipeline3app5auditNtB4_8AuditLog11ensure_open0B8_
FNDA:0,_RNCNvMNtNtCshN9TtrzEz6i_22dual_core_pdf_pipeline3app5auditNtB4_8AuditLog11ensure_opens_0B8_
FNDA:0,_RNCNvMNtNtCshN9TtrzEz6i_22dual_core_pdf_pipeline3app5auditNtB4_8AuditLog5write0B8_
FNDA:0,_RNCNvMs_NtNtCshN9TtrzEz6i_22dual_core_pdf_pipeline3app5auditNtB6_14AuditLogParser10parse_files0_0Ba_
FNDA:0,_RNCNvMs_NtNtCshN9TtrzEz6i_22dual_core_pdf_pipeline3app5auditNtB6_14AuditLogParser10parse_files_0Ba_
FNDA:0,_RNCNvNtNtCshN9TtrzEz6i_22dual_core_pdf_pipeline3app5audit21snapshot_link_or_copy0B7_
FNDA:0,_RNCNvNtNtCshN9TtrzEz6i_22dual_core_pdf_pipeline3app5audit21snapshot_link_or_copys_0B7_
FNDA:0,_RNvMNtNtCshN9TtrzEz6i_22dual_core_pdf_pipeline3app5auditNtB2_8AuditLog11append_line
FNDA:2,_RNvMNtNtCshN9TtrzEz6i_22dual_core_pdf_pipeline3app5auditNtB2_8AuditLog11ensure_open
FNDA:0,_RNvMNtNtCshN9TtrzEz6i_22dual_core_pdf_pipeline3app5auditNtB2_8AuditLog13snapshots_dir
FNDA:2,_RNvMNtNtCshN9TtrzEz6i_22dual_core_pdf_pipeline3app5auditNtB2_8AuditLog17snapshot_path_for
FNDA:2,_RNvMNtNtCshN9TtrzEz6i_22dual_core_pdf_pipeline3app5auditNtB2_8AuditLog5write
FNDA:0,_RNvMs_NtNtCshN9TtrzEz6i_22dual_core_pdf_pipeline3app5auditNtB4_14AuditLogParser10parse_file
FNDA:0,_RNvMs_NtNtCshN9TtrzEz6i_22dual_core_pdf_pipeline3app5auditNtB4_14AuditLogParser10parse_line
FNDA:2,_RNvNtNtCshN9TtrzEz6i_22dual_core_pdf_pipeline3app5audit21snapshot_link_or_copy
FNDA:0,_RINvMNtNtCshN9TtrzEz6i_22dual_core_pdf_pipeline3app5auditNtB3_8AuditLog4openRNtNtCsht3nMU9UgFu_3std4path4PathECs5JkGRjatpCE_23au_statements_deep_dive
FNDA:0,_RNCINvMNtNtCshN9TtrzEz6i_22dual_core_pdf_pipeline3app5auditNtB5_8AuditLog4openRNtNtCsht3nMU9UgFu_3std4path4PathE0Cs5JkGRjatpCE_23au_statements_deep_dive
FNDA:0,_RINvMNtNtCshN9TtrzEz6i_22dual_core_pdf_pipeline3app5auditNtB3_8AuditLog4openRNtNtCsht3nMU9UgFu_3std4path4PathECs4dYnwQwZsBb_18au_transfer_stress
FNDA:0,_RNCINvMNtNtCshN9TtrzEz6i_22dual_core_pdf_pipeline3app5auditNtB5_8AuditLog4openRNtNtCsht3nMU9UgFu_3std4path4PathE0Cs4dYnwQwZsBb_18au_transfer_stress
FNDA:1,_RINvMNtNtCshN9TtrzEz6i_22dual_core_pdf_pipeline3app5auditNtB3_8AuditLog4openRNtNtCsht3nMU9UgFu_3std4path4PathECs2YXHkKsVKMt_16cascade_fallback
FNDA:0,_RNCINvMNtNtCshN9TtrzEz6i_22dual_core_pdf_pipeline3app5auditNtB5_8AuditLog4openRNtNtCsht3nMU9UgFu_3std4path4PathE0Cs2YXHkKsVKMt_16cascade_fallback
FNDA:0,_RNCNvMNtNtCsdGsEM3RpwG4_22dual_core_pdf_pipeline3app5auditNtB4_8AuditLog11ensure_open0B8_
FNDA:0,_RNCNvMNtNtCsdGsEM3RpwG4_22dual_core_pdf_pipeline3app5auditNtB4_8AuditLog11ensure_opens_0B8_
FNDA:0,_RNCNvMNtNtCsdGsEM3RpwG4_22dual_core_pdf_pipeline3app5auditNtB4_8AuditLog5write0B8_
FNDA:0,_RNCNvMs_NtNtCsdGsEM3RpwG4_22dual_core_pdf_pipeline3app5auditNtB6_14AuditLogParser10parse_files0_0Ba_
FNDA:1,_RNCNvMs_NtNtCsdGsEM3RpwG4_22dual_core_pdf_pipeline3app5auditNtB6_14AuditLogParser10parse_files_0Ba_
FNDA:0,_RNCNvNtNtCsdGsEM3RpwG4_22dual_core_pdf_pipeline3app5audit21snapshot_link_or_copy0B7_
FNDA:0,_RNCNvNtNtCsdGsEM3RpwG4_22dual_core_pdf_pipeline3app5audit21snapshot_link_or_copys_0B7_
FNDA:1,_RNvMNtNtCsdGsEM3RpwG4_22dual_core_pdf_pipeline3app5auditNtB2_8AuditLog11ensure_open
FNDA:1,_RNvMNtNtCsdGsEM3RpwG4_22dual_core_pdf_pipeline3app5auditNtB2_8AuditLog5write
FNDA:2,_RNvMs_NtNtCsdGsEM3RpwG4_22dual_core_pdf_pipeline3app5auditNtB4_14AuditLogParser10parse_file
FNDA:1,_RNvMs_NtNtCsdGsEM3RpwG4_22dual_core_pdf_pipeline3app5auditNtB4_14AuditLogParser10parse_line
FNDA:2,_RNvNtNtCsdGsEM3RpwG4_22dual_core_pdf_pipeline3app5audit21snapshot_link_or_copy
FNDA:0,_RNCNvMNtNtCsdGsEM3RpwG4_22dual_core_pdf_pipeline3app5auditNtB4_8AuditLog11append_line0B8_
FNDA:0,_RNvMNtNtCsdGsEM3RpwG4_22dual_core_pdf_pipeline3app5auditNtB2_8AuditLog11append_line
FNDA:0,_RNvMNtNtCsdGsEM3RpwG4_22dual_core_pdf_pipeline3app5auditNtB2_8AuditLog13snapshots_dir
FNDA:0,_RNvMNtNtCsdGsEM3RpwG4_22dual_core_pdf_pipeline3app5auditNtB2_8AuditLog17snapshot_path_for
FNDA:4,_RNCNvMs_NtNtCsdGsEM3RpwG4_22dual_core_pdf_pipeline3app5auditNtB6_14AuditLogParser10parse_line0Ba_
FNDA:1,_RINvMNtNtCsdGsEM3RpwG4_22dual_core_pdf_pipeline3app5auditNtB3_8AuditLog4openRNtNtCsht3nMU9UgFu_3std4path4PathEB7_
FNDA:0,_RNCINvMNtNtCsdGsEM3RpwG4_22dual_core_pdf_pipeline3app5auditNtB5_8AuditLog4openRNtNtCsht3nMU9UgFu_3std4path4PathE0B9_
FNDA:1,_RNCNvMs_NtNtCsdGsEM3RpwG4_22dual_core_pdf_pipeline3app5auditNtB6_14AuditLogParser10parse_file0Ba_
FNDA:4,_RNCNvMs_NtNtCsdGsEM3RpwG4_22dual_core_pdf_pipeline3app5auditNtB6_14AuditLogParser10parse_lines_0Ba_
FNDA:0,_RNCNvNtNtNtCsdGsEM3RpwG4_22dual_core_pdf_pipeline3app5audit5testss_17roundtrip_recordss_0B9_
FNDA:0,_RNCNvNtNtNtCsdGsEM3RpwG4_22dual_core_pdf_pipeline3app5audit5testss_27value_containing_key_prefix0B9_
FNDA:1,_RNCNvNtNtNtCsdGsEM3RpwG4_22dual_core_pdf_pipeline3app5audit5testss_37parse_file_missing_returns_read_error0B9_
FNDA:0,_RNCNvNtNtNtCsdGsEM3RpwG4_22dual_core_pdf_pipeline3app5audit5testss_45snapshot_link_overwrites_existing_destination0B9_
FNDA:1,_RNvNtNtNtCsdGsEM3RpwG4_22dual_core_pdf_pipeline3app5audit5testss_17roundtrip_records
FNDA:1,_RNvNtNtNtCsdGsEM3RpwG4_22dual_core_pdf_pipeline3app5audit5testss_27value_containing_key_prefix
FNDA:1,_RNvNtNtNtCsdGsEM3RpwG4_22dual_core_pdf_pipeline3app5audit5testss_37parse_file_missing_returns_read_error
FNDA:1,_RNvNtNtNtCsdGsEM3RpwG4_22dual_core_pdf_pipeline3app5audit5testss_45snapshot_link_overwrites_existing_destination
FNDA:1,_RNvNtNtNtCsdGsEM3RpwG4_22dual_core_pdf_pipeline3app5audit5testss_70snapshot_link_creates_either_a_hard_link_or_a_copy_and_content_matches
FNDA:1,_RNCNvNtNtNtCsdGsEM3RpwG4_22dual_core_pdf_pipeline3app5audit5testss_17roundtrip_records0B9_
FNDA:0,_RINvMNtNtCshN9TtrzEz6i_22dual_core_pdf_pipeline3app5auditNtB3_8AuditLog4openRNtNtCsht3nMU9UgFu_3std4path4PathECslgI51dG6cCo_12font_cascade
FNDA:0,_RNCINvMNtNtCshN9TtrzEz6i_22dual_core_pdf_pipeline3app5auditNtB5_8AuditLog4openRNtNtCsht3nMU9UgFu_3std4path4PathE0CslgI51dG6cCo_12font_cascade
FNDA:2,_RINvMNtNtCshN9TtrzEz6i_22dual_core_pdf_pipeline3app5auditNtB3_8AuditLog4openRNtNtCsht3nMU9UgFu_3std4path4PathECs6EM3uTw5PuE_13runtime_smoke
FNDA:0,_RNCINvMNtNtCshN9TtrzEz6i_22dual_core_pdf_pipeline3app5auditNtB5_8AuditLog4openRNtNtCsht3nMU9UgFu_3std4path4PathE0Cs6EM3uTw5PuE_13runtime_smoke
FNDA:1,_RINvMNtNtCshN9TtrzEz6i_22dual_core_pdf_pipeline3app5auditNtB3_8AuditLog4openNtNtCsht3nMU9UgFu_3std4path7PathBufECs7C9q7pHIR3w_12stress_tests
FNDA:0,_RNCINvMNtNtCshN9TtrzEz6i_22dual_core_pdf_pipeline3app5auditNtB5_8AuditLog4openNtNtCsht3nMU9UgFu_3std4path7PathBufE0Cs7C9q7pHIR3w_12stress_tests
FNDA:3,_RINvMNtNtCshN9TtrzEz6i_22dual_core_pdf_pipeline3app5auditNtB3_8AuditLog4openRNtNtCsht3nMU9UgFu_3std4path4PathECshkqZRiG7CcO_12transparency
FNDA:0,_RNCINvMNtNtCshN9TtrzEz6i_22dual_core_pdf_pipeline3app5auditNtB5_8AuditLog4openRNtNtCsht3nMU9UgFu_3std4path4PathE0CshkqZRiG7CcO_12transparency
FNDA:0,_RINvMNtNtCshN9TtrzEz6i_22dual_core_pdf_pipeline3app5auditNtB3_8AuditLog4openRNtNtCsht3nMU9UgFu_3std4path4PathECs6WEal4RWrsj_12workflow_e2e
FNDA:0,_RNCINvMNtNtCshN9TtrzEz6i_22dual_core_pdf_pipeline3app5auditNtB5_8AuditLog4openRNtNtCsht3nMU9UgFu_3std4path4PathE0Cs6WEal4RWrsj_12workflow_e2e
FNF:31
FNH:18
DA:24,19
DA:25,19
DA:26,19
DA:27,19
DA:28,19
DA:30,19
DA:32,19
DA:33,19
DA:34,19
DA:35,19
DA:36,19
DA:37,19
DA:39,3
DA:40,3
DA:41,3
DA:42,3
DA:43,3
DA:44,3
DA:45,3
DA:46,3
DA:47,3
DA:61,3
DA:62,3
DA:63,3
DA:64,3
DA:65,3
DA:66,3
DA:67,3
DA:68,3
DA:70,3
DA:72,3
DA:73,3
DA:74,3
DA:75,3
DA:76,3
DA:79,3
DA:80,3
DA:81,3
DA:82,3
DA:83,3
DA:85,3
DA:86,3
DA:95,0
DA:96,0
DA:97,0
DA:98,0
DA:99,0
DA:100,0
DA:101,0
DA:102,0
DA:103,0
DA:106,3
DA:107,3
DA:108,3
DA:109,3
DA:111,3
DA:112,3
DA:113,3
DA:114,3
DA:115,3
DA:116,3
DA:117,3
DA:118,3
DA:119,3
DA:122,3
DA:123,3
DA:124,3
DA:125,3
DA:128,3
DA:129,3
DA:130,3
DA:131,2
DA:132,2
DA:133,2
DA:134,0
DA:135,2
DA:136,0
DA:137,0
DA:139,0
DA:141,3
DA:142,0
DA:143,3
DA:144,3
DA:146,0
DA:147,0
DA:148,0
DA:151,2
DA:153,2
DA:154,2
DA:168,4
DA:169,4
DA:170,4
DA:171,4
DA:172,0
DA:173,4
DA:174,1
DA:175,1
DA:176,3
DA:177,4
DA:178,4
DA:179,0
DA:180,0
DA:181,0
DA:182,0
DA:183,0
DA:186,4
DA:196,2
DA:198,2
DA:199,1
DA:200,1
DA:201,1
DA:202,1
DA:203,1
DA:205,1
DA:206,1
DA:207,1
DA:208,1
DA:209,1
DA:210,1
DA:212,1
DA:213,1
DA:214,0
DA:215,0
DA:216,0
DA:217,1
DA:220,1
DA:221,0
DA:222,0
DA:224,0
DA:225,0
DA:226,0
DA:227,0
DA:228,0
DA:230,0
DA:231,0
DA:232,0
DA:235,0
DA:236,2
DA:238,1
DA:240,1
DA:241,1
DA:242,1
DA:243,1
DA:244,1
DA:245,1
DA:246,1
DA:247,1
DA:248,1
DA:251,1
DA:252,1
DA:253,0
DA:254,1
DA:255,1
DA:257,12
DA:258,11
DA:259,11
DA:260,11
DA:261,0
DA:263,11
DA:264,11
DA:267,11
DA:268,4
DA:269,4
DA:270,49
DA:271,49
DA:272,49
DA:273,0
DA:274,49
DA:275,0
DA:276,49
DA:277,4
DA:278,4
DA:279,45
DA:280,45
DA:283,4
DA:284,4
DA:286,4
DA:287,1
DA:288,3
DA:289,1
DA:290,2
DA:291,0
DA:292,2
DA:293,0
DA:294,0
DA:295,0
DA:296,0
DA:297,2
DA:300,7
DA:301,7
DA:302,7
DA:304,7
DA:305,7
DA:306,6
DA:307,5
DA:308,4
DA:309,3
DA:310,4
DA:311,1
DA:312,4
DA:313,1
DA:314,1
DA:315,1
DA:317,2
DA:323,1
DA:324,1
DA:325,1
DA:326,1
DA:327,1
DA:328,1
DA:329,1
DA:330,1
DA:331,1
DA:332,1
DA:334,1
DA:343,1
DA:344,1
DA:345,1
DA:347,1
DA:348,1
DA:349,1
DA:350,1
DA:351,1
DA:352,1
DA:353,1
DA:354,1
DA:355,1
DA:356,1
DA:357,1
DA:358,1
DA:360,1
DA:362,1
DA:363,1
DA:364,1
DA:366,1
DA:367,1
DA:368,1
DA:369,1
DA:370,1
DA:372,1
DA:373,1
DA:374,1
DA:375,1
DA:378,1
DA:379,1
DA:380,1
DA:381,1
DA:382,1
DA:383,1
DA:384,1
DA:385,1
DA:386,1
DA:389,1
DA:391,1
DA:392,1
DA:393,1
DA:394,1
DA:396,1
DA:397,1
DA:400,1
DA:401,1
DA:405,1
DA:406,1
DA:407,1
DA:408,0
DA:409,1
DA:410,1
DA:413,1
DA:414,1
DA:415,1
DA:416,1
DA:417,1
DA:418,1
DA:419,1
DA:420,0
DA:421,1
DA:424,0
DA:427,1
DA:428,1
DA:429,1
DA:432,1
DA:433,1
DA:434,1
DA:435,1
DA:436,1
DA:437,1
DA:438,1
DA:440,1
DA:441,1
DA:442,1
DA:443,1
BRF:0
BRH:0
LF:308
LH:248
end_of_record
SF:/Volumes/Macintosh_HD/Users/user298993/Documents/GitHub/bank-statement-fidelity-editor/src/app/cli.rs
FN:691,_RNCNvNtNtCshN9TtrzEz6i_22dual_core_pdf_pipeline3app3cli12indent_block0B7_
FN:418,_RNCNvNtNtCshN9TtrzEz6i_22dual_core_pdf_pipeline3app3cli12run_selftests_0B7_
FN:1053,_RNCNvNtNtCshN9TtrzEz6i_22dual_core_pdf_pipeline3app3cli9run_inners0_0B7_
FN:1258,_RNCNCNvNtNtCshN9TtrzEz6i_22dual_core_pdf_pipeline3app3cli9run_inners3_00B9_
FN:1207,_RNCNvNtNtCshN9TtrzEz6i_22dual_core_pdf_pipeline3app3cli9run_inners2_0B7_
FN:1232,_RNCNvNtNtCshN9TtrzEz6i_22dual_core_pdf_pipeline3app3cli9run_inners3_0B7_
FN:609,_RNCNCNvNtNtCsdGsEM3RpwG4_22dual_core_pdf_pipeline3app3cli10run_doctor00B9_
FN:1258,_RNCNCNvNtNtCsdGsEM3RpwG4_22dual_core_pdf_pipeline3app3cli9run_inners3_00B9_
FN:609,_RNCNvNtNtCsdGsEM3RpwG4_22dual_core_pdf_pipeline3app3cli10run_doctor0B7_
FN:691,_RNCNvNtNtCsdGsEM3RpwG4_22dual_core_pdf_pipeline3app3cli12indent_block0B7_
FN:374,_RNCNvNtNtCsdGsEM3RpwG4_22dual_core_pdf_pipeline3app3cli12run_selftest0B7_
FN:434,_RNCNvNtNtCsdGsEM3RpwG4_22dual_core_pdf_pipeline3app3cli12run_selftests0_0B7_
FN:437,_RNCNvNtNtCsdGsEM3RpwG4_22dual_core_pdf_pipeline3app3cli12run_selftests1_0B7_
FN:418,_RNCNvNtNtCsdGsEM3RpwG4_22dual_core_pdf_pipeline3app3cli12run_selftests_0B7_
FN:684,_RNCNvNtNtCsdGsEM3RpwG4_22dual_core_pdf_pipeline3app3cli14is_env_present0B7_
FN:309,_RNCNvNtNtCsdGsEM3RpwG4_22dual_core_pdf_pipeline3app3cli17validate_pdf_path0B7_
FN:316,_RNCNvNtNtCsdGsEM3RpwG4_22dual_core_pdf_pipeline3app3cli17validate_pdf_paths0_0B7_
FN:310,_RNCNvNtNtCsdGsEM3RpwG4_22dual_core_pdf_pipeline3app3cli17validate_pdf_paths_0B7_
FN:782,_RNCNvNtNtCsdGsEM3RpwG4_22dual_core_pdf_pipeline3app3cli9run_inner0B7_
FN:1053,_RNCNvNtNtCsdGsEM3RpwG4_22dual_core_pdf_pipeline3app3cli9run_inners0_0B7_
FN:1106,_RNCNvNtNtCsdGsEM3RpwG4_22dual_core_pdf_pipeline3app3cli9run_inners1_0B7_
FN:1207,_RNCNvNtNtCsdGsEM3RpwG4_22dual_core_pdf_pipeline3app3cli9run_inners2_0B7_
FN:1232,_RNCNvNtNtCsdGsEM3RpwG4_22dual_core_pdf_pipeline3app3cli9run_inners3_0B7_
FN:783,_RNCNvNtNtCsdGsEM3RpwG4_22dual_core_pdf_pipeline3app3cli9run_inners_0B7_
FN:257,_RNvNtNtCsdGsEM3RpwG4_22dual_core_pdf_pipeline3app3cli10parse_bbox
FN:532,_RNvNtNtCsdGsEM3RpwG4_22dual_core_pdf_pipeline3app3cli10run_doctor
FN:689,_RNvNtNtCsdGsEM3RpwG4_22dual_core_pdf_pipeline3app3cli12indent_block
FN:517,_RNvNtNtCsdGsEM3RpwG4_22dual_core_pdf_pipeline3app3cli12print_status
FN:367,_RNvNtNtCsdGsEM3RpwG4_22dual_core_pdf_pipeline3app3cli12run_selftest
FN:673,_RNvNtNtCsdGsEM3RpwG4_22dual_core_pdf_pipeline3app3cli14is_env_present
FN:302,_RNvNtNtCsdGsEM3RpwG4_22dual_core_pdf_pipeline3app3cli17validate_pdf_path
FN:325,_RNvNtNtCsdGsEM3RpwG4_22dual_core_pdf_pipeline3app3cli24wait_for_terminal_result
FN:696,_RNvNtNtCsdGsEM3RpwG4_22dual_core_pdf_pipeline3app3cli3run
FN:711,_RNvNtNtCsdGsEM3RpwG4_22dual_core_pdf_pipeline3app3cli9run_inner
FN:609,_RNCNCNvNtNtCshN9TtrzEz6i_22dual_core_pdf_pipeline3app3cli10run_doctor00B9_
FN:609,_RNCNvNtNtCshN9TtrzEz6i_22dual_core_pdf_pipeline3app3cli10run_doctor0B7_
FN:374,_RNCNvNtNtCshN9TtrzEz6i_22dual_core_pdf_pipeline3app3cli12run_selftest0B7_
FN:434,_RNCNvNtNtCshN9TtrzEz6i_22dual_core_pdf_pipeline3app3cli12run_selftests0_0B7_
FN:437,_RNCNvNtNtCshN9TtrzEz6i_22dual_core_pdf_pipeline3app3cli12run_selftests1_0B7_
FN:684,_RNCNvNtNtCshN9TtrzEz6i_22dual_core_pdf_pipeline3app3cli14is_env_present0B7_
FN:309,_RNCNvNtNtCshN9TtrzEz6i_22dual_core_pdf_pipeline3app3cli17validate_pdf_path0B7_
FN:316,_RNCNvNtNtCshN9TtrzEz6i_22dual_core_pdf_pipeline3app3cli17validate_pdf_paths0_0B7_
FN:310,_RNCNvNtNtCshN9TtrzEz6i_22dual_core_pdf_pipeline3app3cli17validate_pdf_paths_0B7_
FN:782,_RNCNvNtNtCshN9TtrzEz6i_22dual_core_pdf_pipeline3app3cli9run_inner0B7_
FN:1106,_RNCNvNtNtCshN9TtrzEz6i_22dual_core_pdf_pipeline3app3cli9run_inners1_0B7_
FN:783,_RNCNvNtNtCshN9TtrzEz6i_22dual_core_pdf_pipeline3app3cli9run_inners_0B7_
FN:257,_RNvNtNtCshN9TtrzEz6i_22dual_core_pdf_pipeline3app3cli10parse_bbox
FN:532,_RNvNtNtCshN9TtrzEz6i_22dual_core_pdf_pipeline3app3cli10run_doctor
FN:689,_RNvNtNtCshN9TtrzEz6i_22dual_core_pdf_pipeline3app3cli12indent_block
FN:517,_RNvNtNtCshN9TtrzEz6i_22dual_core_pdf_pipeline3app3cli12print_status
FN:367,_RNvNtNtCshN9TtrzEz6i_22dual_core_pdf_pipeline3app3cli12run_selftest
FN:673,_RNvNtNtCshN9TtrzEz6i_22dual_core_pdf_pipeline3app3cli14is_env_present
FN:302,_RNvNtNtCshN9TtrzEz6i_22dual_core_pdf_pipeline3app3cli17validate_pdf_path
FN:325,_RNvNtNtCshN9TtrzEz6i_22dual_core_pdf_pipeline3app3cli24wait_for_terminal_result
FN:696,_RNvNtNtCshN9TtrzEz6i_22dual_core_pdf_pipeline3app3cli3run
FN:711,_RNvNtNtCshN9TtrzEz6i_22dual_core_pdf_pipeline3app3cli9run_inner
FNDA:0,_RNCNvNtNtCshN9TtrzEz6i_22dual_core_pdf_pipeline3app3cli12indent_block0B7_
FNDA:0,_RNCNvNtNtCshN9TtrzEz6i_22dual_core_pdf_pipeline3app3cli12run_selftests_0B7_
FNDA:0,_RNCNvNtNtCshN9TtrzEz6i_22dual_core_pdf_pipeline3app3cli9run_inners0_0B7_
FNDA:0,_RNCNCNvNtNtCshN9TtrzEz6i_22dual_core_pdf_pipeline3app3cli9run_inners3_00B9_
FNDA:0,_RNCNvNtNtCshN9TtrzEz6i_22dual_core_pdf_pipeline3app3cli9run_inners2_0B7_
FNDA:0,_RNCNvNtNtCshN9TtrzEz6i_22dual_core_pdf_pipeline3app3cli9run_inners3_0B7_
FNDA:0,_RNCNCNvNtNtCsdGsEM3RpwG4_22dual_core_pdf_pipeline3app3cli10run_doctor00B9_
FNDA:0,_RNCNCNvNtNtCsdGsEM3RpwG4_22dual_core_pdf_pipeline3app3cli9run_inners3_00B9_
FNDA:0,_RNCNvNtNtCsdGsEM3RpwG4_22dual_core_pdf_pipeline3app3cli10run_doctor0B7_
FNDA:0,_RNCNvNtNtCsdGsEM3RpwG4_22dual_core_pdf_pipeline3app3cli12indent_block0B7_
FNDA:0,_RNCNvNtNtCsdGsEM3RpwG4_22dual_core_pdf_pipeline3app3cli12run_selftest0B7_
FNDA:0,_RNCNvNtNtCsdGsEM3RpwG4_22dual_core_pdf_pipeline3app3cli12run_selftests0_0B7_
FNDA:0,_RNCNvNtNtCsdGsEM3RpwG4_22dual_core_pdf_pipeline3app3cli12run_selftests1_0B7_
FNDA:0,_RNCNvNtNtCsdGsEM3RpwG4_22dual_core_pdf_pipeline3app3cli12run_selftests_0B7_
FNDA:0,_RNCNvNtNtCsdGsEM3RpwG4_22dual_core_pdf_pipeline3app3cli14is_env_present0B7_
FNDA:0,_RNCNvNtNtCsdGsEM3RpwG4_22dual_core_pdf_pipeline3app3cli17validate_pdf_path0B7_
FNDA:0,_RNCNvNtNtCsdGsEM3RpwG4_22dual_core_pdf_pipeline3app3cli17validate_pdf_paths0_0B7_
FNDA:0,_RNCNvNtNtCsdGsEM3RpwG4_22dual_core_pdf_pipeline3app3cli17validate_pdf_paths_0B7_
FNDA:0,_RNCNvNtNtCsdGsEM3RpwG4_22dual_core_pdf_pipeline3app3cli9run_inner0B7_
FNDA:0,_RNCNvNtNtCsdGsEM3RpwG4_22dual_core_pdf_pipeline3app3cli9run_inners0_0B7_
FNDA:0,_RNCNvNtNtCsdGsEM3RpwG4_22dual_core_pdf_pipeline3app3cli9run_inners1_0B7_
FNDA:0,_RNCNvNtNtCsdGsEM3RpwG4_22dual_core_pdf_pipeline3app3cli9run_inners2_0B7_
FNDA:0,_RNCNvNtNtCsdGsEM3RpwG4_22dual_core_pdf_pipeline3app3cli9run_inners3_0B7_
FNDA:0,_RNCNvNtNtCsdGsEM3RpwG4_22dual_core_pdf_pipeline3app3cli9run_inners_0B7_
FNDA:0,_RNvNtNtCsdGsEM3RpwG4_22dual_core_pdf_pipeline3app3cli10parse_bbox
FNDA:0,_RNvNtNtCsdGsEM3RpwG4_22dual_core_pdf_pipeline3app3cli10run_doctor
FNDA:0,_RNvNtNtCsdGsEM3RpwG4_22dual_core_pdf_pipeline3app3cli12indent_block
FNDA:0,_RNvNtNtCsdGsEM3RpwG4_22dual_core_pdf_pipeline3app3cli12print_status
FNDA:0,_RNvNtNtCsdGsEM3RpwG4_22dual_core_pdf_pipeline3app3cli12run_selftest
FNDA:0,_RNvNtNtCsdGsEM3RpwG4_22dual_core_pdf_pipeline3app3cli14is_env_present
FNDA:0,_RNvNtNtCsdGsEM3RpwG4_22dual_core_pdf_pipeline3app3cli17validate_pdf_path
FNDA:0,_RNvNtNtCsdGsEM3RpwG4_22dual_core_pdf_pipeline3app3cli24wait_for_terminal_result
FNDA:0,_RNvNtNtCsdGsEM3RpwG4_22dual_core_pdf_pipeline3app3cli3run
FNDA:0,_RNvNtNtCsdGsEM3RpwG4_22dual_core_pdf_pipeline3app3cli9run_inner
FNDA:12,_RNCNCNvNtNtCshN9TtrzEz6i_22dual_core_pdf_pipeline3app3cli10run_doctor00B9_
FNDA:1,_RNCNvNtNtCshN9TtrzEz6i_22dual_core_pdf_pipeline3app3cli10run_doctor0B7_
FNDA:0,_RNCNvNtNtCshN9TtrzEz6i_22dual_core_pdf_pipeline3app3cli12run_selftest0B7_
FNDA:0,_RNCNvNtNtCshN9TtrzEz6i_22dual_core_pdf_pipeline3app3cli12run_selftests0_0B7_
FNDA:0,_RNCNvNtNtCshN9TtrzEz6i_22dual_core_pdf_pipeline3app3cli12run_selftests1_0B7_
FNDA:1,_RNCNvNtNtCshN9TtrzEz6i_22dual_core_pdf_pipeline3app3cli14is_env_present0B7_
FNDA:1,_RNCNvNtNtCshN9TtrzEz6i_22dual_core_pdf_pipeline3app3cli17validate_pdf_path0B7_
FNDA:0,_RNCNvNtNtCshN9TtrzEz6i_22dual_core_pdf_pipeline3app3cli17validate_pdf_paths0_0B7_
FNDA:1,_RNCNvNtNtCshN9TtrzEz6i_22dual_core_pdf_pipeline3app3cli17validate_pdf_paths_0B7_
FNDA:7,_RNCNvNtNtCshN9TtrzEz6i_22dual_core_pdf_pipeline3app3cli9run_inner0B7_
FNDA:0,_RNCNvNtNtCshN9TtrzEz6i_22dual_core_pdf_pipeline3app3cli9run_inners1_0B7_
FNDA:7,_RNCNvNtNtCshN9TtrzEz6i_22dual_core_pdf_pipeline3app3cli9run_inners_0B7_
FNDA:1,_RNvNtNtCshN9TtrzEz6i_22dual_core_pdf_pipeline3app3cli10parse_bbox
FNDA:1,_RNvNtNtCshN9TtrzEz6i_22dual_core_pdf_pipeline3app3cli10run_doctor
FNDA:0,_RNvNtNtCshN9TtrzEz6i_22dual_core_pdf_pipeline3app3cli12indent_block
FNDA:19,_RNvNtNtCshN9TtrzEz6i_22dual_core_pdf_pipeline3app3cli12print_status
FNDA:0,_RNvNtNtCshN9TtrzEz6i_22dual_core_pdf_pipeline3app3cli12run_selftest
FNDA:13,_RNvNtNtCshN9TtrzEz6i_22dual_core_pdf_pipeline3app3cli14is_env_present
FNDA:1,_RNvNtNtCshN9TtrzEz6i_22dual_core_pdf_pipeline3app3cli17validate_pdf_path
FNDA:10,_RNvNtNtCshN9TtrzEz6i_22dual_core_pdf_pipeline3app3cli24wait_for_terminal_result
FNDA:11,_RNvNtNtCshN9TtrzEz6i_22dual_core_pdf_pipeline3app3cli3run
FNDA:11,_RNvNtNtCshN9TtrzEz6i_22dual_core_pdf_pipeline3app3cli9run_inner
FNF:28
FNH:15
DA:257,1
DA:258,1
DA:259,1
DA:260,0
DA:261,0
DA:262,0
DA:263,0
DA:264,1
DA:266,1
DA:267,4
DA:268,4
DA:269,4
DA:270,0
DA:271,0
DA:272,0
DA:273,0
DA:274,0
DA:275,0
DA:276,0
DA:282,1
DA:283,0
DA:284,0
DA:285,0
DA:286,0
DA:287,1
DA:288,1
DA:289,0
DA:290,0
DA:291,0
DA:292,0
DA:293,1
DA:295,1
DA:296,1
DA:302,1
DA:303,1
DA:304,0
DA:305,1
DA:307,1
DA:308,1
DA:309,1
DA:310,1
DA:312,1
DA:313,0
DA:314,0
DA:316,0
DA:318,1
DA:320,1
DA:321,1
DA:325,10
DA:327,37
DA:328,18
DA:329,18
DA:338,1
DA:342,0
DA:350,0
DA:353,8
DA:355,1
DA:356,1
DA:358,9
DA:359,0
DA:362,10
DA:367,0
DA:368,0
DA:369,0
DA:370,0
DA:371,0
DA:374,0
DA:375,0
DA:376,0
DA:377,0
DA:378,0
DA:381,0
DA:382,0
DA:383,0
DA:385,0
DA:386,0
DA:391,0
DA:392,0
DA:393,0
DA:394,0
DA:395,0
DA:396,0
DA:397,0
DA:398,0
DA:399,0
DA:400,0
DA:402,0
DA:403,0
DA:404,0
DA:409,0
DA:410,0
DA:411,0
DA:412,0
DA:413,0
DA:414,0
DA:417,0
DA:418,0
DA:419,0
DA:420,0
DA:421,0
DA:422,0
DA:423,0
DA:426,0
DA:427,0
DA:428,0
DA:429,0
DA:430,0
DA:433,0
DA:434,0
DA:435,0
DA:436,0
DA:437,0
DA:438,0
DA:439,0
DA:440,0
DA:441,0
DA:442,0
DA:443,0
DA:444,0
DA:445,0
DA:448,0
DA:449,0
DA:452,0
DA:453,0
DA:455,0
DA:456,0
DA:459,0
DA:462,0
DA:463,0
DA:464,0
DA:465,0
DA:466,0
DA:467,0
DA:468,0
DA:469,0
DA:470,0
DA:471,0
DA:472,0
DA:473,0
DA:474,0
DA:475,0
DA:476,0
DA:477,0
DA:478,0
DA:483,0
DA:484,0
DA:485,0
DA:486,0
DA:487,0
DA:488,0
DA:489,0
DA:490,0
DA:491,0
DA:492,0
DA:493,0
DA:497,0
DA:498,0
DA:499,0
DA:500,0
DA:501,0
DA:502,0
DA:503,0
DA:504,0
DA:506,0
DA:507,0
DA:508,0
DA:517,19
DA:518,19
DA:519,14
DA:520,5
DA:521,0
DA:523,19
DA:524,19
DA:532,1
DA:533,1
DA:534,1
DA:535,1
DA:536,1
DA:537,1
DA:538,1
DA:539,1
DA:541,1
DA:542,1
DA:545,1
DA:546,14
DA:547,13
DA:548,13
DA:549,8
DA:550,0
DA:551,0
DA:552,5
DA:555,13
DA:556,8
DA:558,5
DA:560,13
DA:562,13
DA:563,5
DA:564,0
DA:565,0
DA:566,5
DA:568,8
DA:572,1
DA:573,1
DA:574,0
DA:575,1
DA:576,0
DA:577,1
DA:578,1
DA:580,0
DA:582,1
DA:583,1
DA:585,0
DA:587,1
DA:588,0
DA:591,1
DA:592,1
DA:593,3
DA:594,1
DA:595,1
DA:596,1
DA:598,3
DA:599,3
DA:600,3
DA:601,3
DA:603,0
DA:605,3
DA:608,1
DA:609,12
DA:610,1
DA:611,1
DA:612,1
DA:613,1
DA:615,0
DA:617,1
DA:618,1
DA:622,1
DA:623,1
DA:624,1
DA:625,1
DA:626,1
DA:627,1
DA:629,0
DA:631,1
DA:632,1
DA:636,1
DA:638,1
DA:639,0
DA:640,0
DA:641,0
DA:642,0
DA:643,0
DA:644,0
DA:645,0
DA:646,0
DA:647,0
DA:648,0
DA:649,0
DA:650,0
DA:651,0
DA:652,0
DA:653,1
DA:655,1
DA:656,0
DA:657,0
DA:658,0
DA:659,0
DA:660,0
DA:662,0
DA:663,0
DA:664,1
DA:666,1
DA:667,1
DA:668,1
DA:673,13
DA:674,13
DA:675,13
DA:676,12
DA:677,11
DA:678,10
DA:679,9
DA:680,8
DA:681,3
DA:684,5
DA:686,13
DA:689,0
DA:690,0
DA:691,0
DA:692,0
DA:693,0
DA:694,0
DA:696,11
DA:697,11
DA:698,11
DA:699,11
DA:700,11
DA:701,11
DA:702,11
DA:703,11
DA:704,0
DA:705,0
DA:706,0
DA:709,11
DA:711,11
DA:712,11
DA:713,11
DA:714,11
DA:715,11
DA:716,11
DA:718,11
DA:719,1
DA:720,1
DA:721,1
DA:722,0
DA:723,0
DA:724,1
DA:725,1
DA:726,1
DA:727,7
DA:728,0
DA:730,0
DA:732,0
DA:733,0
DA:734,0
DA:735,0
DA:736,0
DA:737,0
DA:738,0
DA:739,0
DA:740,0
DA:742,0
DA:743,0
DA:744,0
DA:745,0
DA:746,0
DA:747,0
DA:750,1
DA:751,1
DA:754,1
DA:755,0
DA:756,0
DA:757,1
DA:758,1
DA:759,0
DA:760,0
DA:761,1
DA:762,1
DA:764,1
DA:765,2
DA:766,1
DA:767,0
DA:768,0
DA:769,1
DA:771,1
DA:773,2
DA:775,11
DA:776,7
DA:777,0
DA:778,0
DA:779,7
DA:780,7
DA:781,7
DA:782,7
DA:783,7
DA:784,7
DA:786,0
DA:787,0
DA:788,7
DA:789,4
DA:791,11
DA:792,0
DA:793,0
DA:794,0
DA:795,0
DA:796,0
DA:797,0
DA:798,0
DA:799,0
DA:800,0
DA:801,0
DA:803,0
DA:804,0
DA:805,0
DA:807,0
DA:808,0
DA:809,0
DA:815,0
DA:816,0
DA:817,0
DA:820,0
DA:821,0
DA:824,0
DA:825,0
DA:826,0
DA:828,0
DA:829,0
DA:830,0
DA:831,0
DA:832,0
DA:833,0
DA:836,0
DA:837,0
DA:838,0
DA:841,0
DA:842,0
DA:843,0
DA:844,0
DA:845,0
DA:846,0
DA:849,0
DA:850,0
DA:852,0
DA:853,0
DA:855,0
DA:856,0
DA:857,0
DA:858,0
DA:859,0
DA:862,0
DA:863,0
DA:864,0
DA:865,0
DA:866,0
DA:869,1
DA:870,1
DA:871,1
DA:872,1
DA:873,1
DA:874,1
DA:877,1
DA:878,0
DA:879,1
DA:882,1
DA:883,1
DA:884,0
DA:885,0
DA:889,1
DA:890,1
DA:891,1
DA:892,1
DA:893,1
DA:894,1
DA:895,1
DA:896,1
DA:897,1
DA:898,1
DA:899,1
DA:901,0
DA:902,0
DA:904,1
DA:905,1
DA:906,1
DA:909,0
DA:910,0
DA:915,1
DA:916,1
DA:917,1
DA:919,1
DA:920,1
DA:921,1
DA:922,1
DA:923,1
DA:924,1
DA:925,1
DA:926,1
DA:928,1
DA:929,0
DA:931,0
DA:932,0
DA:933,0
DA:934,0
DA:935,0
DA:936,0
DA:937,0
DA:938,0
DA:939,0
DA:940,0
DA:941,0
DA:942,0
DA:943,0
DA:945,0
DA:946,0
DA:947,0
DA:948,0
DA:950,0
DA:951,0
DA:952,0
DA:953,0
DA:954,0
DA:956,0
DA:958,0
DA:959,0
DA:961,0
DA:962,0
DA:963,0
DA:964,0
DA:965,0
DA:966,0
DA:967,0
DA:968,0
DA:969,0
DA:970,0
DA:972,0
DA:973,0
DA:974,0
DA:977,0
DA:978,0
DA:982,0
DA:983,0
DA:986,0
DA:987,0
DA:988,0
DA:991,0
DA:992,0
DA:996,1
DA:997,1
DA:998,1
DA:999,1
DA:1000,1
DA:1001,1
DA:1003,1
DA:1004,1
DA:1005,1
DA:1006,1
DA:1007,1
DA:1008,0
DA:1009,0
DA:1010,0
DA:1013,1
DA:1014,1
DA:1015,1
DA:1017,0
DA:1018,0
DA:1021,0
DA:1022,0
DA:1023,0
DA:1026,0
DA:1027,0
DA:1031,0
DA:1032,0
DA:1033,0
DA:1036,0
DA:1037,0
DA:1042,0
DA:1043,0
DA:1044,0
DA:1045,0
DA:1051,0
DA:1052,0
DA:1053,0
DA:1054,0
DA:1056,0
DA:1057,0
DA:1058,0
DA:1059,0
DA:1060,0
DA:1061,0
DA:1062,0
DA:1063,0
DA:1064,0
DA:1065,0
DA:1066,0
DA:1067,0
DA:1068,0
DA:1069,0
DA:1070,0
DA:1071,0
DA:1072,0
DA:1073,0
DA:1074,0
DA:1075,0
DA:1076,0
DA:1077,0
DA:1078,0
DA:1081,0
DA:1082,0
DA:1083,0
DA:1084,0
DA:1086,0
DA:1087,0
DA:1088,0
DA:1091,0
DA:1092,0
DA:1097,0
DA:1098,0
DA:1099,0
DA:1100,0
DA:1104,0
DA:1105,0
DA:1106,0
DA:1107,0
DA:1108,0
DA:1109,0
DA:1110,0
DA:1111,0
DA:1112,0
DA:1113,0
DA:1114,0
DA:1115,0
DA:1116,0
DA:1120,0
DA:1121,0
DA:1122,0
DA:1123,0
DA:1124,0
DA:1125,0
DA:1127,0
DA:1128,0
DA:1131,0
DA:1132,0
DA:1133,0
DA:1136,0
DA:1137,0
DA:1141,0
DA:1142,0
DA:1143,0
DA:1144,0
DA:1145,0
DA:1146,0
DA:1147,0
DA:1148,0
DA:1149,0
DA:1151,0
DA:1152,0
DA:1153,0
DA:1156,0
DA:1157,0
DA:1161,0
DA:1162,0
DA:1163,0
DA:1164,0
DA:1165,0
DA:1166,0
DA:1167,0
DA:1168,0
DA:1169,0
DA:1170,0
DA:1172,0
DA:1173,0
DA:1176,0
DA:1177,0
DA:1178,0
DA:1183,1
DA:1184,1
DA:1186,1
DA:1187,1
DA:1189,0
DA:1192,0
DA:1193,1
DA:1194,0
DA:1196,0
DA:1197,0
DA:1198,0
DA:1200,0
DA:1201,0
DA:1202,0
DA:1203,0
DA:1206,0
DA:1207,0
DA:1208,0
DA:1209,0
DA:1210,0
DA:1213,0
DA:1214,0
DA:1215,0
DA:1216,0
DA:1221,0
DA:1222,0
DA:1223,0
DA:1225,0
DA:1226,0
DA:1227,0
DA:1228,0
DA:1231,0
DA:1232,0
DA:1233,0
DA:1234,0
DA:1235,0
DA:1236,0
DA:1237,0
DA:1240,0
DA:1241,0
DA:1242,0
DA:1243,0
DA:1244,0
DA:1245,0
DA:1248,0
DA:1249,0
DA:1250,0
DA:1251,0
DA:1252,0
DA:1253,0
DA:1254,0
DA:1256,0
DA:1257,0
DA:1258,0
DA:1259,0
DA:1260,0
DA:1261,0
DA:1262,0
DA:1263,0
DA:1264,0
DA:1265,0
DA:1266,0
DA:1269,0
DA:1270,0
DA:1272,0
DA:1273,0
DA:1275,0
DA:1276,0
DA:1278,0
DA:1279,0
DA:1280,0
DA:1283,0
DA:1285,0
DA:1287,0
DA:1288,0
DA:1289,0
DA:1292,0
DA:1293,0
DA:1294,0
DA:1295,0
DA:1296,0
DA:1297,0
DA:1298,0
DA:1299,0
DA:1301,0
DA:1302,0
DA:1303,0
DA:1304,0
DA:1305,0
DA:1306,0
DA:1307,0
DA:1308,0
DA:1309,0
DA:1310,0
DA:1311,0
DA:1312,0
DA:1313,0
DA:1314,0
DA:1315,0
DA:1316,0
DA:1318,0
DA:1320,0
DA:1321,0
DA:1322,0
DA:1325,0
DA:1326,0
DA:1327,0
DA:1331,1
DA:1332,1
DA:1334,3
DA:1335,1
DA:1336,1
DA:1337,1
DA:1339,0
DA:1340,0
DA:1341,0
DA:1343,0
DA:1344,2
DA:1348,1
DA:1349,1
DA:1350,1
DA:1351,1
DA:1352,1
DA:1353,1
DA:1354,1
DA:1356,0
DA:1357,0
DA:1359,0
DA:1360,0
DA:1361,0
DA:1362,0
DA:1363,0
DA:1364,0
DA:1366,0
DA:1367,0
DA:1368,0
DA:1370,1
DA:1373,1
DA:1374,1
DA:1375,1
DA:1376,1
DA:1379,1
DA:1380,1
DA:1381,1
DA:1383,1
DA:1384,1
DA:1385,1
DA:1386,1
DA:1387,1
DA:1388,1
DA:1389,0
DA:1390,0
DA:1391,0
DA:1394,0
DA:1396,1
DA:1397,1
DA:1398,1
DA:1400,0
DA:1401,0
DA:1402,0
DA:1404,0
DA:1408,1
DA:1409,1
DA:1410,1
DA:1412,1
DA:1413,1
DA:1414,1
DA:1415,1
DA:1416,1
DA:1417,1
DA:1418,1
DA:1420,0
DA:1422,1
DA:1423,1
DA:1424,1
DA:1425,1
DA:1426,1
DA:1427,1
DA:1428,1
DA:1429,1
DA:1430,1
DA:1432,0
DA:1433,0
DA:1434,0
DA:1436,0
DA:1440,1
DA:1441,1
DA:1443,1
DA:1444,1
DA:1445,1
DA:1446,1
DA:1447,1
DA:1448,1
DA:1449,1
DA:1450,1
DA:1452,0
DA:1453,0
DA:1454,0
DA:1456,0
DA:1460,11
BRF:0
BRH:0
LF:859
LH:289
end_of_record
SF:/Volumes/Macintosh_HD/Users/user298993/Documents/GitHub/bank-statement-fidelity-editor/src/app/config.rs
FN:787,_RNCNvNtNtCshN9TtrzEz6i_22dual_core_pdf_pipeline3app6config15detect_adc_path0B7_
FN:379,_RNCNCNvMs6_NtNtCshN9TtrzEz6i_22dual_core_pdf_pipeline3app6configNtB9_9AppConfig8from_env00Bd_
FN:380,_RNCNCNvMs6_NtNtCshN9TtrzEz6i_22dual_core_pdf_pipeline3app6configNtB9_9AppConfig8from_env0s_0Bd_
FN:630,_RNCNvMs6_NtNtCshN9TtrzEz6i_22dual_core_pdf_pipeline3app6configNtB7_9AppConfig19detect_availability0Bb_
FN:641,_RNCNvMs6_NtNtCshN9TtrzEz6i_22dual_core_pdf_pipeline3app6configNtB7_9AppConfig19detect_availabilitys0_0Bb_
FN:635,_RNCNvMs6_NtNtCshN9TtrzEz6i_22dual_core_pdf_pipeline3app6configNtB7_9AppConfig19detect_availabilitys_0Bb_
FN:601,_RNCNvMs6_NtNtCshN9TtrzEz6i_22dual_core_pdf_pipeline3app6configNtB7_9AppConfig20has_ai_for_balancing0Bb_
FN:377,_RNCNvMs6_NtNtCshN9TtrzEz6i_22dual_core_pdf_pipeline3app6configNtB7_9AppConfig8from_env0Bb_
FN:437,_RNCNvMs6_NtNtCshN9TtrzEz6i_22dual_core_pdf_pipeline3app6configNtB7_9AppConfig8from_envs0_0Bb_
FN:438,_RNCNvMs6_NtNtCshN9TtrzEz6i_22dual_core_pdf_pipeline3app6configNtB7_9AppConfig8from_envs1_0Bb_
FN:461,_RNCNvMs6_NtNtCshN9TtrzEz6i_22dual_core_pdf_pipeline3app6configNtB7_9AppConfig8from_envs2_0Bb_
FN:463,_RNCNvMs6_NtNtCshN9TtrzEz6i_22dual_core_pdf_pipeline3app6configNtB7_9AppConfig8from_envs3_0Bb_
FN:468,_RNCNvMs6_NtNtCshN9TtrzEz6i_22dual_core_pdf_pipeline3app6configNtB7_9AppConfig8from_envs4_0Bb_
FN:520,_RNCNvMs6_NtNtCshN9TtrzEz6i_22dual_core_pdf_pipeline3app6configNtB7_9AppConfig8from_envs5_0Bb_
FN:523,_RNCNvMs6_NtNtCshN9TtrzEz6i_22dual_core_pdf_pipeline3app6configNtB7_9AppConfig8from_envs6_0Bb_
FN:526,_RNCNvMs6_NtNtCshN9TtrzEz6i_22dual_core_pdf_pipeline3app6configNtB7_9AppConfig8from_envs7_0Bb_
FN:387,_RNCNvMs6_NtNtCshN9TtrzEz6i_22dual_core_pdf_pipeline3app6configNtB7_9AppConfig8from_envs_0Bb_
FN:801,_RNCNvNtNtCshN9TtrzEz6i_22dual_core_pdf_pipeline3app6config15detect_adc_paths0_0B7_
FN:802,_RNCNvNtNtCshN9TtrzEz6i_22dual_core_pdf_pipeline3app6config15detect_adc_paths1_0B7_
FN:793,_RNCNvNtNtCshN9TtrzEz6i_22dual_core_pdf_pipeline3app6config15detect_adc_paths_0B7_
FN:76,_RNvMNtNtCshN9TtrzEz6i_22dual_core_pdf_pipeline3app6configNtB2_12ProKeyStatus12is_available
FN:81,_RNvMNtNtCshN9TtrzEz6i_22dual_core_pdf_pipeline3app6configNtB2_12ProKeyStatus6reason
FN:223,_RNvMs1_NtNtCshN9TtrzEz6i_22dual_core_pdf_pipeline3app6configNtB5_14AiProviderMode12from_env_str
FN:197,_RNvMs1_NtNtCshN9TtrzEz6i_22dual_core_pdf_pipeline3app6configNtB5_14AiProviderMode5label
FN:210,_RNvMs1_NtNtCshN9TtrzEz6i_22dual_core_pdf_pipeline3app6configNtB5_14AiProviderMode9env_token
FN:254,_RNvMs2_NtNtCshN9TtrzEz6i_22dual_core_pdf_pipeline3app6configNtB5_18DocumentParserMode5label
FN:278,_RNvMs3_NtNtCshN9TtrzEz6i_22dual_core_pdf_pipeline3app6configNtB5_16VerificationMode5label
FN:565,_RNvMs6_NtNtCshN9TtrzEz6i_22dual_core_pdf_pipeline3app6configNtB5_9AppConfig14pro_key_status
FN:622,_RNvMs6_NtNtCshN9TtrzEz6i_22dual_core_pdf_pipeline3app6configNtB5_9AppConfig19detect_availability
FN:594,_RNvMs6_NtNtCshN9TtrzEz6i_22dual_core_pdf_pipeline3app6configNtB5_9AppConfig20has_ai_for_balancing
FN:609,_RNvMs6_NtNtCshN9TtrzEz6i_22dual_core_pdf_pipeline3app6configNtB5_9AppConfig21has_ai_for_extraction
FN:577,_RNvMs6_NtNtCshN9TtrzEz6i_22dual_core_pdf_pipeline3app6configNtB5_9AppConfig21pro_editing_available
FN:584,_RNvMs6_NtNtCshN9TtrzEz6i_22dual_core_pdf_pipeline3app6configNtB5_9AppConfig25pro_editing_status_reason
FN:374,_RNvMs6_NtNtCshN9TtrzEz6i_22dual_core_pdf_pipeline3app6configNtB5_9AppConfig8from_env
FN:532,_RNvMs6_NtNtCshN9TtrzEz6i_22dual_core_pdf_pipeline3app6configNtB5_9AppConfig8validate
FN:748,_RNvMs7_NtNtCshN9TtrzEz6i_22dual_core_pdf_pipeline3app6configNtB5_15ApiAvailability11log_summary
FN:688,_RNvMs7_NtNtCshN9TtrzEz6i_22dual_core_pdf_pipeline3app6configNtB5_15ApiAvailability15disable_service
FN:706,_RNvMs7_NtNtCshN9TtrzEz6i_22dual_core_pdf_pipeline3app6configNtB5_15ApiAvailability18unavailable_reason
FN:134,_RNvMs_NtNtCshN9TtrzEz6i_22dual_core_pdf_pipeline3app6configNtB4_16DocumentAiConfig8has_auth
FN:774,_RNvNtNtCshN9TtrzEz6i_22dual_core_pdf_pipeline3app6config15detect_adc_path
FN:21,_RNvNtNtCshN9TtrzEz6i_22dual_core_pdf_pipeline3app6config18global_http_client
FN:169,_RNvXs0_NtNtCshN9TtrzEz6i_22dual_core_pdf_pipeline3app6configNtB5_14ConnectionModeNtNtCsaNl6UpbT7bw_4core7default7Default7default
FN:339,_RNvXs5_NtNtCshN9TtrzEz6i_22dual_core_pdf_pipeline3app6configNtB5_9AppConfigNtNtCsaNl6UpbT7bw_4core7default7Default7default
FN:36,_RNCNCNvNtNtCshN9TtrzEz6i_22dual_core_pdf_pipeline3app6config18global_http_client00B9_
FN:22,_RNCNvNtNtCshN9TtrzEz6i_22dual_core_pdf_pipeline3app6config18global_http_client0B7_
FN:320,_RNvXs4_NtNtCshN9TtrzEz6i_22dual_core_pdf_pipeline3app6configNtB5_9AppConfigNtNtNtCsaNl6UpbT7bw_4core3ops4drop4Drop4drop
FN:630,_RNCNvMs6_NtNtCsdGsEM3RpwG4_22dual_core_pdf_pipeline3app6configNtB7_9AppConfig19detect_availability0Bb_
FN:641,_RNCNvMs6_NtNtCsdGsEM3RpwG4_22dual_core_pdf_pipeline3app6configNtB7_9AppConfig19detect_availabilitys0_0Bb_
FN:635,_RNCNvMs6_NtNtCsdGsEM3RpwG4_22dual_core_pdf_pipeline3app6configNtB7_9AppConfig19detect_availabilitys_0Bb_
FN:601,_RNCNvMs6_NtNtCsdGsEM3RpwG4_22dual_core_pdf_pipeline3app6configNtB7_9AppConfig20has_ai_for_balancing0Bb_
FN:801,_RNCNvNtNtCsdGsEM3RpwG4_22dual_core_pdf_pipeline3app6config15detect_adc_paths0_0B7_
FN:802,_RNCNvNtNtCsdGsEM3RpwG4_22dual_core_pdf_pipeline3app6config15detect_adc_paths1_0B7_
FN:793,_RNCNvNtNtCsdGsEM3RpwG4_22dual_core_pdf_pipeline3app6config15detect_adc_paths_0B7_
FN:76,_RNvMNtNtCsdGsEM3RpwG4_22dual_core_pdf_pipeline3app6configNtB2_12ProKeyStatus12is_available
FN:81,_RNvMNtNtCsdGsEM3RpwG4_22dual_core_pdf_pipeline3app6configNtB2_12ProKeyStatus6reason
FN:223,_RNvMs1_NtNtCsdGsEM3RpwG4_22dual_core_pdf_pipeline3app6configNtB5_14AiProviderMode12from_env_str
FN:210,_RNvMs1_NtNtCsdGsEM3RpwG4_22dual_core_pdf_pipeline3app6configNtB5_14AiProviderMode9env_token
FN:565,_RNvMs6_NtNtCsdGsEM3RpwG4_22dual_core_pdf_pipeline3app6configNtB5_9AppConfig14pro_key_status
FN:622,_RNvMs6_NtNtCsdGsEM3RpwG4_22dual_core_pdf_pipeline3app6configNtB5_9AppConfig19detect_availability
FN:594,_RNvMs6_NtNtCsdGsEM3RpwG4_22dual_core_pdf_pipeline3app6configNtB5_9AppConfig20has_ai_for_balancing
FN:577,_RNvMs6_NtNtCsdGsEM3RpwG4_22dual_core_pdf_pipeline3app6configNtB5_9AppConfig21pro_editing_available
FN:584,_RNvMs6_NtNtCsdGsEM3RpwG4_22dual_core_pdf_pipeline3app6configNtB5_9AppConfig25pro_editing_status_reason
FN:532,_RNvMs6_NtNtCsdGsEM3RpwG4_22dual_core_pdf_pipeline3app6configNtB5_9AppConfig8validate
FN:706,_RNvMs7_NtNtCsdGsEM3RpwG4_22dual_core_pdf_pipeline3app6configNtB5_15ApiAvailability18unavailable_reason
FN:134,_RNvMs_NtNtCsdGsEM3RpwG4_22dual_core_pdf_pipeline3app6configNtB4_16DocumentAiConfig8has_auth
FN:774,_RNvNtNtCsdGsEM3RpwG4_22dual_core_pdf_pipeline3app6config15detect_adc_path
FN:21,_RNvNtNtCsdGsEM3RpwG4_22dual_core_pdf_pipeline3app6config18global_http_client
FN:339,_RNvXs5_NtNtCsdGsEM3RpwG4_22dual_core_pdf_pipeline3app6configNtB5_9AppConfigNtNtCsaNl6UpbT7bw_4core7default7Default7default
FN:379,_RNCNCNvMs6_NtNtCsdGsEM3RpwG4_22dual_core_pdf_pipeline3app6configNtB9_9AppConfig8from_env00Bd_
FN:380,_RNCNCNvMs6_NtNtCsdGsEM3RpwG4_22dual_core_pdf_pipeline3app6configNtB9_9AppConfig8from_env0s_0Bd_
FN:377,_RNCNvMs6_NtNtCsdGsEM3RpwG4_22dual_core_pdf_pipeline3app6configNtB7_9AppConfig8from_env0Bb_
FN:437,_RNCNvMs6_NtNtCsdGsEM3RpwG4_22dual_core_pdf_pipeline3app6configNtB7_9AppConfig8from_envs0_0Bb_
FN:438,_RNCNvMs6_NtNtCsdGsEM3RpwG4_22dual_core_pdf_pipeline3app6configNtB7_9AppConfig8from_envs1_0Bb_
FN:461,_RNCNvMs6_NtNtCsdGsEM3RpwG4_22dual_core_pdf_pipeline3app6configNtB7_9AppConfig8from_envs2_0Bb_
FN:463,_RNCNvMs6_NtNtCsdGsEM3RpwG4_22dual_core_pdf_pipeline3app6configNtB7_9AppConfig8from_envs3_0Bb_
FN:468,_RNCNvMs6_NtNtCsdGsEM3RpwG4_22dual_core_pdf_pipeline3app6configNtB7_9AppConfig8from_envs4_0Bb_
FN:520,_RNCNvMs6_NtNtCsdGsEM3RpwG4_22dual_core_pdf_pipeline3app6configNtB7_9AppConfig8from_envs5_0Bb_
FN:523,_RNCNvMs6_NtNtCsdGsEM3RpwG4_22dual_core_pdf_pipeline3app6configNtB7_9AppConfig8from_envs6_0Bb_
FN:526,_RNCNvMs6_NtNtCsdGsEM3RpwG4_22dual_core_pdf_pipeline3app6configNtB7_9AppConfig8from_envs7_0Bb_
FN:387,_RNCNvMs6_NtNtCsdGsEM3RpwG4_22dual_core_pdf_pipeline3app6configNtB7_9AppConfig8from_envs_0Bb_
FN:787,_RNCNvNtNtCsdGsEM3RpwG4_22dual_core_pdf_pipeline3app6config15detect_adc_path0B7_
FN:197,_RNvMs1_NtNtCsdGsEM3RpwG4_22dual_core_pdf_pipeline3app6configNtB5_14AiProviderMode5label
FN:254,_RNvMs2_NtNtCsdGsEM3RpwG4_22dual_core_pdf_pipeline3app6configNtB5_18DocumentParserMode5label
FN:278,_RNvMs3_NtNtCsdGsEM3RpwG4_22dual_core_pdf_pipeline3app6configNtB5_16VerificationMode5label
FN:609,_RNvMs6_NtNtCsdGsEM3RpwG4_22dual_core_pdf_pipeline3app6configNtB5_9AppConfig21has_ai_for_extraction
FN:374,_RNvMs6_NtNtCsdGsEM3RpwG4_22dual_core_pdf_pipeline3app6configNtB5_9AppConfig8from_env
FN:748,_RNvMs7_NtNtCsdGsEM3RpwG4_22dual_core_pdf_pipeline3app6configNtB5_15ApiAvailability11log_summary
FN:688,_RNvMs7_NtNtCsdGsEM3RpwG4_22dual_core_pdf_pipeline3app6configNtB5_15ApiAvailability15disable_service
FN:169,_RNvXs0_NtNtCsdGsEM3RpwG4_22dual_core_pdf_pipeline3app6configNtB5_14ConnectionModeNtNtCsaNl6UpbT7bw_4core7default7Default7default
FN:320,_RNvXs4_NtNtCsdGsEM3RpwG4_22dual_core_pdf_pipeline3app6configNtB5_9AppConfigNtNtNtCsaNl6UpbT7bw_4core3ops4drop4Drop4drop
FN:853,_RNCNvNtNtNtCsdGsEM3RpwG4_22dual_core_pdf_pipeline3app6config5testss_55pro_key_status_does_not_affect_validate_for_split_merge0B9_
FN:972,_RNCNvNtNtNtCsdGsEM3RpwG4_22dual_core_pdf_pipeline3app6config5testss_66validate_reports_missing_pro_key_and_passphrase_in_production_mode0B9_
FN:973,_RNCNvNtNtNtCsdGsEM3RpwG4_22dual_core_pdf_pipeline3app6config5testss_66validate_reports_missing_pro_key_and_passphrase_in_production_modes_0B9_
FN:913,_RNvNtNtNtCsdGsEM3RpwG4_22dual_core_pdf_pipeline3app6config5testss_25test_has_ai_for_balancing
FN:866,_RNvNtNtNtCsdGsEM3RpwG4_22dual_core_pdf_pipeline3app6config5testss_29ai_provider_mode_from_env_str
FN:859,_RNvNtNtNtCsdGsEM3RpwG4_22dual_core_pdf_pipeline3app6config5testss_33pro_key_status_serializes_to_json
FN:900,_RNvNtNtNtCsdGsEM3RpwG4_22dual_core_pdf_pipeline3app6config5testss_37ai_provider_mode_env_token_round_trip
FN:816,_RNvNtNtNtCsdGsEM3RpwG4_22dual_core_pdf_pipeline3app6config5testss_39pro_editing_unavailable_when_key_absent
FN:835,_RNvNtNtNtCsdGsEM3RpwG4_22dual_core_pdf_pipeline3app6config5testss_42pro_editing_unavailable_with_malformed_key
FN:826,_RNvNtNtNtCsdGsEM3RpwG4_22dual_core_pdf_pipeline3app6config5testss_48pro_editing_available_with_well_formed_trial_key
FN:844,_RNvNtNtNtCsdGsEM3RpwG4_22dual_core_pdf_pipeline3app6config5testss_55pro_key_status_does_not_affect_validate_for_split_merge
FN:810,_RNvNtNtNtCsdGsEM3RpwG4_22dual_core_pdf_pipeline3app6config5testss_56detect_adc_path_returns_string_or_none_without_panicking
FN:977,_RNvNtNtNtCsdGsEM3RpwG4_22dual_core_pdf_pipeline3app6config5testss_61detect_availability_exposes_backend_state_and_helpful_reasons
FN:1025,_RNvNtNtNtCsdGsEM3RpwG4_22dual_core_pdf_pipeline3app6config5testss_63unavailable_reason_exposes_vision_ai_guidance_when_unconfigured
FN:1015,_RNvNtNtNtCsdGsEM3RpwG4_22dual_core_pdf_pipeline3app6config5testss_64unavailable_reason_exposes_openrouter_guidance_when_unconfigured
FN:964,_RNvNtNtNtCsdGsEM3RpwG4_22dual_core_pdf_pipeline3app6config5testss_66validate_reports_missing_pro_key_and_passphrase_in_production_mode
FN:36,_RNCNCNvNtNtCsdGsEM3RpwG4_22dual_core_pdf_pipeline3app6config18global_http_client00B9_
FN:22,_RNCNvNtNtCsdGsEM3RpwG4_22dual_core_pdf_pipeline3app6config18global_http_client0B7_
FNDA:0,_RNCNvNtNtCshN9TtrzEz6i_22dual_core_pdf_pipeline3app6config15detect_adc_path0B7_
FNDA:140,_RNCNCNvMs6_NtNtCshN9TtrzEz6i_22dual_core_pdf_pipeline3app6configNtB9_9AppConfig8from_env00Bd_
FNDA:140,_RNCNCNvMs6_NtNtCshN9TtrzEz6i_22dual_core_pdf_pipeline3app6configNtB9_9AppConfig8from_env0s_0Bd_
FNDA:1,_RNCNvMs6_NtNtCshN9TtrzEz6i_22dual_core_pdf_pipeline3app6configNtB7_9AppConfig19detect_availability0Bb_
FNDA:0,_RNCNvMs6_NtNtCshN9TtrzEz6i_22dual_core_pdf_pipeline3app6configNtB7_9AppConfig19detect_availabilitys0_0Bb_
FNDA:1,_RNCNvMs6_NtNtCshN9TtrzEz6i_22dual_core_pdf_pipeline3app6configNtB7_9AppConfig19detect_availabilitys_0Bb_
FNDA:0,_RNCNvMs6_NtNtCshN9TtrzEz6i_22dual_core_pdf_pipeline3app6configNtB7_9AppConfig20has_ai_for_balancing0Bb_
FNDA:210,_RNCNvMs6_NtNtCshN9TtrzEz6i_22dual_core_pdf_pipeline3app6configNtB7_9AppConfig8from_env0Bb_
FNDA:14,_RNCNvMs6_NtNtCshN9TtrzEz6i_22dual_core_pdf_pipeline3app6configNtB7_9AppConfig8from_envs0_0Bb_
FNDA:0,_RNCNvMs6_NtNtCshN9TtrzEz6i_22dual_core_pdf_pipeline3app6configNtB7_9AppConfig8from_envs1_0Bb_
FNDA:0,_RNCNvMs6_NtNtCshN9TtrzEz6i_22dual_core_pdf_pipeline3app6configNtB7_9AppConfig8from_envs2_0Bb_
FNDA:14,_RNCNvMs6_NtNtCshN9TtrzEz6i_22dual_core_pdf_pipeline3app6configNtB7_9AppConfig8from_envs3_0Bb_
FNDA:14,_RNCNvMs6_NtNtCshN9TtrzEz6i_22dual_core_pdf_pipeline3app6configNtB7_9AppConfig8from_envs4_0Bb_
FNDA:0,_RNCNvMs6_NtNtCshN9TtrzEz6i_22dual_core_pdf_pipeline3app6configNtB7_9AppConfig8from_envs5_0Bb_
FNDA:0,_RNCNvMs6_NtNtCshN9TtrzEz6i_22dual_core_pdf_pipeline3app6configNtB7_9AppConfig8from_envs6_0Bb_
FNDA:0,_RNCNvMs6_NtNtCshN9TtrzEz6i_22dual_core_pdf_pipeline3app6configNtB7_9AppConfig8from_envs7_0Bb_
FNDA:14,_RNCNvMs6_NtNtCshN9TtrzEz6i_22dual_core_pdf_pipeline3app6configNtB7_9AppConfig8from_envs_0Bb_
FNDA:14,_RNCNvNtNtCshN9TtrzEz6i_22dual_core_pdf_pipeline3app6config15detect_adc_paths0_0B7_
FNDA:0,_RNCNvNtNtCshN9TtrzEz6i_22dual_core_pdf_pipeline3app6config15detect_adc_paths1_0B7_
FNDA:14,_RNCNvNtNtCshN9TtrzEz6i_22dual_core_pdf_pipeline3app6config15detect_adc_paths_0B7_
FNDA:14,_RNvMNtNtCshN9TtrzEz6i_22dual_core_pdf_pipeline3app6configNtB2_12ProKeyStatus12is_available
FNDA:0,_RNvMNtNtCshN9TtrzEz6i_22dual_core_pdf_pipeline3app6configNtB2_12ProKeyStatus6reason
FNDA:14,_RNvMs1_NtNtCshN9TtrzEz6i_22dual_core_pdf_pipeline3app6configNtB5_14AiProviderMode12from_env_str
FNDA:5,_RNvMs1_NtNtCshN9TtrzEz6i_22dual_core_pdf_pipeline3app6configNtB5_14AiProviderMode5label
FNDA:14,_RNvMs1_NtNtCshN9TtrzEz6i_22dual_core_pdf_pipeline3app6configNtB5_14AiProviderMode9env_token
FNDA:4,_RNvMs2_NtNtCshN9TtrzEz6i_22dual_core_pdf_pipeline3app6configNtB5_18DocumentParserMode5label
FNDA:2,_RNvMs3_NtNtCshN9TtrzEz6i_22dual_core_pdf_pipeline3app6configNtB5_16VerificationMode5label
FNDA:14,_RNvMs6_NtNtCshN9TtrzEz6i_22dual_core_pdf_pipeline3app6configNtB5_9AppConfig14pro_key_status
FNDA:14,_RNvMs6_NtNtCshN9TtrzEz6i_22dual_core_pdf_pipeline3app6configNtB5_9AppConfig19detect_availability
FNDA:0,_RNvMs6_NtNtCshN9TtrzEz6i_22dual_core_pdf_pipeline3app6configNtB5_9AppConfig20has_ai_for_balancing
FNDA:0,_RNvMs6_NtNtCshN9TtrzEz6i_22dual_core_pdf_pipeline3app6configNtB5_9AppConfig21has_ai_for_extraction
FNDA:14,_RNvMs6_NtNtCshN9TtrzEz6i_22dual_core_pdf_pipeline3app6configNtB5_9AppConfig21pro_editing_available
FNDA:0,_RNvMs6_NtNtCshN9TtrzEz6i_22dual_core_pdf_pipeline3app6configNtB5_9AppConfig25pro_editing_status_reason
FNDA:14,_RNvMs6_NtNtCshN9TtrzEz6i_22dual_core_pdf_pipeline3app6configNtB5_9AppConfig8from_env
FNDA:0,_RNvMs6_NtNtCshN9TtrzEz6i_22dual_core_pdf_pipeline3app6configNtB5_9AppConfig8validate
FNDA:14,_RNvMs7_NtNtCshN9TtrzEz6i_22dual_core_pdf_pipeline3app6configNtB5_15ApiAvailability11log_summary
FNDA:0,_RNvMs7_NtNtCshN9TtrzEz6i_22dual_core_pdf_pipeline3app6configNtB5_15ApiAvailability15disable_service
FNDA:0,_RNvMs7_NtNtCshN9TtrzEz6i_22dual_core_pdf_pipeline3app6configNtB5_15ApiAvailability18unavailable_reason
FNDA:12,_RNvMs_NtNtCshN9TtrzEz6i_22dual_core_pdf_pipeline3app6configNtB4_16DocumentAiConfig8has_auth
FNDA:14,_RNvNtNtCshN9TtrzEz6i_22dual_core_pdf_pipeline3app6config15detect_adc_path
FNDA:48,_RNvNtNtCshN9TtrzEz6i_22dual_core_pdf_pipeline3app6config18global_http_client
FNDA:0,_RNvXs0_NtNtCshN9TtrzEz6i_22dual_core_pdf_pipeline3app6configNtB5_14ConnectionModeNtNtCsaNl6UpbT7bw_4core7default7Default7default
FNDA:37,_RNvXs5_NtNtCshN9TtrzEz6i_22dual_core_pdf_pipeline3app6configNtB5_9AppConfigNtNtCsaNl6UpbT7bw_4core7default7Default7default
FNDA:0,_RNCNCNvNtNtCshN9TtrzEz6i_22dual_core_pdf_pipeline3app6config18global_http_client00B9_
FNDA:18,_RNCNvNtNtCshN9TtrzEz6i_22dual_core_pdf_pipeline3app6config18global_http_client0B7_
FNDA:56,_RNvXs4_NtNtCshN9TtrzEz6i_22dual_core_pdf_pipeline3app6configNtB5_9AppConfigNtNtNtCsaNl6UpbT7bw_4core3ops4drop4Drop4drop
FNDA:1,_RNCNvMs6_NtNtCsdGsEM3RpwG4_22dual_core_pdf_pipeline3app6configNtB7_9AppConfig19detect_availability0Bb_
FNDA:2,_RNCNvMs6_NtNtCsdGsEM3RpwG4_22dual_core_pdf_pipeline3app6configNtB7_9AppConfig19detect_availabilitys0_0Bb_
FNDA:1,_RNCNvMs6_NtNtCsdGsEM3RpwG4_22dual_core_pdf_pipeline3app6configNtB7_9AppConfig19detect_availabilitys_0Bb_
FNDA:2,_RNCNvMs6_NtNtCsdGsEM3RpwG4_22dual_core_pdf_pipeline3app6configNtB7_9AppConfig20has_ai_for_balancing0Bb_
FNDA:1,_RNCNvNtNtCsdGsEM3RpwG4_22dual_core_pdf_pipeline3app6config15detect_adc_paths0_0B7_
FNDA:0,_RNCNvNtNtCsdGsEM3RpwG4_22dual_core_pdf_pipeline3app6config15detect_adc_paths1_0B7_
FNDA:1,_RNCNvNtNtCsdGsEM3RpwG4_22dual_core_pdf_pipeline3app6config15detect_adc_paths_0B7_
FNDA:6,_RNvMNtNtCsdGsEM3RpwG4_22dual_core_pdf_pipeline3app6configNtB2_12ProKeyStatus12is_available
FNDA:1,_RNvMNtNtCsdGsEM3RpwG4_22dual_core_pdf_pipeline3app6configNtB2_12ProKeyStatus6reason
FNDA:11,_RNvMs1_NtNtCsdGsEM3RpwG4_22dual_core_pdf_pipeline3app6configNtB5_14AiProviderMode12from_env_str
FNDA:3,_RNvMs1_NtNtCsdGsEM3RpwG4_22dual_core_pdf_pipeline3app6configNtB5_14AiProviderMode9env_token
FNDA:10,_RNvMs6_NtNtCsdGsEM3RpwG4_22dual_core_pdf_pipeline3app6configNtB5_9AppConfig14pro_key_status
FNDA:2,_RNvMs6_NtNtCsdGsEM3RpwG4_22dual_core_pdf_pipeline3app6configNtB5_9AppConfig19detect_availability
FNDA:10,_RNvMs6_NtNtCsdGsEM3RpwG4_22dual_core_pdf_pipeline3app6configNtB5_9AppConfig20has_ai_for_balancing
FNDA:6,_RNvMs6_NtNtCsdGsEM3RpwG4_22dual_core_pdf_pipeline3app6configNtB5_9AppConfig21pro_editing_available
FNDA:1,_RNvMs6_NtNtCsdGsEM3RpwG4_22dual_core_pdf_pipeline3app6configNtB5_9AppConfig25pro_editing_status_reason
FNDA:2,_RNvMs6_NtNtCsdGsEM3RpwG4_22dual_core_pdf_pipeline3app6configNtB5_9AppConfig8validate
FNDA:6,_RNvMs7_NtNtCsdGsEM3RpwG4_22dual_core_pdf_pipeline3app6configNtB5_15ApiAvailability18unavailable_reason
FNDA:1,_RNvMs_NtNtCsdGsEM3RpwG4_22dual_core_pdf_pipeline3app6configNtB4_16DocumentAiConfig8has_auth
FNDA:1,_RNvNtNtCsdGsEM3RpwG4_22dual_core_pdf_pipeline3app6config15detect_adc_path
FNDA:1,_RNvNtNtCsdGsEM3RpwG4_22dual_core_pdf_pipeline3app6config18global_http_client
FNDA:14,_RNvXs5_NtNtCsdGsEM3RpwG4_22dual_core_pdf_pipeline3app6configNtB5_9AppConfigNtNtCsaNl6UpbT7bw_4core7default7Default7default
FNDA:0,_RNCNCNvMs6_NtNtCsdGsEM3RpwG4_22dual_core_pdf_pipeline3app6configNtB9_9AppConfig8from_env00Bd_
FNDA:0,_RNCNCNvMs6_NtNtCsdGsEM3RpwG4_22dual_core_pdf_pipeline3app6configNtB9_9AppConfig8from_env0s_0Bd_
FNDA:0,_RNCNvMs6_NtNtCsdGsEM3RpwG4_22dual_core_pdf_pipeline3app6configNtB7_9AppConfig8from_env0Bb_
FNDA:0,_RNCNvMs6_NtNtCsdGsEM3RpwG4_22dual_core_pdf_pipeline3app6configNtB7_9AppConfig8from_envs0_0Bb_
FNDA:0,_RNCNvMs6_NtNtCsdGsEM3RpwG4_22dual_core_pdf_pipeline3app6configNtB7_9AppConfig8from_envs1_0Bb_
FNDA:0,_RNCNvMs6_NtNtCsdGsEM3RpwG4_22dual_core_pdf_pipeline3app6configNtB7_9AppConfig8from_envs2_0Bb_
FNDA:0,_RNCNvMs6_NtNtCsdGsEM3RpwG4_22dual_core_pdf_pipeline3app6configNtB7_9AppConfig8from_envs3_0Bb_
FNDA:0,_RNCNvMs6_NtNtCsdGsEM3RpwG4_22dual_core_pdf_pipeline3app6configNtB7_9AppConfig8from_envs4_0Bb_
FNDA:0,_RNCNvMs6_NtNtCsdGsEM3RpwG4_22dual_core_pdf_pipeline3app6configNtB7_9AppConfig8from_envs5_0Bb_
FNDA:0,_RNCNvMs6_NtNtCsdGsEM3RpwG4_22dual_core_pdf_pipeline3app6configNtB7_9AppConfig8from_envs6_0Bb_
FNDA:0,_RNCNvMs6_NtNtCsdGsEM3RpwG4_22dual_core_pdf_pipeline3app6configNtB7_9AppConfig8from_envs7_0Bb_
FNDA:0,_RNCNvMs6_NtNtCsdGsEM3RpwG4_22dual_core_pdf_pipeline3app6configNtB7_9AppConfig8from_envs_0Bb_
FNDA:0,_RNCNvNtNtCsdGsEM3RpwG4_22dual_core_pdf_pipeline3app6config15detect_adc_path0B7_
FNDA:0,_RNvMs1_NtNtCsdGsEM3RpwG4_22dual_core_pdf_pipeline3app6configNtB5_14AiProviderMode5label
FNDA:0,_RNvMs2_NtNtCsdGsEM3RpwG4_22dual_core_pdf_pipeline3app6configNtB5_18DocumentParserMode5label
FNDA:0,_RNvMs3_NtNtCsdGsEM3RpwG4_22dual_core_pdf_pipeline3app6configNtB5_16VerificationMode5label
FNDA:0,_RNvMs6_NtNtCsdGsEM3RpwG4_22dual_core_pdf_pipeline3app6configNtB5_9AppConfig21has_ai_for_extraction
FNDA:0,_RNvMs6_NtNtCsdGsEM3RpwG4_22dual_core_pdf_pipeline3app6configNtB5_9AppConfig8from_env
FNDA:0,_RNvMs7_NtNtCsdGsEM3RpwG4_22dual_core_pdf_pipeline3app6configNtB5_15ApiAvailability11log_summary
FNDA:0,_RNvMs7_NtNtCsdGsEM3RpwG4_22dual_core_pdf_pipeline3app6configNtB5_15ApiAvailability15disable_service
FNDA:0,_RNvXs0_NtNtCsdGsEM3RpwG4_22dual_core_pdf_pipeline3app6configNtB5_14ConnectionModeNtNtCsaNl6UpbT7bw_4core7default7Default7default
FNDA:14,_RNvXs4_NtNtCsdGsEM3RpwG4_22dual_core_pdf_pipeline3app6configNtB5_9AppConfigNtNtNtCsaNl6UpbT7bw_4core3ops4drop4Drop4drop
FNDA:0,_RNCNvNtNtNtCsdGsEM3RpwG4_22dual_core_pdf_pipeline3app6config5testss_55pro_key_status_does_not_affect_validate_for_split_merge0B9_
FNDA:1,_RNCNvNtNtNtCsdGsEM3RpwG4_22dual_core_pdf_pipeline3app6config5testss_66validate_reports_missing_pro_key_and_passphrase_in_production_mode0B9_
FNDA:2,_RNCNvNtNtNtCsdGsEM3RpwG4_22dual_core_pdf_pipeline3app6config5testss_66validate_reports_missing_pro_key_and_passphrase_in_production_modes_0B9_
FNDA:1,_RNvNtNtNtCsdGsEM3RpwG4_22dual_core_pdf_pipeline3app6config5testss_25test_has_ai_for_balancing
FNDA:1,_RNvNtNtNtCsdGsEM3RpwG4_22dual_core_pdf_pipeline3app6config5testss_29ai_provider_mode_from_env_str
FNDA:1,_RNvNtNtNtCsdGsEM3RpwG4_22dual_core_pdf_pipeline3app6config5testss_33pro_key_status_serializes_to_json
FNDA:1,_RNvNtNtNtCsdGsEM3RpwG4_22dual_core_pdf_pipeline3app6config5testss_37ai_provider_mode_env_token_round_trip
FNDA:1,_RNvNtNtNtCsdGsEM3RpwG4_22dual_core_pdf_pipeline3app6config5testss_39pro_editing_unavailable_when_key_absent
FNDA:1,_RNvNtNtNtCsdGsEM3RpwG4_22dual_core_pdf_pipeline3app6config5testss_42pro_editing_unavailable_with_malformed_key
FNDA:1,_RNvNtNtNtCsdGsEM3RpwG4_22dual_core_pdf_pipeline3app6config5testss_48pro_editing_available_with_well_formed_trial_key
FNDA:1,_RNvNtNtNtCsdGsEM3RpwG4_22dual_core_pdf_pipeline3app6config5testss_55pro_key_status_does_not_affect_validate_for_split_merge
FNDA:1,_RNvNtNtNtCsdGsEM3RpwG4_22dual_core_pdf_pipeline3app6config5testss_56detect_adc_path_returns_string_or_none_without_panicking
FNDA:1,_RNvNtNtNtCsdGsEM3RpwG4_22dual_core_pdf_pipeline3app6config5testss_61detect_availability_exposes_backend_state_and_helpful_reasons
FNDA:1,_RNvNtNtNtCsdGsEM3RpwG4_22dual_core_pdf_pipeline3app6config5testss_63unavailable_reason_exposes_vision_ai_guidance_when_unconfigured
FNDA:1,_RNvNtNtNtCsdGsEM3RpwG4_22dual_core_pdf_pipeline3app6config5testss_64unavailable_reason_exposes_openrouter_guidance_when_unconfigured
FNDA:1,_RNvNtNtNtCsdGsEM3RpwG4_22dual_core_pdf_pipeline3app6config5testss_66validate_reports_missing_pro_key_and_passphrase_in_production_mode
FNDA:0,_RNCNCNvNtNtCsdGsEM3RpwG4_22dual_core_pdf_pipeline3app6config18global_http_client00B9_
FNDA:1,_RNCNvNtNtCsdGsEM3RpwG4_22dual_core_pdf_pipeline3app6config18global_http_client0B7_
FNF:62
FNH:50
DA:21,49
DA:22,49
DA:23,19
DA:24,19
DA:25,19
DA:26,19
DA:27,19
DA:29,19
DA:30,19
DA:31,0
DA:32,0
DA:33,0
DA:34,0
DA:35,0
DA:36,0
DA:37,0
DA:38,0
DA:43,19
DA:44,19
DA:45,19
DA:46,49
DA:47,49
DA:76,20
DA:77,20
DA:78,20
DA:81,1
DA:82,1
DA:84,0
DA:85,0
DA:88,1
DA:89,1
DA:92,1
DA:134,13
DA:135,13
DA:136,13
DA:137,13
DA:138,13
DA:169,0
DA:170,0
DA:171,0
DA:197,5
DA:198,5
DA:199,1
DA:200,1
DA:201,1
DA:202,1
DA:203,1
DA:205,5
DA:210,17
DA:211,17
DA:212,0
DA:213,0
DA:214,15
DA:215,1
DA:216,1
DA:218,17
DA:223,25
DA:224,25
DA:225,25
DA:226,23
DA:227,22
DA:228,20
DA:229,18
DA:230,16
DA:232,25
DA:254,4
DA:255,4
DA:256,1
DA:258,1
DA:259,1
DA:261,1
DA:263,4
DA:278,2
DA:279,2
DA:280,1
DA:281,1
DA:283,2
DA:320,70
DA:321,70
DA:322,70
DA:323,70
DA:324,70
DA:325,70
DA:326,70
DA:327,15
DA:328,15
DA:329,55
DA:330,70
DA:331,70
DA:332,70
DA:334,70
DA:335,70
DA:339,51
DA:340,51
DA:341,51
DA:342,51
DA:343,51
DA:344,51
DA:345,51
DA:346,51
DA:347,51
DA:348,51
DA:349,51
DA:350,51
DA:351,51
DA:352,51
DA:353,51
DA:354,51
DA:355,51
DA:356,51
DA:357,51
DA:358,51
DA:359,51
DA:360,51
DA:361,51
DA:362,51
DA:363,51
DA:364,51
DA:365,51
DA:366,51
DA:374,14
DA:375,14
DA:377,210
DA:378,210
DA:379,210
DA:380,210
DA:381,210
DA:384,14
DA:385,14
DA:386,14
DA:387,14
DA:388,14
DA:389,14
DA:391,14
DA:392,14
DA:395,14
DA:396,14
DA:397,14
DA:398,14
DA:399,14
DA:400,14
DA:401,14
DA:403,14
DA:404,14
DA:405,14
DA:407,14
DA:408,14
DA:409,14
DA:410,14
DA:411,14
DA:412,14
DA:413,14
DA:414,14
DA:415,14
DA:416,14
DA:418,0
DA:422,14
DA:425,14
DA:426,14
DA:427,14
DA:428,14
DA:429,14
DA:431,14
DA:432,14
DA:436,14
DA:437,14
DA:438,14
DA:441,14
DA:442,14
DA:444,0
DA:447,14
DA:448,0
DA:449,0
DA:450,0
DA:451,0
DA:452,0
DA:453,0
DA:454,0
DA:455,0
DA:456,14
DA:459,14
DA:460,14
DA:461,14
DA:462,14
DA:463,14
DA:466,14
DA:467,14
DA:468,14
DA:471,14
DA:472,0
DA:473,0
DA:474,0
DA:475,0
DA:476,14
DA:478,14
DA:479,14
DA:480,14
DA:481,14
DA:484,14
DA:485,14
DA:488,14
DA:489,14
DA:490,14
DA:491,14
DA:492,14
DA:493,14
DA:494,14
DA:495,14
DA:497,14
DA:498,14
DA:499,14
DA:500,14
DA:501,14
DA:502,14
DA:503,14
DA:504,14
DA:505,14
DA:506,14
DA:507,14
DA:508,14
DA:509,14
DA:510,14
DA:512,14
DA:513,14
DA:514,14
DA:515,14
DA:516,14
DA:517,14
DA:519,14
DA:520,14
DA:521,14
DA:522,14
DA:523,14
DA:524,14
DA:525,14
DA:526,14
DA:527,14
DA:529,14
DA:532,2
DA:533,2
DA:535,2
DA:536,1
DA:537,1
DA:539,2
DA:540,1
DA:541,1
DA:542,1
DA:543,1
DA:545,2
DA:546,2
DA:565,24
DA:566,24
DA:567,6
DA:568,20
DA:570,24
DA:577,20
DA:578,20
DA:579,20
DA:584,1
DA:585,1
DA:586,1
DA:594,10
DA:595,10
DA:596,1
DA:597,2
DA:598,3
DA:599,3
DA:600,3
DA:601,3
DA:602,3
DA:603,2
DA:604,2
DA:606,10
DA:609,0
DA:610,0
DA:612,0
DA:613,0
DA:622,16
DA:624,16
DA:625,16
DA:626,16
DA:627,16
DA:628,16
DA:629,16
DA:630,16
DA:631,16
DA:632,16
DA:633,16
DA:634,16
DA:635,16
DA:636,16
DA:638,16
DA:639,16
DA:640,16
DA:641,16
DA:642,16
DA:643,0
DA:644,0
DA:646,16
DA:688,0
DA:689,0
DA:690,0
DA:691,0
DA:692,0
DA:693,0
DA:694,0
DA:695,0
DA:697,0
DA:698,0
DA:699,0
DA:700,0
DA:701,0
DA:703,0
DA:706,6
DA:707,0
DA:708,6
DA:709,0
DA:711,5
DA:712,1
DA:714,4
DA:715,0
DA:717,4
DA:718,1
DA:721,3
DA:722,1
DA:724,2
DA:725,0
DA:727,2
DA:728,1
DA:730,1
DA:731,1
DA:733,0
DA:734,0
DA:736,0
DA:737,0
DA:738,0
DA:740,0
DA:743,1
DA:745,6
DA:748,14
DA:749,14
DA:758,0
DA:760,14
DA:774,15
DA:775,15
DA:776,0
DA:777,0
DA:778,0
DA:779,15
DA:780,15
DA:781,0
DA:782,0
DA:783,0
DA:784,0
DA:785,15
DA:786,15
DA:787,0
DA:788,0
DA:789,0
DA:790,0
DA:791,0
DA:793,15
DA:794,15
DA:795,15
DA:796,15
DA:797,15
DA:798,15
DA:800,15
DA:801,15
DA:802,15
DA:803,15
DA:810,1
DA:812,1
DA:813,1
DA:816,1
DA:817,1
DA:818,1
DA:820,1
DA:821,1
DA:822,1
DA:823,1
DA:826,1
DA:827,1
DA:828,1
DA:830,1
DA:831,1
DA:832,1
DA:835,1
DA:836,1
DA:837,1
DA:839,1
DA:840,1
DA:841,1
DA:844,1
DA:848,1
DA:849,1
DA:850,1
DA:853,1
DA:855,1
DA:856,1
DA:859,1
DA:860,1
DA:861,1
DA:862,1
DA:863,1
DA:866,1
DA:868,1
DA:869,1
DA:872,1
DA:873,1
DA:876,1
DA:877,1
DA:880,1
DA:881,1
DA:884,1
DA:885,1
DA:888,1
DA:889,1
DA:892,1
DA:893,1
DA:894,1
DA:897,1
DA:900,1
DA:902,1
DA:903,1
DA:904,1
DA:905,1
DA:907,4
DA:908,3
DA:910,1
DA:913,1
DA:914,1
DA:915,1
DA:916,1
DA:917,1
DA:919,1
DA:922,1
DA:923,1
DA:924,1
DA:925,1
DA:926,1
DA:929,1
DA:930,1
DA:931,1
DA:932,1
DA:933,1
DA:936,1
DA:937,1
DA:938,1
DA:939,1
DA:940,1
DA:943,1
DA:944,1
DA:945,1
DA:946,1
DA:947,1
DA:948,1
DA:949,1
DA:950,1
DA:951,1
DA:952,1
DA:953,1
DA:954,1
DA:955,1
DA:956,1
DA:959,1
DA:960,1
DA:961,1
DA:964,1
DA:965,1
DA:966,1
DA:967,1
DA:968,1
DA:971,1
DA:972,1
DA:973,2
DA:974,1
DA:977,1
DA:978,1
DA:979,1
DA:980,1
DA:981,1
DA:982,1
DA:983,1
DA:984,1
DA:985,1
DA:986,1
DA:987,1
DA:988,1
DA:989,1
DA:990,1
DA:991,1
DA:992,1
DA:993,1
DA:994,1
DA:997,1
DA:998,1
DA:999,1
DA:1000,1
DA:1001,1
DA:1002,1
DA:1003,1
DA:1004,1
DA:1005,1
DA:1007,1
DA:1008,1
DA:1009,1
DA:1010,1
DA:1011,1
DA:1012,1
DA:1015,1
DA:1016,1
DA:1017,1
DA:1018,1
DA:1019,1
DA:1020,1
DA:1021,1
DA:1022,1
DA:1025,1
DA:1026,1
DA:1027,1
DA:1028,1
DA:1029,1
DA:1030,1
DA:1031,1
BRF:0
BRH:0
LF:551
LH:470
end_of_record
SF:/Volumes/Macintosh_HD/Users/user298993/Documents/GitHub/bank-statement-fidelity-editor/src/app/env_spec.rs
FN:156,_RNCNvNtNtCshN9TtrzEz6i_22dual_core_pdf_pipeline3app8env_spec6lookup0B7_
FN:20,_RNvMNtNtCshN9TtrzEz6i_22dual_core_pdf_pipeline3app8env_specNtB2_11Requirement5label
FN:188,_RNvNtNtCshN9TtrzEz6i_22dual_core_pdf_pipeline3app8env_spec12guidance_for
FN:181,_RNvNtNtCshN9TtrzEz6i_22dual_core_pdf_pipeline3app8env_spec22is_well_formed_pro_key
FN:155,_RNvNtNtCshN9TtrzEz6i_22dual_core_pdf_pipeline3app8env_spec6lookup
FN:225,_RNvNtNtNtCsdGsEM3RpwG4_22dual_core_pdf_pipeline3app8env_spec5testss_22lookup_finds_known_var
FN:209,_RNvNtNtNtCsdGsEM3RpwG4_22dual_core_pdf_pipeline3app8env_spec5testss_33every_required_var_has_setup_hint
FN:261,_RNvNtNtNtCsdGsEM3RpwG4_22dual_core_pdf_pipeline3app8env_spec5testss_33pymupdf_pro_key_var_is_catalogued
FN:231,_RNvNtNtNtCsdGsEM3RpwG4_22dual_core_pdf_pipeline3app8env_spec5testss_35guidance_mentions_the_variable_name
FN:238,_RNvNtNtNtCsdGsEM3RpwG4_22dual_core_pdf_pipeline3app8env_spec5testss_36guidance_for_unknown_var_is_graceful
FN:244,_RNvNtNtNtCsdGsEM3RpwG4_22dual_core_pdf_pipeline3app8env_spec5testss_44well_formed_pro_key_accepts_24_char_hfkt_key
FN:252,_RNvNtNtNtCsdGsEM3RpwG4_22dual_core_pdf_pipeline3app8env_spec5testss_50well_formed_pro_key_rejects_wrong_length_or_prefix
FN:156,_RNCNvNtNtCsdGsEM3RpwG4_22dual_core_pdf_pipeline3app8env_spec6lookup0B7_
FN:20,_RNvMNtNtCsdGsEM3RpwG4_22dual_core_pdf_pipeline3app8env_specNtB2_11Requirement5label
FN:188,_RNvNtNtCsdGsEM3RpwG4_22dual_core_pdf_pipeline3app8env_spec12guidance_for
FN:181,_RNvNtNtCsdGsEM3RpwG4_22dual_core_pdf_pipeline3app8env_spec22is_well_formed_pro_key
FN:155,_RNvNtNtCsdGsEM3RpwG4_22dual_core_pdf_pipeline3app8env_spec6lookup
FNDA:0,_RNCNvNtNtCshN9TtrzEz6i_22dual_core_pdf_pipeline3app8env_spec6lookup0B7_
FNDA:5,_RNvMNtNtCshN9TtrzEz6i_22dual_core_pdf_pipeline3app8env_specNtB2_11Requirement5label
FNDA:0,_RNvNtNtCshN9TtrzEz6i_22dual_core_pdf_pipeline3app8env_spec12guidance_for
FNDA:11,_RNvNtNtCshN9TtrzEz6i_22dual_core_pdf_pipeline3app8env_spec22is_well_formed_pro_key
FNDA:0,_RNvNtNtCshN9TtrzEz6i_22dual_core_pdf_pipeline3app8env_spec6lookup
FNDA:1,_RNvNtNtNtCsdGsEM3RpwG4_22dual_core_pdf_pipeline3app8env_spec5testss_22lookup_finds_known_var
FNDA:1,_RNvNtNtNtCsdGsEM3RpwG4_22dual_core_pdf_pipeline3app8env_spec5testss_33every_required_var_has_setup_hint
FNDA:1,_RNvNtNtNtCsdGsEM3RpwG4_22dual_core_pdf_pipeline3app8env_spec5testss_33pymupdf_pro_key_var_is_catalogued
FNDA:1,_RNvNtNtNtCsdGsEM3RpwG4_22dual_core_pdf_pipeline3app8env_spec5testss_35guidance_mentions_the_variable_name
FNDA:1,_RNvNtNtNtCsdGsEM3RpwG4_22dual_core_pdf_pipeline3app8env_spec5testss_36guidance_for_unknown_var_is_graceful
FNDA:1,_RNvNtNtNtCsdGsEM3RpwG4_22dual_core_pdf_pipeline3app8env_spec5testss_44well_formed_pro_key_accepts_24_char_hfkt_key
FNDA:1,_RNvNtNtNtCsdGsEM3RpwG4_22dual_core_pdf_pipeline3app8env_spec5testss_50well_formed_pro_key_rejects_wrong_length_or_prefix
FNDA:32,_RNCNvNtNtCsdGsEM3RpwG4_22dual_core_pdf_pipeline3app8env_spec6lookup0B7_
FNDA:1,_RNvMNtNtCsdGsEM3RpwG4_22dual_core_pdf_pipeline3app8env_specNtB2_11Requirement5label
FNDA:2,_RNvNtNtCsdGsEM3RpwG4_22dual_core_pdf_pipeline3app8env_spec12guidance_for
FNDA:11,_RNvNtNtCsdGsEM3RpwG4_22dual_core_pdf_pipeline3app8env_spec22is_well_formed_pro_key
FNDA:5,_RNvNtNtCsdGsEM3RpwG4_22dual_core_pdf_pipeline3app8env_spec6lookup
FNF:12
FNH:12
DA:20,6
DA:21,6
DA:22,0
DA:23,1
DA:24,5
DA:26,6
DA:155,5
DA:156,32
DA:157,5
DA:181,22
DA:182,22
DA:183,22
DA:188,2
DA:189,2
DA:190,1
DA:191,1
DA:193,1
DA:200,1
DA:202,2
DA:209,1
DA:210,14
DA:211,13
DA:212,13
DA:213,0
DA:216,13
DA:217,13
DA:218,0
DA:222,1
DA:225,1
DA:226,1
DA:227,1
DA:228,1
DA:231,1
DA:232,1
DA:233,1
DA:234,1
DA:235,1
DA:238,1
DA:239,1
DA:240,1
DA:241,1
DA:244,1
DA:246,1
DA:247,1
DA:248,1
DA:249,1
DA:252,1
DA:253,1
DA:254,1
DA:255,1
DA:256,1
DA:257,1
DA:258,1
DA:261,1
DA:262,1
DA:263,1
BRF:0
BRH:0
LF:57
LH:53
end_of_record
SF:/Volumes/Macintosh_HD/Users/user298993/Documents/GitHub/bank-statement-fidelity-editor/src/app/error.rs
FN:56,_RNvMs_NtNtCshN9TtrzEz6i_22dual_core_pdf_pipeline3app5errorNtB4_8AppError16suggested_action
FN:38,_RNvMs_NtNtCshN9TtrzEz6i_22dual_core_pdf_pipeline3app5errorNtB4_8AppError9parse_msg
FN:31,_RNvXNtNtCshN9TtrzEz6i_22dual_core_pdf_pipeline3app5errorNtB2_8AppErrorINtNtCsaNl6UpbT7bw_4core7convert4FromNtNtNtCsht3nMU9UgFu_3std2io5error5ErrorE4from
FN:56,_RNvMs_NtNtCsdGsEM3RpwG4_22dual_core_pdf_pipeline3app5errorNtB4_8AppError16suggested_action
FN:38,_RNvMs_NtNtCsdGsEM3RpwG4_22dual_core_pdf_pipeline3app5errorNtB4_8AppError9parse_msg
FN:31,_RNvXNtNtCsdGsEM3RpwG4_22dual_core_pdf_pipeline3app5errorNtB2_8AppErrorINtNtCsaNl6UpbT7bw_4core7convert4FromNtNtNtCsht3nMU9UgFu_3std2io5error5ErrorE4from
FNDA:4,_RNvMs_NtNtCshN9TtrzEz6i_22dual_core_pdf_pipeline3app5errorNtB4_8AppError16suggested_action
FNDA:1,_RNvMs_NtNtCshN9TtrzEz6i_22dual_core_pdf_pipeline3app5errorNtB4_8AppError9parse_msg
FNDA:0,_RNvXNtNtCshN9TtrzEz6i_22dual_core_pdf_pipeline3app5errorNtB2_8AppErrorINtNtCsaNl6UpbT7bw_4core7convert4FromNtNtNtCsht3nMU9UgFu_3std2io5error5ErrorE4from
FNDA:0,_RNvMs_NtNtCsdGsEM3RpwG4_22dual_core_pdf_pipeline3app5errorNtB4_8AppError16suggested_action
FNDA:0,_RNvMs_NtNtCsdGsEM3RpwG4_22dual_core_pdf_pipeline3app5errorNtB4_8AppError9parse_msg
FNDA:0,_RNvXNtNtCsdGsEM3RpwG4_22dual_core_pdf_pipeline3app5errorNtB2_8AppErrorINtNtCsaNl6UpbT7bw_4core7convert4FromNtNtNtCsht3nMU9UgFu_3std2io5error5ErrorE4from
FNF:3
FNH:2
DA:31,0
DA:32,0
DA:33,0
DA:38,1
DA:39,1
DA:40,1
DA:41,0
DA:42,1
DA:43,0
DA:44,1
DA:45,0
DA:46,1
DA:47,0
DA:48,1
DA:49,0
DA:51,1
DA:53,1
DA:56,4
DA:57,4
DA:58,0
DA:59,0
DA:60,0
DA:61,0
DA:62,0
DA:63,4
DA:64,0
DA:66,4
BRF:0
BRH:0
LF:27
LH:13
end_of_record
SF:/Volumes/Macintosh_HD/Users/user298993/Documents/GitHub/bank-statement-fidelity-editor/src/app/fontcache.rs
FN:198,_RNCNvNtNtCsdGsEM3RpwG4_22dual_core_pdf_pipeline3app9fontcache12download_one0B7_
FN:215,_RNCNvNtNtCsdGsEM3RpwG4_22dual_core_pdf_pipeline3app9fontcache12download_ones0_0B7_
FN:221,_RNCNvNtNtCsdGsEM3RpwG4_22dual_core_pdf_pipeline3app9fontcache12download_ones1_0B7_
FN:202,_RNCNvNtNtCsdGsEM3RpwG4_22dual_core_pdf_pipeline3app9fontcache12download_ones_0B7_
FN:124,_RNCNvNtNtCsdGsEM3RpwG4_22dual_core_pdf_pipeline3app9fontcache9bootstrap0B7_
FN:140,_RNCNvNtNtCsdGsEM3RpwG4_22dual_core_pdf_pipeline3app9fontcache9bootstraps0_0B7_
FN:179,_RNCNvNtNtCsdGsEM3RpwG4_22dual_core_pdf_pipeline3app9fontcache9bootstraps1_0B7_
FN:181,_RNCNvNtNtCsdGsEM3RpwG4_22dual_core_pdf_pipeline3app9fontcache9bootstraps2_0B7_
FN:130,_RNCNvNtNtCsdGsEM3RpwG4_22dual_core_pdf_pipeline3app9fontcache9bootstraps_0B7_
FN:95,_RNvMNtNtCsdGsEM3RpwG4_22dual_core_pdf_pipeline3app9fontcacheNtB2_15BootstrapReport5print
FN:186,_RNvNtNtCsdGsEM3RpwG4_22dual_core_pdf_pipeline3app9fontcache12download_one
FN:227,_RNvNtNtCsdGsEM3RpwG4_22dual_core_pdf_pipeline3app9fontcache17default_cache_dir
FN:123,_RNvNtNtCsdGsEM3RpwG4_22dual_core_pdf_pipeline3app9fontcache9bootstrap
FN:250,_RNvNtNtNtCsdGsEM3RpwG4_22dual_core_pdf_pipeline3app9fontcache5testss_22seed_list_is_non_empty
FN:236,_RNvNtNtNtCsdGsEM3RpwG4_22dual_core_pdf_pipeline3app9fontcache5testss_33manifest_path_is_inside_cache_dir
FN:198,_RNCNvNtNtCshN9TtrzEz6i_22dual_core_pdf_pipeline3app9fontcache12download_one0B7_
FN:215,_RNCNvNtNtCshN9TtrzEz6i_22dual_core_pdf_pipeline3app9fontcache12download_ones0_0B7_
FN:221,_RNCNvNtNtCshN9TtrzEz6i_22dual_core_pdf_pipeline3app9fontcache12download_ones1_0B7_
FN:202,_RNCNvNtNtCshN9TtrzEz6i_22dual_core_pdf_pipeline3app9fontcache12download_ones_0B7_
FN:124,_RNCNvNtNtCshN9TtrzEz6i_22dual_core_pdf_pipeline3app9fontcache9bootstrap0B7_
FN:140,_RNCNvNtNtCshN9TtrzEz6i_22dual_core_pdf_pipeline3app9fontcache9bootstraps0_0B7_
FN:179,_RNCNvNtNtCshN9TtrzEz6i_22dual_core_pdf_pipeline3app9fontcache9bootstraps1_0B7_
FN:181,_RNCNvNtNtCshN9TtrzEz6i_22dual_core_pdf_pipeline3app9fontcache9bootstraps2_0B7_
FN:130,_RNCNvNtNtCshN9TtrzEz6i_22dual_core_pdf_pipeline3app9fontcache9bootstraps_0B7_
FN:95,_RNvMNtNtCshN9TtrzEz6i_22dual_core_pdf_pipeline3app9fontcacheNtB2_15BootstrapReport5print
FN:186,_RNvNtNtCshN9TtrzEz6i_22dual_core_pdf_pipeline3app9fontcache12download_one
FN:227,_RNvNtNtCshN9TtrzEz6i_22dual_core_pdf_pipeline3app9fontcache17default_cache_dir
FN:123,_RNvNtNtCshN9TtrzEz6i_22dual_core_pdf_pipeline3app9fontcache9bootstrap
FNDA:0,_RNCNvNtNtCsdGsEM3RpwG4_22dual_core_pdf_pipeline3app9fontcache12download_one0B7_
FNDA:0,_RNCNvNtNtCsdGsEM3RpwG4_22dual_core_pdf_pipeline3app9fontcache12download_ones0_0B7_
FNDA:0,_RNCNvNtNtCsdGsEM3RpwG4_22dual_core_pdf_pipeline3app9fontcache12download_ones1_0B7_
FNDA:0,_RNCNvNtNtCsdGsEM3RpwG4_22dual_core_pdf_pipeline3app9fontcache12download_ones_0B7_
FNDA:0,_RNCNvNtNtCsdGsEM3RpwG4_22dual_core_pdf_pipeline3app9fontcache9bootstrap0B7_
FNDA:0,_RNCNvNtNtCsdGsEM3RpwG4_22dual_core_pdf_pipeline3app9fontcache9bootstraps0_0B7_
FNDA:0,_RNCNvNtNtCsdGsEM3RpwG4_22dual_core_pdf_pipeline3app9fontcache9bootstraps1_0B7_
FNDA:0,_RNCNvNtNtCsdGsEM3RpwG4_22dual_core_pdf_pipeline3app9fontcache9bootstraps2_0B7_
FNDA:0,_RNCNvNtNtCsdGsEM3RpwG4_22dual_core_pdf_pipeline3app9fontcache9bootstraps_0B7_
FNDA:0,_RNvMNtNtCsdGsEM3RpwG4_22dual_core_pdf_pipeline3app9fontcacheNtB2_15BootstrapReport5print
FNDA:0,_RNvNtNtCsdGsEM3RpwG4_22dual_core_pdf_pipeline3app9fontcache12download_one
FNDA:0,_RNvNtNtCsdGsEM3RpwG4_22dual_core_pdf_pipeline3app9fontcache17default_cache_dir
FNDA:0,_RNvNtNtCsdGsEM3RpwG4_22dual_core_pdf_pipeline3app9fontcache9bootstrap
FNDA:1,_RNvNtNtNtCsdGsEM3RpwG4_22dual_core_pdf_pipeline3app9fontcache5testss_22seed_list_is_non_empty
FNDA:1,_RNvNtNtNtCsdGsEM3RpwG4_22dual_core_pdf_pipeline3app9fontcache5testss_33manifest_path_is_inside_cache_dir
FNDA:0,_RNCNvNtNtCshN9TtrzEz6i_22dual_core_pdf_pipeline3app9fontcache12download_one0B7_
FNDA:0,_RNCNvNtNtCshN9TtrzEz6i_22dual_core_pdf_pipeline3app9fontcache12download_ones0_0B7_
FNDA:0,_RNCNvNtNtCshN9TtrzEz6i_22dual_core_pdf_pipeline3app9fontcache12download_ones1_0B7_
FNDA:0,_RNCNvNtNtCshN9TtrzEz6i_22dual_core_pdf_pipeline3app9fontcache12download_ones_0B7_
FNDA:0,_RNCNvNtNtCshN9TtrzEz6i_22dual_core_pdf_pipeline3app9fontcache9bootstrap0B7_
FNDA:0,_RNCNvNtNtCshN9TtrzEz6i_22dual_core_pdf_pipeline3app9fontcache9bootstraps0_0B7_
FNDA:0,_RNCNvNtNtCshN9TtrzEz6i_22dual_core_pdf_pipeline3app9fontcache9bootstraps1_0B7_
FNDA:0,_RNCNvNtNtCshN9TtrzEz6i_22dual_core_pdf_pipeline3app9fontcache9bootstraps2_0B7_
FNDA:0,_RNCNvNtNtCshN9TtrzEz6i_22dual_core_pdf_pipeline3app9fontcache9bootstraps_0B7_
FNDA:0,_RNvMNtNtCshN9TtrzEz6i_22dual_core_pdf_pipeline3app9fontcacheNtB2_15BootstrapReport5print
FNDA:0,_RNvNtNtCshN9TtrzEz6i_22dual_core_pdf_pipeline3app9fontcache12download_one
FNDA:0,_RNvNtNtCshN9TtrzEz6i_22dual_core_pdf_pipeline3app9fontcache17default_cache_dir
FNDA:0,_RNvNtNtCshN9TtrzEz6i_22dual_core_pdf_pipeline3app9fontcache9bootstrap
FNF:15
FNH:2
DA:95,0
DA:96,0
DA:97,0
DA:98,0
DA:99,0
DA:100,0
DA:101,0
DA:102,0
DA:103,0
DA:104,0
DA:105,0
DA:106,0
DA:107,0
DA:108,0
DA:109,0
DA:110,0
DA:111,0
DA:112,0
DA:113,0
DA:114,0
DA:116,0
DA:123,0
DA:124,0
DA:126,0
DA:127,0
DA:128,0
DA:129,0
DA:130,0
DA:132,0
DA:133,0
DA:134,0
DA:135,0
DA:137,0
DA:138,0
DA:139,0
DA:140,0
DA:141,0
DA:143,0
DA:146,0
DA:147,0
DA:148,0
DA:152,0
DA:153,0
DA:154,0
DA:155,0
DA:157,0
DA:159,0
DA:160,0
DA:161,0
DA:162,0
DA:163,0
DA:165,0
DA:167,0
DA:168,0
DA:169,0
DA:170,0
DA:171,0
DA:172,0
DA:173,0
DA:174,0
DA:178,0
DA:179,0
DA:180,0
DA:181,0
DA:183,0
DA:184,0
DA:186,0
DA:190,0
DA:191,0
DA:192,0
DA:193,0
DA:195,0
DA:196,0
DA:197,0
DA:198,0
DA:199,0
DA:200,0
DA:201,0
DA:202,0
DA:204,0
DA:205,0
DA:206,0
DA:208,0
DA:209,0
DA:210,0
DA:211,0
DA:212,0
DA:213,0
DA:214,0
DA:215,0
DA:218,0
DA:219,0
DA:220,0
DA:221,0
DA:222,0
DA:223,0
DA:227,0
DA:228,0
DA:229,0
DA:236,1
DA:237,1
DA:238,1
DA:239,1
DA:240,1
DA:241,1
DA:242,1
DA:243,1
DA:244,1
DA:245,1
DA:246,1
DA:250,1
DA:251,1
DA:252,10
DA:253,9
DA:254,9
DA:255,0
DA:258,9
DA:259,9
DA:260,0
DA:264,1
BRF:0
BRH:0
LF:129
LH:19
end_of_record
SF:/Volumes/Macintosh_HD/Users/user298993/Documents/GitHub/bank-statement-fidelity-editor/src/app/gui.rs
FN:3296,_RNCNvMs2_NtNtCshN9TtrzEz6i_22dual_core_pdf_pipeline3app3guiNtB7_5MyApp11upsert_edits0_0Bb_
FN:3322,_RNCNvMs2_NtNtCshN9TtrzEz6i_22dual_core_pdf_pipeline3app3guiNtB7_5MyApp16revert_row_edits0Bb_
FN:800,_RNCNvMs_NtNtCshN9TtrzEz6i_22dual_core_pdf_pipeline3app3guiNtB6_5MyApp19update_recent_files0Ba_
FN:5092,_RNCNvNtNtCshN9TtrzEz6i_22dual_core_pdf_pipeline3app3gui15upsert_env_files0_0B7_
FN:5094,_RNCNvNtNtCshN9TtrzEz6i_22dual_core_pdf_pipeline3app3gui15upsert_env_files1_0B7_
FN:3925,_RNCNCNCNvMs2_NtNtCshN9TtrzEz6i_22dual_core_pdf_pipeline3app3guiNtBb_5MyApp16draw_batch_panel000Bf_
FN:3927,_RNCNCNCNvMs2_NtNtCshN9TtrzEz6i_22dual_core_pdf_pipeline3app3guiNtBb_5MyApp16draw_batch_panel00s0_0Bf_
FN:3927,_RNCNCNCNvMs2_NtNtCshN9TtrzEz6i_22dual_core_pdf_pipeline3app3guiNtBb_5MyApp16draw_batch_panel00s_0Bf_
FN:2881,_RNCNCNvMs2_NtNtCshN9TtrzEz6i_22dual_core_pdf_pipeline3app3guiNtB9_5MyApp15draw_left_panel00Bd_
FN:2900,_RNCNCNvMs2_NtNtCshN9TtrzEz6i_22dual_core_pdf_pipeline3app3guiNtB9_5MyApp15draw_left_panel0s_0Bd_
FN:3919,_RNCNCNvMs2_NtNtCshN9TtrzEz6i_22dual_core_pdf_pipeline3app3guiNtB9_5MyApp16draw_batch_panel00Bd_
FN:3994,_RNCNCNvMs2_NtNtCshN9TtrzEz6i_22dual_core_pdf_pipeline3app3guiNtB9_5MyApp16draw_batch_panel0s0_0Bd_
FN:3945,_RNCNCNvMs2_NtNtCshN9TtrzEz6i_22dual_core_pdf_pipeline3app3guiNtB9_5MyApp16draw_batch_panel0s_0Bd_
FN:723,_RNCNCNvMs_NtNtCshN9TtrzEz6i_22dual_core_pdf_pipeline3app3guiNtB8_5MyApp25pair_originals_and_edited00Bc_
FN:2879,_RNCNvMs2_NtNtCshN9TtrzEz6i_22dual_core_pdf_pipeline3app3guiNtB7_5MyApp15draw_left_panel0Bb_
FN:3915,_RNCNvMs2_NtNtCshN9TtrzEz6i_22dual_core_pdf_pipeline3app3guiNtB7_5MyApp16draw_batch_panel0Bb_
FN:721,_RNCNvMs_NtNtCshN9TtrzEz6i_22dual_core_pdf_pipeline3app3guiNtB6_5MyApp25pair_originals_and_edited0Ba_
FN:732,_RNCNvMs_NtNtCshN9TtrzEz6i_22dual_core_pdf_pipeline3app3guiNtB6_5MyApp25pair_originals_and_editeds_0Ba_
FN:2876,_RNvMs2_NtNtCshN9TtrzEz6i_22dual_core_pdf_pipeline3app3guiNtB5_5MyApp15draw_left_panel
FN:3914,_RNvMs2_NtNtCshN9TtrzEz6i_22dual_core_pdf_pipeline3app3guiNtB5_5MyApp16draw_batch_panel
FN:832,_RNvMs_NtNtCshN9TtrzEz6i_22dual_core_pdf_pipeline3app3guiNtB4_5MyApp21build_artifact_bundle
FN:717,_RNvMs_NtNtCshN9TtrzEz6i_22dual_core_pdf_pipeline3app3guiNtB4_5MyApp25pair_originals_and_edited
FN:3032,_RNCNCNCNvMs2_NtNtCshN9TtrzEz6i_22dual_core_pdf_pipeline3app3guiNtBb_5MyApp24draw_workflow_edit_tables_0s_0s_0Bf_
FN:3276,_RNCNCNvMs2_NtNtCshN9TtrzEz6i_22dual_core_pdf_pipeline3app3guiNtB9_5MyApp11upsert_edits_00Bd_
FN:3284,_RNCNCNvMs2_NtNtCshN9TtrzEz6i_22dual_core_pdf_pipeline3app3guiNtB9_5MyApp11upsert_edits_0s0_0Bd_
FN:3280,_RNCNCNvMs2_NtNtCshN9TtrzEz6i_22dual_core_pdf_pipeline3app3guiNtB9_5MyApp11upsert_edits_0s_0Bd_
FN:1105,_RNCNvMs1_NtNtCshN9TtrzEz6i_22dual_core_pdf_pipeline3app3guiNtB7_5MyApp15headless_updates3_0Bb_
FN:3269,_RNCNvMs2_NtNtCshN9TtrzEz6i_22dual_core_pdf_pipeline3app3guiNtB7_5MyApp11upsert_edit0Bb_
FN:3305,_RNCNvMs2_NtNtCshN9TtrzEz6i_22dual_core_pdf_pipeline3app3guiNtB7_5MyApp11upsert_edits1_0Bb_
FN:3271,_RNCNvMs2_NtNtCshN9TtrzEz6i_22dual_core_pdf_pipeline3app3guiNtB7_5MyApp11upsert_edits_0Bb_
FN:1446,_RNCNvMs2_NtNtCshN9TtrzEz6i_22dual_core_pdf_pipeline3app3guiNtB7_5MyApp17handle_job_result0Bb_
FN:1565,_RNCNvMs2_NtNtCshN9TtrzEz6i_22dual_core_pdf_pipeline3app3guiNtB7_5MyApp17handle_job_results0_0Bb_
FN:1660,_RNCNvMs2_NtNtCshN9TtrzEz6i_22dual_core_pdf_pipeline3app3guiNtB7_5MyApp17handle_job_results1_0Bb_
FN:2979,_RNCNvMs2_NtNtCshN9TtrzEz6i_22dual_core_pdf_pipeline3app3guiNtB7_5MyApp24draw_workflow_edit_table0Bb_
FN:3895,_RNCNvMs2_NtNtCshN9TtrzEz6i_22dual_core_pdf_pipeline3app3guiNtB7_5MyApp27dispatch_confirm_and_renders_0Bb_
FN:780,_RNCNvMs_NtNtCshN9TtrzEz6i_22dual_core_pdf_pipeline3app3guiNtB6_5MyApp14request_render0Ba_
FN:900,_RNCNvMs_NtNtCshN9TtrzEz6i_22dual_core_pdf_pipeline3app3guiNtB6_5MyApp15export_to_excel0Ba_
FN:412,_RNCNvMs_NtNtCshN9TtrzEz6i_22dual_core_pdf_pipeline3app3guiNtB6_5MyApp3new0Ba_
FN:516,_RNCNvMs_NtNtCshN9TtrzEz6i_22dual_core_pdf_pipeline3app3guiNtB6_5MyApp3news_0Ba_
FN:5170,_RNCNvNtNtCshN9TtrzEz6i_22dual_core_pdf_pipeline3app3gui7run_gui0B7_
FN:972,_RNvMs1_NtNtCshN9TtrzEz6i_22dual_core_pdf_pipeline3app3guiNtB5_5MyApp15headless_update
FN:3210,_RNvMs2_NtNtCshN9TtrzEz6i_22dual_core_pdf_pipeline3app3guiNtB5_5MyApp10money_cell
FN:4677,_RNvMs2_NtNtCshN9TtrzEz6i_22dual_core_pdf_pipeline3app3guiNtB5_5MyApp11draw_toasts
FN:3264,_RNvMs2_NtNtCshN9TtrzEz6i_22dual_core_pdf_pipeline3app3guiNtB5_5MyApp11upsert_edit
FN:2001,_RNvMs2_NtNtCshN9TtrzEz6i_22dual_core_pdf_pipeline3app3guiNtB5_5MyApp12draw_sidebar
FN:3167,_RNvMs2_NtNtCshN9TtrzEz6i_22dual_core_pdf_pipeline3app3guiNtB5_5MyApp14bbox_for_field
FN:2759,_RNvMs2_NtNtCshN9TtrzEz6i_22dual_core_pdf_pipeline3app3guiNtB5_5MyApp15draw_status_bar
FN:4778,_RNvMs2_NtNtCshN9TtrzEz6i_22dual_core_pdf_pipeline3app3guiNtB5_5MyApp16handle_shortcuts
FN:3319,_RNvMs2_NtNtCshN9TtrzEz6i_22dual_core_pdf_pipeline3app3guiNtB5_5MyApp16revert_row_edits
FN:2943,_RNvMs2_NtNtCshN9TtrzEz6i_22dual_core_pdf_pipeline3app3guiNtB5_5MyApp16safe_output_path
FN:4469,_RNvMs2_NtNtCshN9TtrzEz6i_22dual_core_pdf_pipeline3app3guiNtB5_5MyApp17draw_empty_canvas
FN:1371,_RNvMs2_NtNtCshN9TtrzEz6i_22dual_core_pdf_pipeline3app3guiNtB5_5MyApp17handle_job_result
FN:4018,_RNvMs2_NtNtCshN9TtrzEz6i_22dual_core_pdf_pipeline3app3guiNtB5_5MyApp18draw_central_panel
FN:4884,_RNvMs2_NtNtCshN9TtrzEz6i_22dual_core_pdf_pipeline3app3guiNtB5_5MyApp19workflow_draft_path
FN:3526,_RNvMs2_NtNtCshN9TtrzEz6i_22dual_core_pdf_pipeline3app3guiNtB5_5MyApp21draw_workflow_section
FN:4971,_RNvMs2_NtNtCshN9TtrzEz6i_22dual_core_pdf_pipeline3app3guiNtB5_5MyApp21resume_workflow_draft
FN:2745,_RNvMs2_NtNtCshN9TtrzEz6i_22dual_core_pdf_pipeline3app3guiNtB5_5MyApp22draw_api_keys_workflow
FN:2718,_RNvMs2_NtNtCshN9TtrzEz6i_22dual_core_pdf_pipeline3app3guiNtB5_5MyApp22draw_settings_workflow
FN:2486,_RNvMs2_NtNtCshN9TtrzEz6i_22dual_core_pdf_pipeline3app3guiNtB5_5MyApp22draw_transfer_workflow
FN:4905,_RNvMs2_NtNtCshN9TtrzEz6i_22dual_core_pdf_pipeline3app3guiNtB5_5MyApp23autosave_workflow_draft
FN:4004,_RNvMs2_NtNtCshN9TtrzEz6i_22dual_core_pdf_pipeline3app3guiNtB5_5MyApp24draw_audit_explorer_view
FN:2972,_RNvMs2_NtNtCshN9TtrzEz6i_22dual_core_pdf_pipeline3app3guiNtB5_5MyApp24draw_workflow_edit_table
FN:3363,_RNvMs2_NtNtCshN9TtrzEz6i_22dual_core_pdf_pipeline3app3guiNtB5_5MyApp26draw_font_analysis_section
FN:3860,_RNvMs2_NtNtCshN9TtrzEz6i_22dual_core_pdf_pipeline3app3guiNtB5_5MyApp27dispatch_confirm_and_render
FN:2639,_RNvMs2_NtNtCshN9TtrzEz6i_22dual_core_pdf_pipeline3app3guiNtB5_5MyApp27draw_agent_command_workflow
FN:2705,_RNvMs2_NtNtCshN9TtrzEz6i_22dual_core_pdf_pipeline3app3guiNtB5_5MyApp27draw_chaos_sandbox_workflow
FN:4891,_RNvMs2_NtNtCshN9TtrzEz6i_22dual_core_pdf_pipeline3app3guiNtB5_5MyApp28discard_workflow_draft_quiet
FN:2164,_RNvMs2_NtNtCshN9TtrzEz6i_22dual_core_pdf_pipeline3app3guiNtB5_5MyApp28draw_edit_statement_workflow
FN:3343,_RNvMs2_NtNtCshN9TtrzEz6i_22dual_core_pdf_pipeline3app3guiNtB5_5MyApp33dispatch_instant_background_apply
FN:4849,_RNvMs2_NtNtCshN9TtrzEz6i_22dual_core_pdf_pipeline3app3guiNtB5_5MyApp8open_pdf
FN:762,_RNvMs_NtNtCshN9TtrzEz6i_22dual_core_pdf_pipeline3app3guiNtB4_5MyApp14request_render
FN:899,_RNvMs_NtNtCshN9TtrzEz6i_22dual_core_pdf_pipeline3app3guiNtB4_5MyApp15export_to_excel
FN:928,_RNvMs_NtNtCshN9TtrzEz6i_22dual_core_pdf_pipeline3app3guiNtB4_5MyApp16fit_zoom_to_view
FN:585,_RNvMs_NtNtCshN9TtrzEz6i_22dual_core_pdf_pipeline3app3guiNtB4_5MyApp16save_credentials
FN:799,_RNvMs_NtNtCshN9TtrzEz6i_22dual_core_pdf_pipeline3app3guiNtB4_5MyApp19update_recent_files
FN:938,_RNvMs_NtNtCshN9TtrzEz6i_22dual_core_pdf_pipeline3app3guiNtB4_5MyApp20balance_trend_points
FN:810,_RNvMs_NtNtCshN9TtrzEz6i_22dual_core_pdf_pipeline3app3guiNtB4_5MyApp23load_texture_from_bytes
FN:401,_RNvMs_NtNtCshN9TtrzEz6i_22dual_core_pdf_pipeline3app3guiNtB4_5MyApp3new
FN:93,_RNvNtNtCshN9TtrzEz6i_22dual_core_pdf_pipeline3app3gui12default_true
FN:5061,_RNvNtNtCshN9TtrzEz6i_22dual_core_pdf_pipeline3app3gui15upsert_env_file
FN:5105,_RNvNtNtCshN9TtrzEz6i_22dual_core_pdf_pipeline3app3gui18setup_custom_fonts
FN:96,_RNvNtNtCshN9TtrzEz6i_22dual_core_pdf_pipeline3app3gui24default_visual_threshold
FN:99,_RNvNtNtCshN9TtrzEz6i_22dual_core_pdf_pipeline3app3gui27default_max_visual_attempts
FN:5153,_RNvNtNtCshN9TtrzEz6i_22dual_core_pdf_pipeline3app3gui7run_gui
FN:5141,_RNvNtNtCshN9TtrzEz6i_22dual_core_pdf_pipeline3app3gui9load_icon
FN:104,_RNvXNtNtCshN9TtrzEz6i_22dual_core_pdf_pipeline3app3guiNtB2_11AppSettingsNtNtCsaNl6UpbT7bw_4core7default7Default7default
FN:966,_RNvXs0_NtNtCshN9TtrzEz6i_22dual_core_pdf_pipeline3app3guiNtB5_5MyAppNtNtCsbbt3wsBKW5l_6eframe3epi3App6update
FN:4681,_RNCNvMs2_NtNtCshN9TtrzEz6i_22dual_core_pdf_pipeline3app3guiNtB7_5MyApp11draw_toasts0Bb_
FN:4772,_RNCNvMs2_NtNtCshN9TtrzEz6i_22dual_core_pdf_pipeline3app3guiNtB7_5MyApp11draw_toastss0_0Bb_
FN:4746,_RNCNCNCNCNCNvMs2_NtNtCshN9TtrzEz6i_22dual_core_pdf_pipeline3app3guiNtBf_5MyApp11draw_toastss_00000Bj_
FN:4269,_RNCNCNCNCNCNvMs2_NtNtCshN9TtrzEz6i_22dual_core_pdf_pipeline3app3guiNtBf_5MyApp18draw_central_panel0s_0s5_000Bj_
FN:4278,_RNCNCNCNCNCNvMs2_NtNtCshN9TtrzEz6i_22dual_core_pdf_pipeline3app3guiNtBf_5MyApp18draw_central_panel0s_0s5_00s_0Bj_
FN:4745,_RNCNCNCNCNvMs2_NtNtCshN9TtrzEz6i_22dual_core_pdf_pipeline3app3guiNtBd_5MyApp11draw_toastss_0000Bh_
FN:4503,_RNCNCNCNCNvMs2_NtNtCshN9TtrzEz6i_22dual_core_pdf_pipeline3app3guiNtBd_5MyApp17draw_empty_canvas0000Bh_
FN:4268,_RNCNCNCNCNvMs2_NtNtCshN9TtrzEz6i_22dual_core_pdf_pipeline3app3guiNtBd_5MyApp18draw_central_panel0s_0s5_00Bh_
FN:4361,_RNCNCNCNvMs2_NtNtCshN9TtrzEz6i_22dual_core_pdf_pipeline3app3guiNtBb_5MyApp18draw_central_panel0s0_00Bf_
FN:4226,_RNCNCNCNvMs2_NtNtCshN9TtrzEz6i_22dual_core_pdf_pipeline3app3guiNtBb_5MyApp18draw_central_panel0s_0s0_0Bf_
FN:4256,_RNCNCNCNvMs2_NtNtCshN9TtrzEz6i_22dual_core_pdf_pipeline3app3guiNtBb_5MyApp18draw_central_panel0s_0s1_0Bf_
FN:4257,_RNCNCNCNvMs2_NtNtCshN9TtrzEz6i_22dual_core_pdf_pipeline3app3guiNtBb_5MyApp18draw_central_panel0s_0s2_0Bf_
FN:4260,_RNCNCNCNvMs2_NtNtCshN9TtrzEz6i_22dual_core_pdf_pipeline3app3guiNtBb_5MyApp18draw_central_panel0s_0s3_0Bf_
FN:4261,_RNCNCNCNvMs2_NtNtCshN9TtrzEz6i_22dual_core_pdf_pipeline3app3guiNtBb_5MyApp18draw_central_panel0s_0s4_0Bf_
FN:2493,_RNCNCNCNvMs2_NtNtCshN9TtrzEz6i_22dual_core_pdf_pipeline3app3guiNtBb_5MyApp22draw_transfer_workflow000Bf_
FN:2526,_RNCNCNCNvMs2_NtNtCshN9TtrzEz6i_22dual_core_pdf_pipeline3app3guiNtBb_5MyApp22draw_transfer_workflow00s_0Bf_
FN:2692,_RNCNCNCNvMs2_NtNtCshN9TtrzEz6i_22dual_core_pdf_pipeline3app3guiNtBb_5MyApp27draw_agent_command_workflow0s0_00Bf_
FN:2672,_RNCNCNCNvMs2_NtNtCshN9TtrzEz6i_22dual_core_pdf_pipeline3app3guiNtBb_5MyApp27draw_agent_command_workflow0s_00Bf_
FN:1005,_RNCNCNvMs1_NtNtCshN9TtrzEz6i_22dual_core_pdf_pipeline3app3guiNtB9_5MyApp15headless_update00Bd_
FN:4045,_RNCNCNvMs2_NtNtCshN9TtrzEz6i_22dual_core_pdf_pipeline3app3guiNtB9_5MyApp18draw_central_panel0s_0Bd_
FN:2668,_RNCNCNvMs2_NtNtCshN9TtrzEz6i_22dual_core_pdf_pipeline3app3guiNtB9_5MyApp27draw_agent_command_workflow0s_0Bd_
FN:2348,_RNCNCNvMs2_NtNtCshN9TtrzEz6i_22dual_core_pdf_pipeline3app3guiNtB9_5MyApp28draw_edit_statement_workflows_00Bd_
FN:4347,_RNCNCNvMs2_NtNtCshN9TtrzEz6i_22dual_core_pdf_pipeline3app3guiNtB9_5MyApp18draw_central_panel0s0_0Bd_
FN:990,_RNCNvMs1_NtNtCshN9TtrzEz6i_22dual_core_pdf_pipeline3app3guiNtB7_5MyApp15headless_update0Bb_
FN:4688,_RNCNvMs2_NtNtCshN9TtrzEz6i_22dual_core_pdf_pipeline3app3guiNtB7_5MyApp11draw_toastss_0Bb_
FN:2282,_RNCNCNCNCNCNvMs2_NtNtCshN9TtrzEz6i_22dual_core_pdf_pipeline3app3guiNtBf_5MyApp28draw_edit_statement_workflow00s_000Bj_
FN:2281,_RNCNCNCNCNvMs2_NtNtCshN9TtrzEz6i_22dual_core_pdf_pipeline3app3guiNtBd_5MyApp28draw_edit_statement_workflow00s_00Bh_
FN:2727,_RNCNCNCNvMs2_NtNtCshN9TtrzEz6i_22dual_core_pdf_pipeline3app3guiNtBb_5MyApp22draw_settings_workflow000Bf_
FN:2620,_RNCNCNCNvMs2_NtNtCshN9TtrzEz6i_22dual_core_pdf_pipeline3app3guiNtBb_5MyApp22draw_transfer_workflow0s0_00Bf_
FN:3686,_RNCNCNvMs2_NtNtCshN9TtrzEz6i_22dual_core_pdf_pipeline3app3guiNtB9_5MyApp21draw_workflow_section0s2_0Bd_
FN:2753,_RNCNCNvMs2_NtNtCshN9TtrzEz6i_22dual_core_pdf_pipeline3app3guiNtB9_5MyApp22draw_api_keys_workflow00Bd_
FN:2726,_RNCNCNvMs2_NtNtCshN9TtrzEz6i_22dual_core_pdf_pipeline3app3guiNtB9_5MyApp22draw_settings_workflow00Bd_
FN:2619,_RNCNCNvMs2_NtNtCshN9TtrzEz6i_22dual_core_pdf_pipeline3app3guiNtB9_5MyApp22draw_transfer_workflow0s0_0Bd_
FN:3445,_RNCNCNvMs2_NtNtCshN9TtrzEz6i_22dual_core_pdf_pipeline3app3guiNtB9_5MyApp26draw_font_analysis_sections_0s_0Bd_
FN:2691,_RNCNCNvMs2_NtNtCshN9TtrzEz6i_22dual_core_pdf_pipeline3app3guiNtB9_5MyApp27draw_agent_command_workflow0s0_0Bd_
FN:3004,_RNCNvMs2_NtNtCshN9TtrzEz6i_22dual_core_pdf_pipeline3app3guiNtB7_5MyApp24draw_workflow_edit_tables_0Bb_
FN:1163,_RNCNCNvMs1_NtNtCshN9TtrzEz6i_22dual_core_pdf_pipeline3app3guiNtB9_5MyApp15headless_updates7_00Bd_
FN:1164,_RNCNCNvMs1_NtNtCshN9TtrzEz6i_22dual_core_pdf_pipeline3app3guiNtB9_5MyApp15headless_updates7_0s_0Bd_
FN:1161,_RNCNvMs1_NtNtCshN9TtrzEz6i_22dual_core_pdf_pipeline3app3guiNtB7_5MyApp15headless_updates7_0Bb_
FN:1495,_RNCNvMs2_NtNtCshN9TtrzEz6i_22dual_core_pdf_pipeline3app3guiNtB7_5MyApp17handle_job_results_0Bb_
FN:4397,_RNCNCNCNCNCNCNvMs2_NtNtCshN9TtrzEz6i_22dual_core_pdf_pipeline3app3guiNtBh_5MyApp18draw_central_panel0s0_0000s_0Bl_
FN:4271,_RNCNCNCNCNCNCNvMs2_NtNtCshN9TtrzEz6i_22dual_core_pdf_pipeline3app3guiNtBh_5MyApp18draw_central_panel0s_0s5_0000Bl_
FN:4365,_RNCNCNCNCNCNvMs2_NtNtCshN9TtrzEz6i_22dual_core_pdf_pipeline3app3guiNtBf_5MyApp18draw_central_panel0s0_0000Bj_
FN:4428,_RNCNCNCNCNCNvMs2_NtNtCshN9TtrzEz6i_22dual_core_pdf_pipeline3app3guiNtBf_5MyApp18draw_central_panel0s0_000s_0Bj_
FN:4362,_RNCNCNCNCNvMs2_NtNtCshN9TtrzEz6i_22dual_core_pdf_pipeline3app3guiNtBd_5MyApp18draw_central_panel0s0_000Bh_
FN:2494,_RNCNCNCNCNvMs2_NtNtCshN9TtrzEz6i_22dual_core_pdf_pipeline3app3guiNtBd_5MyApp22draw_transfer_workflow0000Bh_
FN:2527,_RNCNCNCNCNvMs2_NtNtCshN9TtrzEz6i_22dual_core_pdf_pipeline3app3guiNtBd_5MyApp22draw_transfer_workflow00s_00Bh_
FN:2218,_RNCNCNCNCNvMs2_NtNtCshN9TtrzEz6i_22dual_core_pdf_pipeline3app3guiNtBd_5MyApp28draw_edit_statement_workflow0000Bh_
FN:1006,_RNCNCNCNvMs1_NtNtCshN9TtrzEz6i_22dual_core_pdf_pipeline3app3guiNtBb_5MyApp15headless_update000Bf_
FN:4727,_RNCNCNCNvMs2_NtNtCshN9TtrzEz6i_22dual_core_pdf_pipeline3app3guiNtBb_5MyApp11draw_toastss_000Bf_
FN:2819,_RNCNCNCNvMs2_NtNtCshN9TtrzEz6i_22dual_core_pdf_pipeline3app3guiNtBb_5MyApp15draw_status_bar0s_00Bf_
FN:4491,_RNCNCNCNvMs2_NtNtCshN9TtrzEz6i_22dual_core_pdf_pipeline3app3guiNtBb_5MyApp17draw_empty_canvas000Bf_
FN:4632,_RNCNCNCNvMs2_NtNtCshN9TtrzEz6i_22dual_core_pdf_pipeline3app3guiNtBb_5MyApp17draw_empty_canvass_000Bf_
FN:3030,_RNCNCNCNvMs2_NtNtCshN9TtrzEz6i_22dual_core_pdf_pipeline3app3guiNtBb_5MyApp24draw_workflow_edit_tables_0s_00Bf_
FN:3477,_RNCNCNCNvMs2_NtNtCshN9TtrzEz6i_22dual_core_pdf_pipeline3app3guiNtBb_5MyApp26draw_font_analysis_sections_0s_0s_0Bf_
FN:2210,_RNCNCNCNvMs2_NtNtCshN9TtrzEz6i_22dual_core_pdf_pipeline3app3guiNtBb_5MyApp28draw_edit_statement_workflow000Bf_
FN:2314,_RNCNCNCNvMs2_NtNtCshN9TtrzEz6i_22dual_core_pdf_pipeline3app3guiNtBb_5MyApp28draw_edit_statement_workflow00s0_0Bf_
FN:2272,_RNCNCNCNvMs2_NtNtCshN9TtrzEz6i_22dual_core_pdf_pipeline3app3guiNtBb_5MyApp28draw_edit_statement_workflow00s_0Bf_
FN:4689,_RNCNCNvMs2_NtNtCshN9TtrzEz6i_22dual_core_pdf_pipeline3app3guiNtB9_5MyApp11draw_toastss_00Bd_
FN:2146,_RNCNCNvMs2_NtNtCshN9TtrzEz6i_22dual_core_pdf_pipeline3app3guiNtB9_5MyApp12draw_sidebar0s0_0Bd_
FN:4490,_RNCNCNvMs2_NtNtCshN9TtrzEz6i_22dual_core_pdf_pipeline3app3guiNtB9_5MyApp17draw_empty_canvas00Bd_
FN:4573,_RNCNCNvMs2_NtNtCshN9TtrzEz6i_22dual_core_pdf_pipeline3app3guiNtB9_5MyApp17draw_empty_canvass_00Bd_
FN:3536,_RNCNCNvMs2_NtNtCshN9TtrzEz6i_22dual_core_pdf_pipeline3app3guiNtB9_5MyApp21draw_workflow_section00Bd_
FN:3630,_RNCNCNvMs2_NtNtCshN9TtrzEz6i_22dual_core_pdf_pipeline3app3guiNtB9_5MyApp21draw_workflow_section0s0_0Bd_
FN:3722,_RNCNCNvMs2_NtNtCshN9TtrzEz6i_22dual_core_pdf_pipeline3app3guiNtB9_5MyApp21draw_workflow_section0s3_0Bd_
FN:3806,_RNCNCNvMs2_NtNtCshN9TtrzEz6i_22dual_core_pdf_pipeline3app3guiNtB9_5MyApp21draw_workflow_section0s4_0Bd_
FN:3566,_RNCNCNvMs2_NtNtCshN9TtrzEz6i_22dual_core_pdf_pipeline3app3guiNtB9_5MyApp21draw_workflow_section0s_0Bd_
FN:2562,_RNCNCNvMs2_NtNtCshN9TtrzEz6i_22dual_core_pdf_pipeline3app3guiNtB9_5MyApp22draw_transfer_workflow0s_0Bd_
FN:4009,_RNCNCNvMs2_NtNtCshN9TtrzEz6i_22dual_core_pdf_pipeline3app3guiNtB9_5MyApp24draw_audit_explorer_view00Bd_
FN:3019,_RNCNCNvMs2_NtNtCshN9TtrzEz6i_22dual_core_pdf_pipeline3app3guiNtB9_5MyApp24draw_workflow_edit_tables_00Bd_
FN:3024,_RNCNCNvMs2_NtNtCshN9TtrzEz6i_22dual_core_pdf_pipeline3app3guiNtB9_5MyApp24draw_workflow_edit_tables_0s_0Bd_
FN:3405,_RNCNCNvMs2_NtNtCshN9TtrzEz6i_22dual_core_pdf_pipeline3app3guiNtB9_5MyApp26draw_font_analysis_sections_00Bd_
FN:2475,_RNCNCNvMs2_NtNtCshN9TtrzEz6i_22dual_core_pdf_pipeline3app3guiNtB9_5MyApp28draw_edit_statement_workflows_0s1_0Bd_
FN:2416,_RNCNCNvMs2_NtNtCshN9TtrzEz6i_22dual_core_pdf_pipeline3app3guiNtB9_5MyApp28draw_edit_statement_workflows_0s_0Bd_
FN:4489,_RNCNvMs2_NtNtCshN9TtrzEz6i_22dual_core_pdf_pipeline3app3guiNtB7_5MyApp17draw_empty_canvas0Bb_
FN:4571,_RNCNvMs2_NtNtCshN9TtrzEz6i_22dual_core_pdf_pipeline3app3guiNtB7_5MyApp17draw_empty_canvass_0Bb_
FN:3527,_RNCNvMs2_NtNtCshN9TtrzEz6i_22dual_core_pdf_pipeline3app3guiNtB7_5MyApp21draw_workflow_section0Bb_
FN:3368,_RNCNvMs2_NtNtCshN9TtrzEz6i_22dual_core_pdf_pipeline3app3guiNtB7_5MyApp26draw_font_analysis_section0Bb_
FN:3395,_RNCNvMs2_NtNtCshN9TtrzEz6i_22dual_core_pdf_pipeline3app3guiNtB7_5MyApp26draw_font_analysis_sections_0Bb_
FN:4052,_RNCNCNCNvMs2_NtNtCshN9TtrzEz6i_22dual_core_pdf_pipeline3app3guiNtBb_5MyApp18draw_central_panel0s_00Bf_
FN:3724,_RNCNCNCNvMs2_NtNtCshN9TtrzEz6i_22dual_core_pdf_pipeline3app3guiNtBb_5MyApp21draw_workflow_section0s3_00Bf_
FN:3745,_RNCNCNCNvMs2_NtNtCshN9TtrzEz6i_22dual_core_pdf_pipeline3app3guiNtBb_5MyApp21draw_workflow_section0s3_0s0_0Bf_
FN:3757,_RNCNCNCNvMs2_NtNtCshN9TtrzEz6i_22dual_core_pdf_pipeline3app3guiNtBb_5MyApp21draw_workflow_section0s3_0s1_0Bf_
FN:3736,_RNCNCNCNvMs2_NtNtCshN9TtrzEz6i_22dual_core_pdf_pipeline3app3guiNtBb_5MyApp21draw_workflow_section0s3_0s_0Bf_
FN:2568,_RNCNCNCNvMs2_NtNtCshN9TtrzEz6i_22dual_core_pdf_pipeline3app3guiNtBb_5MyApp22draw_transfer_workflow0s_00Bf_
FN:2588,_RNCNCNCNvMs2_NtNtCshN9TtrzEz6i_22dual_core_pdf_pipeline3app3guiNtBb_5MyApp22draw_transfer_workflow0s_0s_0Bf_
FN:2654,_RNCNCNCNvMs2_NtNtCshN9TtrzEz6i_22dual_core_pdf_pipeline3app3guiNtBb_5MyApp27draw_agent_command_workflow000Bf_
FN:1251,_RNCNCNvMs1_NtNtCshN9TtrzEz6i_22dual_core_pdf_pipeline3app3guiNtB9_5MyApp15headless_updates9_0s0_0Bd_
FN:1261,_RNCNCNvMs1_NtNtCshN9TtrzEz6i_22dual_core_pdf_pipeline3app3guiNtB9_5MyApp15headless_updates9_0s1_0Bd_
FN:1262,_RNCNCNvMs1_NtNtCshN9TtrzEz6i_22dual_core_pdf_pipeline3app3guiNtB9_5MyApp15headless_updates9_0s2_0Bd_
FN:1250,_RNCNCNvMs1_NtNtCshN9TtrzEz6i_22dual_core_pdf_pipeline3app3guiNtB9_5MyApp15headless_updates9_0s_0Bd_
FN:1051,_RNCNvMs1_NtNtCshN9TtrzEz6i_22dual_core_pdf_pipeline3app3guiNtB7_5MyApp15headless_updates0_0Bb_
FN:1053,_RNCNvMs1_NtNtCshN9TtrzEz6i_22dual_core_pdf_pipeline3app3guiNtB7_5MyApp15headless_updates1_0Bb_
FN:1128,_RNCNvMs1_NtNtCshN9TtrzEz6i_22dual_core_pdf_pipeline3app3guiNtB7_5MyApp15headless_updates4_0Bb_
FN:1151,_RNCNvMs1_NtNtCshN9TtrzEz6i_22dual_core_pdf_pipeline3app3guiNtB7_5MyApp15headless_updates5_0Bb_
FN:1152,_RNCNvMs1_NtNtCshN9TtrzEz6i_22dual_core_pdf_pipeline3app3guiNtB7_5MyApp15headless_updates6_0Bb_
FN:1182,_RNCNvMs1_NtNtCshN9TtrzEz6i_22dual_core_pdf_pipeline3app3guiNtB7_5MyApp15headless_updates8_0Bb_
FN:1237,_RNCNvMs1_NtNtCshN9TtrzEz6i_22dual_core_pdf_pipeline3app3guiNtB7_5MyApp15headless_updates9_0Bb_
FN:1049,_RNCNvMs1_NtNtCshN9TtrzEz6i_22dual_core_pdf_pipeline3app3guiNtB7_5MyApp15headless_updates_0Bb_
FN:4780,_RNCNvMs2_NtNtCshN9TtrzEz6i_22dual_core_pdf_pipeline3app3guiNtB7_5MyApp16handle_shortcuts0Bb_
FN:4782,_RNCNvMs2_NtNtCshN9TtrzEz6i_22dual_core_pdf_pipeline3app3guiNtB7_5MyApp16handle_shortcutss0_0Bb_
FN:4783,_RNCNvMs2_NtNtCshN9TtrzEz6i_22dual_core_pdf_pipeline3app3guiNtB7_5MyApp16handle_shortcutss1_0Bb_
FN:4785,_RNCNvMs2_NtNtCshN9TtrzEz6i_22dual_core_pdf_pipeline3app3guiNtB7_5MyApp16handle_shortcutss2_0Bb_
FN:4787,_RNCNvMs2_NtNtCshN9TtrzEz6i_22dual_core_pdf_pipeline3app3guiNtB7_5MyApp16handle_shortcutss3_0Bb_
FN:4789,_RNCNvMs2_NtNtCshN9TtrzEz6i_22dual_core_pdf_pipeline3app3guiNtB7_5MyApp16handle_shortcutss4_0Bb_
FN:4790,_RNCNvMs2_NtNtCshN9TtrzEz6i_22dual_core_pdf_pipeline3app3guiNtB7_5MyApp16handle_shortcutss5_0Bb_
FN:4791,_RNCNvMs2_NtNtCshN9TtrzEz6i_22dual_core_pdf_pipeline3app3guiNtB7_5MyApp16handle_shortcutss6_0Bb_
FN:4792,_RNCNvMs2_NtNtCshN9TtrzEz6i_22dual_core_pdf_pipeline3app3guiNtB7_5MyApp16handle_shortcutss7_0Bb_
FN:4781,_RNCNvMs2_NtNtCshN9TtrzEz6i_22dual_core_pdf_pipeline3app3guiNtB7_5MyApp16handle_shortcutss_0Bb_
FN:3516,_RNCNCNCNCNvMs2_NtNtCshN9TtrzEz6i_22dual_core_pdf_pipeline3app3guiNtBd_5MyApp26draw_font_analysis_sections_0s_0s_00Bh_
FN:2443,_RNCNCNvMs2_NtNtCshN9TtrzEz6i_22dual_core_pdf_pipeline3app3guiNtB9_5MyApp28draw_edit_statement_workflows_0s0_0Bd_
FN:5066,_RNCNvNtNtCshN9TtrzEz6i_22dual_core_pdf_pipeline3app3gui15upsert_env_file0B7_
FN:4264,_RNCNCNCNvMs2_NtNtCshN9TtrzEz6i_22dual_core_pdf_pipeline3app3guiNtBb_5MyApp18draw_central_panel0s_0s5_0Bf_
FN:3474,_RNCNCNCNvMs2_NtNtCshN9TtrzEz6i_22dual_core_pdf_pipeline3app3guiNtBb_5MyApp26draw_font_analysis_sections_0s_00Bf_
FN:2731,_RNCNCNCNCNvMs2_NtNtCshN9TtrzEz6i_22dual_core_pdf_pipeline3app3guiNtBd_5MyApp22draw_settings_workflow0000Bh_
FN:3570,_RNCNCNCNvMs2_NtNtCshN9TtrzEz6i_22dual_core_pdf_pipeline3app3guiNtBb_5MyApp21draw_workflow_section0s_00Bf_
FN:2092,_RNCNCNvMs2_NtNtCshN9TtrzEz6i_22dual_core_pdf_pipeline3app3guiNtB9_5MyApp12draw_sidebar0s_0Bd_
FN:2034,_RNCNCNvMs2_NtNtCshN9TtrzEz6i_22dual_core_pdf_pipeline3app3guiNtB9_5MyApp12draw_sidebar00Bd_
FN:2785,_RNCNCNvMs2_NtNtCshN9TtrzEz6i_22dual_core_pdf_pipeline3app3guiNtB9_5MyApp15draw_status_bar00Bd_
FN:2795,_RNCNCNvMs2_NtNtCshN9TtrzEz6i_22dual_core_pdf_pipeline3app3guiNtB9_5MyApp15draw_status_bar0s_0Bd_
FN:4021,_RNCNCNvMs2_NtNtCshN9TtrzEz6i_22dual_core_pdf_pipeline3app3guiNtB9_5MyApp18draw_central_panel00Bd_
FN:2491,_RNCNCNvMs2_NtNtCshN9TtrzEz6i_22dual_core_pdf_pipeline3app3guiNtB9_5MyApp22draw_transfer_workflow00Bd_
FN:2646,_RNCNCNvMs2_NtNtCshN9TtrzEz6i_22dual_core_pdf_pipeline3app3guiNtB9_5MyApp27draw_agent_command_workflow00Bd_
FN:2183,_RNCNCNvMs2_NtNtCshN9TtrzEz6i_22dual_core_pdf_pipeline3app3guiNtB9_5MyApp28draw_edit_statement_workflow00Bd_
FN:2030,_RNCNvMs2_NtNtCshN9TtrzEz6i_22dual_core_pdf_pipeline3app3guiNtB7_5MyApp12draw_sidebar0Bb_
FN:2760,_RNCNvMs2_NtNtCshN9TtrzEz6i_22dual_core_pdf_pipeline3app3guiNtB7_5MyApp15draw_status_bar0Bb_
FN:4019,_RNCNvMs2_NtNtCshN9TtrzEz6i_22dual_core_pdf_pipeline3app3guiNtB7_5MyApp18draw_central_panel0Bb_
FN:2746,_RNCNvMs2_NtNtCshN9TtrzEz6i_22dual_core_pdf_pipeline3app3guiNtB7_5MyApp22draw_api_keys_workflow0Bb_
FN:2719,_RNCNvMs2_NtNtCshN9TtrzEz6i_22dual_core_pdf_pipeline3app3guiNtB7_5MyApp22draw_settings_workflow0Bb_
FN:2487,_RNCNvMs2_NtNtCshN9TtrzEz6i_22dual_core_pdf_pipeline3app3guiNtB7_5MyApp22draw_transfer_workflow0Bb_
FN:4007,_RNCNvMs2_NtNtCshN9TtrzEz6i_22dual_core_pdf_pipeline3app3guiNtB7_5MyApp24draw_audit_explorer_view0Bb_
FN:2640,_RNCNvMs2_NtNtCshN9TtrzEz6i_22dual_core_pdf_pipeline3app3guiNtB7_5MyApp27draw_agent_command_workflow0Bb_
FN:2706,_RNCNvMs2_NtNtCshN9TtrzEz6i_22dual_core_pdf_pipeline3app3guiNtB7_5MyApp27draw_chaos_sandbox_workflow0Bb_
FN:2182,_RNCNvMs2_NtNtCshN9TtrzEz6i_22dual_core_pdf_pipeline3app3guiNtB7_5MyApp28draw_edit_statement_workflow0Bb_
FN:2340,_RNCNvMs2_NtNtCshN9TtrzEz6i_22dual_core_pdf_pipeline3app3guiNtB7_5MyApp28draw_edit_statement_workflows_0Bb_
FN:3185,_RINvMs2_NtNtCshN9TtrzEz6i_22dual_core_pdf_pipeline3app3guiNtB6_5MyApp11cell_bufferNCNCNCNCNCNvB2_24draw_workflow_edit_tables_0s_0s_0s0_00EBa_
FN:3185,_RINvMs2_NtNtCshN9TtrzEz6i_22dual_core_pdf_pipeline3app3guiNtB6_5MyApp11cell_bufferNCNCNCNCNCNvB2_24draw_workflow_edit_tables_0s_0s_0s1_00EBa_
FN:3185,_RINvMs2_NtNtCshN9TtrzEz6i_22dual_core_pdf_pipeline3app3guiNtB6_5MyApp11cell_bufferNCNCNvB2_10money_cell00EBa_
FN:743,_RINvMs_NtNtCshN9TtrzEz6i_22dual_core_pdf_pipeline3app3guiNtB5_5MyApp17toast_with_actionNtNtCsiTraAjBDcu4_5alloc6string6StringReB1Z_EB9_
FN:698,_RINvMs_NtNtCshN9TtrzEz6i_22dual_core_pdf_pipeline3app3guiNtB5_5MyApp5toastNtNtCsiTraAjBDcu4_5alloc6string6StringEB9_
FN:698,_RINvMs_NtNtCshN9TtrzEz6i_22dual_core_pdf_pipeline3app3guiNtB5_5MyApp5toastRNtNtCsiTraAjBDcu4_5alloc6string6StringEB9_
FN:698,_RINvMs_NtNtCshN9TtrzEz6i_22dual_core_pdf_pipeline3app3guiNtB5_5MyApp5toastReEB9_
FN:3196,_RNCINvMs2_NtNtCshN9TtrzEz6i_22dual_core_pdf_pipeline3app3guiNtB8_5MyApp11cell_bufferNCNCNCNCNCNvB4_24draw_workflow_edit_tables_0s_0s_0s0_00E0Bc_
FN:3196,_RNCINvMs2_NtNtCshN9TtrzEz6i_22dual_core_pdf_pipeline3app3guiNtB8_5MyApp11cell_bufferNCNCNCNCNCNvB4_24draw_workflow_edit_tables_0s_0s_0s1_00E0Bc_
FN:3196,_RNCINvMs2_NtNtCshN9TtrzEz6i_22dual_core_pdf_pipeline3app3guiNtB8_5MyApp11cell_bufferNCNCNvB4_10money_cell00E0Bc_
FN:3199,_RNCNCINvMs2_NtNtCshN9TtrzEz6i_22dual_core_pdf_pipeline3app3guiNtBa_5MyApp11cell_bufferNCNCNCNCNCNvB6_24draw_workflow_edit_tables_0s_0s_0s0_00E00Be_
FN:3202,_RNCNCINvMs2_NtNtCshN9TtrzEz6i_22dual_core_pdf_pipeline3app3guiNtBa_5MyApp11cell_bufferNCNCNCNCNCNvB6_24draw_workflow_edit_tables_0s_0s_0s0_00E0s_0Be_
FN:3199,_RNCNCINvMs2_NtNtCshN9TtrzEz6i_22dual_core_pdf_pipeline3app3guiNtBa_5MyApp11cell_bufferNCNCNCNCNCNvB6_24draw_workflow_edit_tables_0s_0s_0s1_00E00Be_
FN:3202,_RNCNCINvMs2_NtNtCshN9TtrzEz6i_22dual_core_pdf_pipeline3app3guiNtBa_5MyApp11cell_bufferNCNCNCNCNCNvB6_24draw_workflow_edit_tables_0s_0s_0s1_00E0s_0Be_
FN:3199,_RNCNCINvMs2_NtNtCshN9TtrzEz6i_22dual_core_pdf_pipeline3app3guiNtBa_5MyApp11cell_bufferNCNCNvB6_10money_cell00E00Be_
FN:3202,_RNCNCINvMs2_NtNtCshN9TtrzEz6i_22dual_core_pdf_pipeline3app3guiNtBa_5MyApp11cell_bufferNCNCNvB6_10money_cell00E0s_0Be_
FN:3047,_RNCNCNCNCNCNvMs2_NtNtCshN9TtrzEz6i_22dual_core_pdf_pipeline3app3guiNtBf_5MyApp24draw_workflow_edit_tables_0s_0s_0s0_00Bj_
FN:3071,_RNCNCNCNCNCNvMs2_NtNtCshN9TtrzEz6i_22dual_core_pdf_pipeline3app3guiNtBf_5MyApp24draw_workflow_edit_tables_0s_0s_0s1_00Bj_
FN:3232,_RNCNCNCNvMs2_NtNtCshN9TtrzEz6i_22dual_core_pdf_pipeline3app3guiNtBb_5MyApp10money_cell000Bf_
FN:4223,_RNCNCNCNvMs2_NtNtCshN9TtrzEz6i_22dual_core_pdf_pipeline3app3guiNtBb_5MyApp18draw_central_panel0s_0s_0Bf_
FN:1156,_RNCNCNvMs1_NtNtCshN9TtrzEz6i_22dual_core_pdf_pipeline3app3guiNtB9_5MyApp15headless_updates6_00Bd_
FN:1246,_RNCNCNvMs1_NtNtCshN9TtrzEz6i_22dual_core_pdf_pipeline3app3guiNtB9_5MyApp15headless_updates9_00Bd_
FN:3231,_RNCNCNvMs2_NtNtCshN9TtrzEz6i_22dual_core_pdf_pipeline3app3guiNtB9_5MyApp10money_cell00Bd_
FN:950,_RNCNCNvMs_NtNtCshN9TtrzEz6i_22dual_core_pdf_pipeline3app3guiNtB8_5MyApp20balance_trend_points00Bc_
FN:945,_RNCNvMs_NtNtCshN9TtrzEz6i_22dual_core_pdf_pipeline3app3guiNtB6_5MyApp20balance_trend_points0Ba_
FN:5091,_RNCNvNtNtCshN9TtrzEz6i_22dual_core_pdf_pipeline3app3gui15upsert_env_files_0B7_
FN:3237,_RNCNCNvMs2_NtNtCshN9TtrzEz6i_22dual_core_pdf_pipeline3app3guiNtB9_5MyApp10money_cell0s_0Bd_
FN:3327,_RNCNvMs2_NtNtCshN9TtrzEz6i_22dual_core_pdf_pipeline3app3guiNtB7_5MyApp16revert_row_editss_0Bb_
FN:3033,_RNCNCNCNCNvMs2_NtNtCshN9TtrzEz6i_22dual_core_pdf_pipeline3app3guiNtBd_5MyApp24draw_workflow_edit_tables_0s_0s_00Bh_
FN:3041,_RNCNCNCNCNvMs2_NtNtCshN9TtrzEz6i_22dual_core_pdf_pipeline3app3guiNtBd_5MyApp24draw_workflow_edit_tables_0s_0s_0s0_0Bh_
FN:3065,_RNCNCNCNCNvMs2_NtNtCshN9TtrzEz6i_22dual_core_pdf_pipeline3app3guiNtBd_5MyApp24draw_workflow_edit_tables_0s_0s_0s1_0Bh_
FN:3089,_RNCNCNCNCNvMs2_NtNtCshN9TtrzEz6i_22dual_core_pdf_pipeline3app3guiNtBd_5MyApp24draw_workflow_edit_tables_0s_0s_0s2_0Bh_
FN:3127,_RNCNCNCNCNvMs2_NtNtCshN9TtrzEz6i_22dual_core_pdf_pipeline3app3guiNtBd_5MyApp24draw_workflow_edit_tables_0s_0s_0s3_0Bh_
FN:3036,_RNCNCNCNCNvMs2_NtNtCshN9TtrzEz6i_22dual_core_pdf_pipeline3app3guiNtBd_5MyApp24draw_workflow_edit_tables_0s_0s_0s_0Bh_
FN:3021,_RNCNCNCNvMs2_NtNtCshN9TtrzEz6i_22dual_core_pdf_pipeline3app3guiNtBb_5MyApp24draw_workflow_edit_tables_000Bf_
FN:3247,_RNCNCNvMs2_NtNtCshN9TtrzEz6i_22dual_core_pdf_pipeline3app3guiNtB9_5MyApp10money_cell0s0_0Bd_
FN:3230,_RNCNvMs2_NtNtCshN9TtrzEz6i_22dual_core_pdf_pipeline3app3guiNtB7_5MyApp10money_cell0Bb_
FN:3185,_RINvMs2_NtNtCsdGsEM3RpwG4_22dual_core_pdf_pipeline3app3guiNtB6_5MyApp11cell_bufferpEBa_
FN:743,_RINvMs_NtNtCsdGsEM3RpwG4_22dual_core_pdf_pipeline3app3guiNtB5_5MyApp17toast_with_actionpppEB9_
FN:698,_RINvMs_NtNtCsdGsEM3RpwG4_22dual_core_pdf_pipeline3app3guiNtB5_5MyApp5toastpEB9_
FN:3196,_RNCINvMs2_NtNtCsdGsEM3RpwG4_22dual_core_pdf_pipeline3app3guiNtB8_5MyApp11cell_bufferpE0Bc_
FN:3199,_RNCNCINvMs2_NtNtCsdGsEM3RpwG4_22dual_core_pdf_pipeline3app3guiNtBa_5MyApp11cell_bufferpE00Be_
FN:3202,_RNCNCINvMs2_NtNtCsdGsEM3RpwG4_22dual_core_pdf_pipeline3app3guiNtBa_5MyApp11cell_bufferpE0s_0Be_
FN:4397,_RNCNCNCNCNCNCNvMs2_NtNtCsdGsEM3RpwG4_22dual_core_pdf_pipeline3app3guiNtBh_5MyApp18draw_central_panel0s0_0000s_0Bl_
FN:4271,_RNCNCNCNCNCNCNvMs2_NtNtCsdGsEM3RpwG4_22dual_core_pdf_pipeline3app3guiNtBh_5MyApp18draw_central_panel0s_0s5_0000Bl_
FN:4746,_RNCNCNCNCNCNvMs2_NtNtCsdGsEM3RpwG4_22dual_core_pdf_pipeline3app3guiNtBf_5MyApp11draw_toastss_00000Bj_
FN:4365,_RNCNCNCNCNCNvMs2_NtNtCsdGsEM3RpwG4_22dual_core_pdf_pipeline3app3guiNtBf_5MyApp18draw_central_panel0s0_0000Bj_
FN:4428,_RNCNCNCNCNCNvMs2_NtNtCsdGsEM3RpwG4_22dual_core_pdf_pipeline3app3guiNtBf_5MyApp18draw_central_panel0s0_000s_0Bj_
FN:4269,_RNCNCNCNCNCNvMs2_NtNtCsdGsEM3RpwG4_22dual_core_pdf_pipeline3app3guiNtBf_5MyApp18draw_central_panel0s_0s5_000Bj_
FN:4278,_RNCNCNCNCNCNvMs2_NtNtCsdGsEM3RpwG4_22dual_core_pdf_pipeline3app3guiNtBf_5MyApp18draw_central_panel0s_0s5_00s_0Bj_
FN:3047,_RNCNCNCNCNCNvMs2_NtNtCsdGsEM3RpwG4_22dual_core_pdf_pipeline3app3guiNtBf_5MyApp24draw_workflow_edit_tables_0s_0s_0s0_00Bj_
FN:3071,_RNCNCNCNCNCNvMs2_NtNtCsdGsEM3RpwG4_22dual_core_pdf_pipeline3app3guiNtBf_5MyApp24draw_workflow_edit_tables_0s_0s_0s1_00Bj_
FN:2282,_RNCNCNCNCNCNvMs2_NtNtCsdGsEM3RpwG4_22dual_core_pdf_pipeline3app3guiNtBf_5MyApp28draw_edit_statement_workflow00s_000Bj_
FN:4745,_RNCNCNCNCNvMs2_NtNtCsdGsEM3RpwG4_22dual_core_pdf_pipeline3app3guiNtBd_5MyApp11draw_toastss_0000Bh_
FN:4503,_RNCNCNCNCNvMs2_NtNtCsdGsEM3RpwG4_22dual_core_pdf_pipeline3app3guiNtBd_5MyApp17draw_empty_canvas0000Bh_
FN:4362,_RNCNCNCNCNvMs2_NtNtCsdGsEM3RpwG4_22dual_core_pdf_pipeline3app3guiNtBd_5MyApp18draw_central_panel0s0_000Bh_
FN:4268,_RNCNCNCNCNvMs2_NtNtCsdGsEM3RpwG4_22dual_core_pdf_pipeline3app3guiNtBd_5MyApp18draw_central_panel0s_0s5_00Bh_
FN:2731,_RNCNCNCNCNvMs2_NtNtCsdGsEM3RpwG4_22dual_core_pdf_pipeline3app3guiNtBd_5MyApp22draw_settings_workflow0000Bh_
FN:2494,_RNCNCNCNCNvMs2_NtNtCsdGsEM3RpwG4_22dual_core_pdf_pipeline3app3guiNtBd_5MyApp22draw_transfer_workflow0000Bh_
FN:2527,_RNCNCNCNCNvMs2_NtNtCsdGsEM3RpwG4_22dual_core_pdf_pipeline3app3guiNtBd_5MyApp22draw_transfer_workflow00s_00Bh_
FN:3033,_RNCNCNCNCNvMs2_NtNtCsdGsEM3RpwG4_22dual_core_pdf_pipeline3app3guiNtBd_5MyApp24draw_workflow_edit_tables_0s_0s_00Bh_
FN:3041,_RNCNCNCNCNvMs2_NtNtCsdGsEM3RpwG4_22dual_core_pdf_pipeline3app3guiNtBd_5MyApp24draw_workflow_edit_tables_0s_0s_0s0_0Bh_
FN:3065,_RNCNCNCNCNvMs2_NtNtCsdGsEM3RpwG4_22dual_core_pdf_pipeline3app3guiNtBd_5MyApp24draw_workflow_edit_tables_0s_0s_0s1_0Bh_
FN:3089,_RNCNCNCNCNvMs2_NtNtCsdGsEM3RpwG4_22dual_core_pdf_pipeline3app3guiNtBd_5MyApp24draw_workflow_edit_tables_0s_0s_0s2_0Bh_
FN:3127,_RNCNCNCNCNvMs2_NtNtCsdGsEM3RpwG4_22dual_core_pdf_pipeline3app3guiNtBd_5MyApp24draw_workflow_edit_tables_0s_0s_0s3_0Bh_
FN:3036,_RNCNCNCNCNvMs2_NtNtCsdGsEM3RpwG4_22dual_core_pdf_pipeline3app3guiNtBd_5MyApp24draw_workflow_edit_tables_0s_0s_0s_0Bh_
FN:3516,_RNCNCNCNCNvMs2_NtNtCsdGsEM3RpwG4_22dual_core_pdf_pipeline3app3guiNtBd_5MyApp26draw_font_analysis_sections_0s_0s_00Bh_
FN:2218,_RNCNCNCNCNvMs2_NtNtCsdGsEM3RpwG4_22dual_core_pdf_pipeline3app3guiNtBd_5MyApp28draw_edit_statement_workflow0000Bh_
FN:2281,_RNCNCNCNCNvMs2_NtNtCsdGsEM3RpwG4_22dual_core_pdf_pipeline3app3guiNtBd_5MyApp28draw_edit_statement_workflow00s_00Bh_
FN:1006,_RNCNCNCNvMs1_NtNtCsdGsEM3RpwG4_22dual_core_pdf_pipeline3app3guiNtBb_5MyApp15headless_update000Bf_
FN:3232,_RNCNCNCNvMs2_NtNtCsdGsEM3RpwG4_22dual_core_pdf_pipeline3app3guiNtBb_5MyApp10money_cell000Bf_
FN:4727,_RNCNCNCNvMs2_NtNtCsdGsEM3RpwG4_22dual_core_pdf_pipeline3app3guiNtBb_5MyApp11draw_toastss_000Bf_
FN:2819,_RNCNCNCNvMs2_NtNtCsdGsEM3RpwG4_22dual_core_pdf_pipeline3app3guiNtBb_5MyApp15draw_status_bar0s_00Bf_
FN:3925,_RNCNCNCNvMs2_NtNtCsdGsEM3RpwG4_22dual_core_pdf_pipeline3app3guiNtBb_5MyApp16draw_batch_panel000Bf_
FN:3927,_RNCNCNCNvMs2_NtNtCsdGsEM3RpwG4_22dual_core_pdf_pipeline3app3guiNtBb_5MyApp16draw_batch_panel00s0_0Bf_
FN:3927,_RNCNCNCNvMs2_NtNtCsdGsEM3RpwG4_22dual_core_pdf_pipeline3app3guiNtBb_5MyApp16draw_batch_panel00s_0Bf_
FN:4491,_RNCNCNCNvMs2_NtNtCsdGsEM3RpwG4_22dual_core_pdf_pipeline3app3guiNtBb_5MyApp17draw_empty_canvas000Bf_
FN:4632,_RNCNCNCNvMs2_NtNtCsdGsEM3RpwG4_22dual_core_pdf_pipeline3app3guiNtBb_5MyApp17draw_empty_canvass_000Bf_
FN:4361,_RNCNCNCNvMs2_NtNtCsdGsEM3RpwG4_22dual_core_pdf_pipeline3app3guiNtBb_5MyApp18draw_central_panel0s0_00Bf_
FN:4052,_RNCNCNCNvMs2_NtNtCsdGsEM3RpwG4_22dual_core_pdf_pipeline3app3guiNtBb_5MyApp18draw_central_panel0s_00Bf_
FN:4226,_RNCNCNCNvMs2_NtNtCsdGsEM3RpwG4_22dual_core_pdf_pipeline3app3guiNtBb_5MyApp18draw_central_panel0s_0s0_0Bf_
FN:4256,_RNCNCNCNvMs2_NtNtCsdGsEM3RpwG4_22dual_core_pdf_pipeline3app3guiNtBb_5MyApp18draw_central_panel0s_0s1_0Bf_
FN:4257,_RNCNCNCNvMs2_NtNtCsdGsEM3RpwG4_22dual_core_pdf_pipeline3app3guiNtBb_5MyApp18draw_central_panel0s_0s2_0Bf_
FN:4260,_RNCNCNCNvMs2_NtNtCsdGsEM3RpwG4_22dual_core_pdf_pipeline3app3guiNtBb_5MyApp18draw_central_panel0s_0s3_0Bf_
FN:4261,_RNCNCNCNvMs2_NtNtCsdGsEM3RpwG4_22dual_core_pdf_pipeline3app3guiNtBb_5MyApp18draw_central_panel0s_0s4_0Bf_
FN:4264,_RNCNCNCNvMs2_NtNtCsdGsEM3RpwG4_22dual_core_pdf_pipeline3app3guiNtBb_5MyApp18draw_central_panel0s_0s5_0Bf_
FN:4223,_RNCNCNCNvMs2_NtNtCsdGsEM3RpwG4_22dual_core_pdf_pipeline3app3guiNtBb_5MyApp18draw_central_panel0s_0s_0Bf_
FN:3724,_RNCNCNCNvMs2_NtNtCsdGsEM3RpwG4_22dual_core_pdf_pipeline3app3guiNtBb_5MyApp21draw_workflow_section0s3_00Bf_
FN:3745,_RNCNCNCNvMs2_NtNtCsdGsEM3RpwG4_22dual_core_pdf_pipeline3app3guiNtBb_5MyApp21draw_workflow_section0s3_0s0_0Bf_
FN:3757,_RNCNCNCNvMs2_NtNtCsdGsEM3RpwG4_22dual_core_pdf_pipeline3app3guiNtBb_5MyApp21draw_workflow_section0s3_0s1_0Bf_
FN:3736,_RNCNCNCNvMs2_NtNtCsdGsEM3RpwG4_22dual_core_pdf_pipeline3app3guiNtBb_5MyApp21draw_workflow_section0s3_0s_0Bf_
FN:3570,_RNCNCNCNvMs2_NtNtCsdGsEM3RpwG4_22dual_core_pdf_pipeline3app3guiNtBb_5MyApp21draw_workflow_section0s_00Bf_
FN:2727,_RNCNCNCNvMs2_NtNtCsdGsEM3RpwG4_22dual_core_pdf_pipeline3app3guiNtBb_5MyApp22draw_settings_workflow000Bf_
FN:2493,_RNCNCNCNvMs2_NtNtCsdGsEM3RpwG4_22dual_core_pdf_pipeline3app3guiNtBb_5MyApp22draw_transfer_workflow000Bf_
FN:2526,_RNCNCNCNvMs2_NtNtCsdGsEM3RpwG4_22dual_core_pdf_pipeline3app3guiNtBb_5MyApp22draw_transfer_workflow00s_0Bf_
FN:2620,_RNCNCNCNvMs2_NtNtCsdGsEM3RpwG4_22dual_core_pdf_pipeline3app3guiNtBb_5MyApp22draw_transfer_workflow0s0_00Bf_
FN:2568,_RNCNCNCNvMs2_NtNtCsdGsEM3RpwG4_22dual_core_pdf_pipeline3app3guiNtBb_5MyApp22draw_transfer_workflow0s_00Bf_
FN:2588,_RNCNCNCNvMs2_NtNtCsdGsEM3RpwG4_22dual_core_pdf_pipeline3app3guiNtBb_5MyApp22draw_transfer_workflow0s_0s_0Bf_
FN:3021,_RNCNCNCNvMs2_NtNtCsdGsEM3RpwG4_22dual_core_pdf_pipeline3app3guiNtBb_5MyApp24draw_workflow_edit_tables_000Bf_
FN:3030,_RNCNCNCNvMs2_NtNtCsdGsEM3RpwG4_22dual_core_pdf_pipeline3app3guiNtBb_5MyApp24draw_workflow_edit_tables_0s_00Bf_
FN:3032,_RNCNCNCNvMs2_NtNtCsdGsEM3RpwG4_22dual_core_pdf_pipeline3app3guiNtBb_5MyApp24draw_workflow_edit_tables_0s_0s_0Bf_
FN:3474,_RNCNCNCNvMs2_NtNtCsdGsEM3RpwG4_22dual_core_pdf_pipeline3app3guiNtBb_5MyApp26draw_font_analysis_sections_0s_00Bf_
FN:3477,_RNCNCNCNvMs2_NtNtCsdGsEM3RpwG4_22dual_core_pdf_pipeline3app3guiNtBb_5MyApp26draw_font_analysis_sections_0s_0s_0Bf_
FN:2654,_RNCNCNCNvMs2_NtNtCsdGsEM3RpwG4_22dual_core_pdf_pipeline3app3guiNtBb_5MyApp27draw_agent_command_workflow000Bf_
FN:2692,_RNCNCNCNvMs2_NtNtCsdGsEM3RpwG4_22dual_core_pdf_pipeline3app3guiNtBb_5MyApp27draw_agent_command_workflow0s0_00Bf_
FN:2672,_RNCNCNCNvMs2_NtNtCsdGsEM3RpwG4_22dual_core_pdf_pipeline3app3guiNtBb_5MyApp27draw_agent_command_workflow0s_00Bf_
FN:2210,_RNCNCNCNvMs2_NtNtCsdGsEM3RpwG4_22dual_core_pdf_pipeline3app3guiNtBb_5MyApp28draw_edit_statement_workflow000Bf_
FN:2314,_RNCNCNCNvMs2_NtNtCsdGsEM3RpwG4_22dual_core_pdf_pipeline3app3guiNtBb_5MyApp28draw_edit_statement_workflow00s0_0Bf_
FN:2272,_RNCNCNCNvMs2_NtNtCsdGsEM3RpwG4_22dual_core_pdf_pipeline3app3guiNtBb_5MyApp28draw_edit_statement_workflow00s_0Bf_
FN:1005,_RNCNCNvMs1_NtNtCsdGsEM3RpwG4_22dual_core_pdf_pipeline3app3guiNtB9_5MyApp15headless_update00Bd_
FN:1156,_RNCNCNvMs1_NtNtCsdGsEM3RpwG4_22dual_core_pdf_pipeline3app3guiNtB9_5MyApp15headless_updates6_00Bd_
FN:1163,_RNCNCNvMs1_NtNtCsdGsEM3RpwG4_22dual_core_pdf_pipeline3app3guiNtB9_5MyApp15headless_updates7_00Bd_
FN:1164,_RNCNCNvMs1_NtNtCsdGsEM3RpwG4_22dual_core_pdf_pipeline3app3guiNtB9_5MyApp15headless_updates7_0s_0Bd_
FN:1246,_RNCNCNvMs1_NtNtCsdGsEM3RpwG4_22dual_core_pdf_pipeline3app3guiNtB9_5MyApp15headless_updates9_00Bd_
FN:1251,_RNCNCNvMs1_NtNtCsdGsEM3RpwG4_22dual_core_pdf_pipeline3app3guiNtB9_5MyApp15headless_updates9_0s0_0Bd_
FN:1261,_RNCNCNvMs1_NtNtCsdGsEM3RpwG4_22dual_core_pdf_pipeline3app3guiNtB9_5MyApp15headless_updates9_0s1_0Bd_
FN:1262,_RNCNCNvMs1_NtNtCsdGsEM3RpwG4_22dual_core_pdf_pipeline3app3guiNtB9_5MyApp15headless_updates9_0s2_0Bd_
FN:1250,_RNCNCNvMs1_NtNtCsdGsEM3RpwG4_22dual_core_pdf_pipeline3app3guiNtB9_5MyApp15headless_updates9_0s_0Bd_
FN:3231,_RNCNCNvMs2_NtNtCsdGsEM3RpwG4_22dual_core_pdf_pipeline3app3guiNtB9_5MyApp10money_cell00Bd_
FN:3247,_RNCNCNvMs2_NtNtCsdGsEM3RpwG4_22dual_core_pdf_pipeline3app3guiNtB9_5MyApp10money_cell0s0_0Bd_
FN:3237,_RNCNCNvMs2_NtNtCsdGsEM3RpwG4_22dual_core_pdf_pipeline3app3guiNtB9_5MyApp10money_cell0s_0Bd_
FN:4689,_RNCNCNvMs2_NtNtCsdGsEM3RpwG4_22dual_core_pdf_pipeline3app3guiNtB9_5MyApp11draw_toastss_00Bd_
FN:3276,_RNCNCNvMs2_NtNtCsdGsEM3RpwG4_22dual_core_pdf_pipeline3app3guiNtB9_5MyApp11upsert_edits_00Bd_
FN:3284,_RNCNCNvMs2_NtNtCsdGsEM3RpwG4_22dual_core_pdf_pipeline3app3guiNtB9_5MyApp11upsert_edits_0s0_0Bd_
FN:3280,_RNCNCNvMs2_NtNtCsdGsEM3RpwG4_22dual_core_pdf_pipeline3app3guiNtB9_5MyApp11upsert_edits_0s_0Bd_
FN:2034,_RNCNCNvMs2_NtNtCsdGsEM3RpwG4_22dual_core_pdf_pipeline3app3guiNtB9_5MyApp12draw_sidebar00Bd_
FN:2146,_RNCNCNvMs2_NtNtCsdGsEM3RpwG4_22dual_core_pdf_pipeline3app3guiNtB9_5MyApp12draw_sidebar0s0_0Bd_
FN:2092,_RNCNCNvMs2_NtNtCsdGsEM3RpwG4_22dual_core_pdf_pipeline3app3guiNtB9_5MyApp12draw_sidebar0s_0Bd_
FN:2881,_RNCNCNvMs2_NtNtCsdGsEM3RpwG4_22dual_core_pdf_pipeline3app3guiNtB9_5MyApp15draw_left_panel00Bd_
FN:2900,_RNCNCNvMs2_NtNtCsdGsEM3RpwG4_22dual_core_pdf_pipeline3app3guiNtB9_5MyApp15draw_left_panel0s_0Bd_
FN:2785,_RNCNCNvMs2_NtNtCsdGsEM3RpwG4_22dual_core_pdf_pipeline3app3guiNtB9_5MyApp15draw_status_bar00Bd_
FN:2795,_RNCNCNvMs2_NtNtCsdGsEM3RpwG4_22dual_core_pdf_pipeline3app3guiNtB9_5MyApp15draw_status_bar0s_0Bd_
FN:3919,_RNCNCNvMs2_NtNtCsdGsEM3RpwG4_22dual_core_pdf_pipeline3app3guiNtB9_5MyApp16draw_batch_panel00Bd_
FN:3994,_RNCNCNvMs2_NtNtCsdGsEM3RpwG4_22dual_core_pdf_pipeline3app3guiNtB9_5MyApp16draw_batch_panel0s0_0Bd_
FN:3945,_RNCNCNvMs2_NtNtCsdGsEM3RpwG4_22dual_core_pdf_pipeline3app3guiNtB9_5MyApp16draw_batch_panel0s_0Bd_
FN:4490,_RNCNCNvMs2_NtNtCsdGsEM3RpwG4_22dual_core_pdf_pipeline3app3guiNtB9_5MyApp17draw_empty_canvas00Bd_
FN:4573,_RNCNCNvMs2_NtNtCsdGsEM3RpwG4_22dual_core_pdf_pipeline3app3guiNtB9_5MyApp17draw_empty_canvass_00Bd_
FN:4021,_RNCNCNvMs2_NtNtCsdGsEM3RpwG4_22dual_core_pdf_pipeline3app3guiNtB9_5MyApp18draw_central_panel00Bd_
FN:4347,_RNCNCNvMs2_NtNtCsdGsEM3RpwG4_22dual_core_pdf_pipeline3app3guiNtB9_5MyApp18draw_central_panel0s0_0Bd_
FN:4045,_RNCNCNvMs2_NtNtCsdGsEM3RpwG4_22dual_core_pdf_pipeline3app3guiNtB9_5MyApp18draw_central_panel0s_0Bd_
FN:3536,_RNCNCNvMs2_NtNtCsdGsEM3RpwG4_22dual_core_pdf_pipeline3app3guiNtB9_5MyApp21draw_workflow_section00Bd_
FN:3630,_RNCNCNvMs2_NtNtCsdGsEM3RpwG4_22dual_core_pdf_pipeline3app3guiNtB9_5MyApp21draw_workflow_section0s0_0Bd_
FN:3686,_RNCNCNvMs2_NtNtCsdGsEM3RpwG4_22dual_core_pdf_pipeline3app3guiNtB9_5MyApp21draw_workflow_section0s2_0Bd_
FN:3722,_RNCNCNvMs2_NtNtCsdGsEM3RpwG4_22dual_core_pdf_pipeline3app3guiNtB9_5MyApp21draw_workflow_section0s3_0Bd_
FN:3806,_RNCNCNvMs2_NtNtCsdGsEM3RpwG4_22dual_core_pdf_pipeline3app3guiNtB9_5MyApp21draw_workflow_section0s4_0Bd_
FN:3566,_RNCNCNvMs2_NtNtCsdGsEM3RpwG4_22dual_core_pdf_pipeline3app3guiNtB9_5MyApp21draw_workflow_section0s_0Bd_
FN:2753,_RNCNCNvMs2_NtNtCsdGsEM3RpwG4_22dual_core_pdf_pipeline3app3guiNtB9_5MyApp22draw_api_keys_workflow00Bd_
FN:2726,_RNCNCNvMs2_NtNtCsdGsEM3RpwG4_22dual_core_pdf_pipeline3app3guiNtB9_5MyApp22draw_settings_workflow00Bd_
FN:2491,_RNCNCNvMs2_NtNtCsdGsEM3RpwG4_22dual_core_pdf_pipeline3app3guiNtB9_5MyApp22draw_transfer_workflow00Bd_
FN:2619,_RNCNCNvMs2_NtNtCsdGsEM3RpwG4_22dual_core_pdf_pipeline3app3guiNtB9_5MyApp22draw_transfer_workflow0s0_0Bd_
FN:2562,_RNCNCNvMs2_NtNtCsdGsEM3RpwG4_22dual_core_pdf_pipeline3app3guiNtB9_5MyApp22draw_transfer_workflow0s_0Bd_
FN:4009,_RNCNCNvMs2_NtNtCsdGsEM3RpwG4_22dual_core_pdf_pipeline3app3guiNtB9_5MyApp24draw_audit_explorer_view00Bd_
FN:3019,_RNCNCNvMs2_NtNtCsdGsEM3RpwG4_22dual_core_pdf_pipeline3app3guiNtB9_5MyApp24draw_workflow_edit_tables_00Bd_
FN:3024,_RNCNCNvMs2_NtNtCsdGsEM3RpwG4_22dual_core_pdf_pipeline3app3guiNtB9_5MyApp24draw_workflow_edit_tables_0s_0Bd_
FN:3405,_RNCNCNvMs2_NtNtCsdGsEM3RpwG4_22dual_core_pdf_pipeline3app3guiNtB9_5MyApp26draw_font_analysis_sections_00Bd_
FN:3445,_RNCNCNvMs2_NtNtCsdGsEM3RpwG4_22dual_core_pdf_pipeline3app3guiNtB9_5MyApp26draw_font_analysis_sections_0s_0Bd_
FN:2646,_RNCNCNvMs2_NtNtCsdGsEM3RpwG4_22dual_core_pdf_pipeline3app3guiNtB9_5MyApp27draw_agent_command_workflow00Bd_
FN:2691,_RNCNCNvMs2_NtNtCsdGsEM3RpwG4_22dual_core_pdf_pipeline3app3guiNtB9_5MyApp27draw_agent_command_workflow0s0_0Bd_
FN:2668,_RNCNCNvMs2_NtNtCsdGsEM3RpwG4_22dual_core_pdf_pipeline3app3guiNtB9_5MyApp27draw_agent_command_workflow0s_0Bd_
FN:2183,_RNCNCNvMs2_NtNtCsdGsEM3RpwG4_22dual_core_pdf_pipeline3app3guiNtB9_5MyApp28draw_edit_statement_workflow00Bd_
FN:2348,_RNCNCNvMs2_NtNtCsdGsEM3RpwG4_22dual_core_pdf_pipeline3app3guiNtB9_5MyApp28draw_edit_statement_workflows_00Bd_
FN:2443,_RNCNCNvMs2_NtNtCsdGsEM3RpwG4_22dual_core_pdf_pipeline3app3guiNtB9_5MyApp28draw_edit_statement_workflows_0s0_0Bd_
FN:2475,_RNCNCNvMs2_NtNtCsdGsEM3RpwG4_22dual_core_pdf_pipeline3app3guiNtB9_5MyApp28draw_edit_statement_workflows_0s1_0Bd_
FN:2416,_RNCNCNvMs2_NtNtCsdGsEM3RpwG4_22dual_core_pdf_pipeline3app3guiNtB9_5MyApp28draw_edit_statement_workflows_0s_0Bd_
FN:950,_RNCNCNvMs_NtNtCsdGsEM3RpwG4_22dual_core_pdf_pipeline3app3guiNtB8_5MyApp20balance_trend_points00Bc_
FN:723,_RNCNCNvMs_NtNtCsdGsEM3RpwG4_22dual_core_pdf_pipeline3app3guiNtB8_5MyApp25pair_originals_and_edited00Bc_
FN:990,_RNCNvMs1_NtNtCsdGsEM3RpwG4_22dual_core_pdf_pipeline3app3guiNtB7_5MyApp15headless_update0Bb_
FN:1051,_RNCNvMs1_NtNtCsdGsEM3RpwG4_22dual_core_pdf_pipeline3app3guiNtB7_5MyApp15headless_updates0_0Bb_
FN:1053,_RNCNvMs1_NtNtCsdGsEM3RpwG4_22dual_core_pdf_pipeline3app3guiNtB7_5MyApp15headless_updates1_0Bb_
FN:1105,_RNCNvMs1_NtNtCsdGsEM3RpwG4_22dual_core_pdf_pipeline3app3guiNtB7_5MyApp15headless_updates3_0Bb_
FN:1128,_RNCNvMs1_NtNtCsdGsEM3RpwG4_22dual_core_pdf_pipeline3app3guiNtB7_5MyApp15headless_updates4_0Bb_
FN:1151,_RNCNvMs1_NtNtCsdGsEM3RpwG4_22dual_core_pdf_pipeline3app3guiNtB7_5MyApp15headless_updates5_0Bb_
FN:1152,_RNCNvMs1_NtNtCsdGsEM3RpwG4_22dual_core_pdf_pipeline3app3guiNtB7_5MyApp15headless_updates6_0Bb_
FN:1161,_RNCNvMs1_NtNtCsdGsEM3RpwG4_22dual_core_pdf_pipeline3app3guiNtB7_5MyApp15headless_updates7_0Bb_
FN:1182,_RNCNvMs1_NtNtCsdGsEM3RpwG4_22dual_core_pdf_pipeline3app3guiNtB7_5MyApp15headless_updates8_0Bb_
FN:1237,_RNCNvMs1_NtNtCsdGsEM3RpwG4_22dual_core_pdf_pipeline3app3guiNtB7_5MyApp15headless_updates9_0Bb_
FN:1049,_RNCNvMs1_NtNtCsdGsEM3RpwG4_22dual_core_pdf_pipeline3app3guiNtB7_5MyApp15headless_updates_0Bb_
FN:3230,_RNCNvMs2_NtNtCsdGsEM3RpwG4_22dual_core_pdf_pipeline3app3guiNtB7_5MyApp10money_cell0Bb_
FN:4681,_RNCNvMs2_NtNtCsdGsEM3RpwG4_22dual_core_pdf_pipeline3app3guiNtB7_5MyApp11draw_toasts0Bb_
FN:4772,_RNCNvMs2_NtNtCsdGsEM3RpwG4_22dual_core_pdf_pipeline3app3guiNtB7_5MyApp11draw_toastss0_0Bb_
FN:4688,_RNCNvMs2_NtNtCsdGsEM3RpwG4_22dual_core_pdf_pipeline3app3guiNtB7_5MyApp11draw_toastss_0Bb_
FN:3269,_RNCNvMs2_NtNtCsdGsEM3RpwG4_22dual_core_pdf_pipeline3app3guiNtB7_5MyApp11upsert_edit0Bb_
FN:3296,_RNCNvMs2_NtNtCsdGsEM3RpwG4_22dual_core_pdf_pipeline3app3guiNtB7_5MyApp11upsert_edits0_0Bb_
FN:3305,_RNCNvMs2_NtNtCsdGsEM3RpwG4_22dual_core_pdf_pipeline3app3guiNtB7_5MyApp11upsert_edits1_0Bb_
FN:3271,_RNCNvMs2_NtNtCsdGsEM3RpwG4_22dual_core_pdf_pipeline3app3guiNtB7_5MyApp11upsert_edits_0Bb_
FN:2030,_RNCNvMs2_NtNtCsdGsEM3RpwG4_22dual_core_pdf_pipeline3app3guiNtB7_5MyApp12draw_sidebar0Bb_
FN:2879,_RNCNvMs2_NtNtCsdGsEM3RpwG4_22dual_core_pdf_pipeline3app3guiNtB7_5MyApp15draw_left_panel0Bb_
FN:2760,_RNCNvMs2_NtNtCsdGsEM3RpwG4_22dual_core_pdf_pipeline3app3guiNtB7_5MyApp15draw_status_bar0Bb_
FN:3915,_RNCNvMs2_NtNtCsdGsEM3RpwG4_22dual_core_pdf_pipeline3app3guiNtB7_5MyApp16draw_batch_panel0Bb_
FN:4780,_RNCNvMs2_NtNtCsdGsEM3RpwG4_22dual_core_pdf_pipeline3app3guiNtB7_5MyApp16handle_shortcuts0Bb_
FN:4782,_RNCNvMs2_NtNtCsdGsEM3RpwG4_22dual_core_pdf_pipeline3app3guiNtB7_5MyApp16handle_shortcutss0_0Bb_
FN:4783,_RNCNvMs2_NtNtCsdGsEM3RpwG4_22dual_core_pdf_pipeline3app3guiNtB7_5MyApp16handle_shortcutss1_0Bb_
FN:4785,_RNCNvMs2_NtNtCsdGsEM3RpwG4_22dual_core_pdf_pipeline3app3guiNtB7_5MyApp16handle_shortcutss2_0Bb_
FN:4787,_RNCNvMs2_NtNtCsdGsEM3RpwG4_22dual_core_pdf_pipeline3app3guiNtB7_5MyApp16handle_shortcutss3_0Bb_
FN:4789,_RNCNvMs2_NtNtCsdGsEM3RpwG4_22dual_core_pdf_pipeline3app3guiNtB7_5MyApp16handle_shortcutss4_0Bb_
FN:4790,_RNCNvMs2_NtNtCsdGsEM3RpwG4_22dual_core_pdf_pipeline3app3guiNtB7_5MyApp16handle_shortcutss5_0Bb_
FN:4791,_RNCNvMs2_NtNtCsdGsEM3RpwG4_22dual_core_pdf_pipeline3app3guiNtB7_5MyApp16handle_shortcutss6_0Bb_
FN:4792,_RNCNvMs2_NtNtCsdGsEM3RpwG4_22dual_core_pdf_pipeline3app3guiNtB7_5MyApp16handle_shortcutss7_0Bb_
FN:4781,_RNCNvMs2_NtNtCsdGsEM3RpwG4_22dual_core_pdf_pipeline3app3guiNtB7_5MyApp16handle_shortcutss_0Bb_
FN:3322,_RNCNvMs2_NtNtCsdGsEM3RpwG4_22dual_core_pdf_pipeline3app3guiNtB7_5MyApp16revert_row_edits0Bb_
FN:3327,_RNCNvMs2_NtNtCsdGsEM3RpwG4_22dual_core_pdf_pipeline3app3guiNtB7_5MyApp16revert_row_editss_0Bb_
FN:4489,_RNCNvMs2_NtNtCsdGsEM3RpwG4_22dual_core_pdf_pipeline3app3guiNtB7_5MyApp17draw_empty_canvas0Bb_
FN:4571,_RNCNvMs2_NtNtCsdGsEM3RpwG4_22dual_core_pdf_pipeline3app3guiNtB7_5MyApp17draw_empty_canvass_0Bb_
FN:1446,_RNCNvMs2_NtNtCsdGsEM3RpwG4_22dual_core_pdf_pipeline3app3guiNtB7_5MyApp17handle_job_result0Bb_
FN:1565,_RNCNvMs2_NtNtCsdGsEM3RpwG4_22dual_core_pdf_pipeline3app3guiNtB7_5MyApp17handle_job_results0_0Bb_
FN:1660,_RNCNvMs2_NtNtCsdGsEM3RpwG4_22dual_core_pdf_pipeline3app3guiNtB7_5MyApp17handle_job_results1_0Bb_
FN:1495,_RNCNvMs2_NtNtCsdGsEM3RpwG4_22dual_core_pdf_pipeline3app3guiNtB7_5MyApp17handle_job_results_0Bb_
FN:4019,_RNCNvMs2_NtNtCsdGsEM3RpwG4_22dual_core_pdf_pipeline3app3guiNtB7_5MyApp18draw_central_panel0Bb_
FN:3527,_RNCNvMs2_NtNtCsdGsEM3RpwG4_22dual_core_pdf_pipeline3app3guiNtB7_5MyApp21draw_workflow_section0Bb_
FN:2746,_RNCNvMs2_NtNtCsdGsEM3RpwG4_22dual_core_pdf_pipeline3app3guiNtB7_5MyApp22draw_api_keys_workflow0Bb_
FN:2719,_RNCNvMs2_NtNtCsdGsEM3RpwG4_22dual_core_pdf_pipeline3app3guiNtB7_5MyApp22draw_settings_workflow0Bb_
FN:2487,_RNCNvMs2_NtNtCsdGsEM3RpwG4_22dual_core_pdf_pipeline3app3guiNtB7_5MyApp22draw_transfer_workflow0Bb_
FN:4007,_RNCNvMs2_NtNtCsdGsEM3RpwG4_22dual_core_pdf_pipeline3app3guiNtB7_5MyApp24draw_audit_explorer_view0Bb_
FN:2979,_RNCNvMs2_NtNtCsdGsEM3RpwG4_22dual_core_pdf_pipeline3app3guiNtB7_5MyApp24draw_workflow_edit_table0Bb_
FN:3004,_RNCNvMs2_NtNtCsdGsEM3RpwG4_22dual_core_pdf_pipeline3app3guiNtB7_5MyApp24draw_workflow_edit_tables_0Bb_
FN:3368,_RNCNvMs2_NtNtCsdGsEM3RpwG4_22dual_core_pdf_pipeline3app3guiNtB7_5MyApp26draw_font_analysis_section0Bb_
FN:3395,_RNCNvMs2_NtNtCsdGsEM3RpwG4_22dual_core_pdf_pipeline3app3guiNtB7_5MyApp26draw_font_analysis_sections_0Bb_
FN:3895,_RNCNvMs2_NtNtCsdGsEM3RpwG4_22dual_core_pdf_pipeline3app3guiNtB7_5MyApp27dispatch_confirm_and_renders_0Bb_
FN:2640,_RNCNvMs2_NtNtCsdGsEM3RpwG4_22dual_core_pdf_pipeline3app3guiNtB7_5MyApp27draw_agent_command_workflow0Bb_
FN:2706,_RNCNvMs2_NtNtCsdGsEM3RpwG4_22dual_core_pdf_pipeline3app3guiNtB7_5MyApp27draw_chaos_sandbox_workflow0Bb_
FN:2182,_RNCNvMs2_NtNtCsdGsEM3RpwG4_22dual_core_pdf_pipeline3app3guiNtB7_5MyApp28draw_edit_statement_workflow0Bb_
FN:2340,_RNCNvMs2_NtNtCsdGsEM3RpwG4_22dual_core_pdf_pipeline3app3guiNtB7_5MyApp28draw_edit_statement_workflows_0Bb_
FN:780,_RNCNvMs_NtNtCsdGsEM3RpwG4_22dual_core_pdf_pipeline3app3guiNtB6_5MyApp14request_render0Ba_
FN:900,_RNCNvMs_NtNtCsdGsEM3RpwG4_22dual_core_pdf_pipeline3app3guiNtB6_5MyApp15export_to_excel0Ba_
FN:800,_RNCNvMs_NtNtCsdGsEM3RpwG4_22dual_core_pdf_pipeline3app3guiNtB6_5MyApp19update_recent_files0Ba_
FN:945,_RNCNvMs_NtNtCsdGsEM3RpwG4_22dual_core_pdf_pipeline3app3guiNtB6_5MyApp20balance_trend_points0Ba_
FN:721,_RNCNvMs_NtNtCsdGsEM3RpwG4_22dual_core_pdf_pipeline3app3guiNtB6_5MyApp25pair_originals_and_edited0Ba_
FN:732,_RNCNvMs_NtNtCsdGsEM3RpwG4_22dual_core_pdf_pipeline3app3guiNtB6_5MyApp25pair_originals_and_editeds_0Ba_
FN:412,_RNCNvMs_NtNtCsdGsEM3RpwG4_22dual_core_pdf_pipeline3app3guiNtB6_5MyApp3new0Ba_
FN:516,_RNCNvMs_NtNtCsdGsEM3RpwG4_22dual_core_pdf_pipeline3app3guiNtB6_5MyApp3news_0Ba_
FN:5066,_RNCNvNtNtCsdGsEM3RpwG4_22dual_core_pdf_pipeline3app3gui15upsert_env_file0B7_
FN:5092,_RNCNvNtNtCsdGsEM3RpwG4_22dual_core_pdf_pipeline3app3gui15upsert_env_files0_0B7_
FN:5094,_RNCNvNtNtCsdGsEM3RpwG4_22dual_core_pdf_pipeline3app3gui15upsert_env_files1_0B7_
FN:5091,_RNCNvNtNtCsdGsEM3RpwG4_22dual_core_pdf_pipeline3app3gui15upsert_env_files_0B7_
FN:5170,_RNCNvNtNtCsdGsEM3RpwG4_22dual_core_pdf_pipeline3app3gui7run_gui0B7_
FN:972,_RNvMs1_NtNtCsdGsEM3RpwG4_22dual_core_pdf_pipeline3app3guiNtB5_5MyApp15headless_update
FN:3210,_RNvMs2_NtNtCsdGsEM3RpwG4_22dual_core_pdf_pipeline3app3guiNtB5_5MyApp10money_cell
FN:4677,_RNvMs2_NtNtCsdGsEM3RpwG4_22dual_core_pdf_pipeline3app3guiNtB5_5MyApp11draw_toasts
FN:3264,_RNvMs2_NtNtCsdGsEM3RpwG4_22dual_core_pdf_pipeline3app3guiNtB5_5MyApp11upsert_edit
FN:2001,_RNvMs2_NtNtCsdGsEM3RpwG4_22dual_core_pdf_pipeline3app3guiNtB5_5MyApp12draw_sidebar
FN:3167,_RNvMs2_NtNtCsdGsEM3RpwG4_22dual_core_pdf_pipeline3app3guiNtB5_5MyApp14bbox_for_field
FN:2876,_RNvMs2_NtNtCsdGsEM3RpwG4_22dual_core_pdf_pipeline3app3guiNtB5_5MyApp15draw_left_panel
FN:2759,_RNvMs2_NtNtCsdGsEM3RpwG4_22dual_core_pdf_pipeline3app3guiNtB5_5MyApp15draw_status_bar
FN:3914,_RNvMs2_NtNtCsdGsEM3RpwG4_22dual_core_pdf_pipeline3app3guiNtB5_5MyApp16draw_batch_panel
FN:4778,_RNvMs2_NtNtCsdGsEM3RpwG4_22dual_core_pdf_pipeline3app3guiNtB5_5MyApp16handle_shortcuts
FN:3319,_RNvMs2_NtNtCsdGsEM3RpwG4_22dual_core_pdf_pipeline3app3guiNtB5_5MyApp16revert_row_edits
FN:2943,_RNvMs2_NtNtCsdGsEM3RpwG4_22dual_core_pdf_pipeline3app3guiNtB5_5MyApp16safe_output_path
FN:4469,_RNvMs2_NtNtCsdGsEM3RpwG4_22dual_core_pdf_pipeline3app3guiNtB5_5MyApp17draw_empty_canvas
FN:1371,_RNvMs2_NtNtCsdGsEM3RpwG4_22dual_core_pdf_pipeline3app3guiNtB5_5MyApp17handle_job_result
FN:4018,_RNvMs2_NtNtCsdGsEM3RpwG4_22dual_core_pdf_pipeline3app3guiNtB5_5MyApp18draw_central_panel
FN:4884,_RNvMs2_NtNtCsdGsEM3RpwG4_22dual_core_pdf_pipeline3app3guiNtB5_5MyApp19workflow_draft_path
FN:3526,_RNvMs2_NtNtCsdGsEM3RpwG4_22dual_core_pdf_pipeline3app3guiNtB5_5MyApp21draw_workflow_section
FN:4971,_RNvMs2_NtNtCsdGsEM3RpwG4_22dual_core_pdf_pipeline3app3guiNtB5_5MyApp21resume_workflow_draft
FN:2745,_RNvMs2_NtNtCsdGsEM3RpwG4_22dual_core_pdf_pipeline3app3guiNtB5_5MyApp22draw_api_keys_workflow
FN:2718,_RNvMs2_NtNtCsdGsEM3RpwG4_22dual_core_pdf_pipeline3app3guiNtB5_5MyApp22draw_settings_workflow
FN:2486,_RNvMs2_NtNtCsdGsEM3RpwG4_22dual_core_pdf_pipeline3app3guiNtB5_5MyApp22draw_transfer_workflow
FN:4905,_RNvMs2_NtNtCsdGsEM3RpwG4_22dual_core_pdf_pipeline3app3guiNtB5_5MyApp23autosave_workflow_draft
FN:4004,_RNvMs2_NtNtCsdGsEM3RpwG4_22dual_core_pdf_pipeline3app3guiNtB5_5MyApp24draw_audit_explorer_view
FN:2972,_RNvMs2_NtNtCsdGsEM3RpwG4_22dual_core_pdf_pipeline3app3guiNtB5_5MyApp24draw_workflow_edit_table
FN:3363,_RNvMs2_NtNtCsdGsEM3RpwG4_22dual_core_pdf_pipeline3app3guiNtB5_5MyApp26draw_font_analysis_section
FN:3860,_RNvMs2_NtNtCsdGsEM3RpwG4_22dual_core_pdf_pipeline3app3guiNtB5_5MyApp27dispatch_confirm_and_render
FN:2639,_RNvMs2_NtNtCsdGsEM3RpwG4_22dual_core_pdf_pipeline3app3guiNtB5_5MyApp27draw_agent_command_workflow
FN:2705,_RNvMs2_NtNtCsdGsEM3RpwG4_22dual_core_pdf_pipeline3app3guiNtB5_5MyApp27draw_chaos_sandbox_workflow
FN:4891,_RNvMs2_NtNtCsdGsEM3RpwG4_22dual_core_pdf_pipeline3app3guiNtB5_5MyApp28discard_workflow_draft_quiet
FN:2164,_RNvMs2_NtNtCsdGsEM3RpwG4_22dual_core_pdf_pipeline3app3guiNtB5_5MyApp28draw_edit_statement_workflow
FN:3343,_RNvMs2_NtNtCsdGsEM3RpwG4_22dual_core_pdf_pipeline3app3guiNtB5_5MyApp33dispatch_instant_background_apply
FN:4849,_RNvMs2_NtNtCsdGsEM3RpwG4_22dual_core_pdf_pipeline3app3guiNtB5_5MyApp8open_pdf
FN:762,_RNvMs_NtNtCsdGsEM3RpwG4_22dual_core_pdf_pipeline3app3guiNtB4_5MyApp14request_render
FN:899,_RNvMs_NtNtCsdGsEM3RpwG4_22dual_core_pdf_pipeline3app3guiNtB4_5MyApp15export_to_excel
FN:928,_RNvMs_NtNtCsdGsEM3RpwG4_22dual_core_pdf_pipeline3app3guiNtB4_5MyApp16fit_zoom_to_view
FN:585,_RNvMs_NtNtCsdGsEM3RpwG4_22dual_core_pdf_pipeline3app3guiNtB4_5MyApp16save_credentials
FN:799,_RNvMs_NtNtCsdGsEM3RpwG4_22dual_core_pdf_pipeline3app3guiNtB4_5MyApp19update_recent_files
FN:938,_RNvMs_NtNtCsdGsEM3RpwG4_22dual_core_pdf_pipeline3app3guiNtB4_5MyApp20balance_trend_points
FN:832,_RNvMs_NtNtCsdGsEM3RpwG4_22dual_core_pdf_pipeline3app3guiNtB4_5MyApp21build_artifact_bundle
FN:810,_RNvMs_NtNtCsdGsEM3RpwG4_22dual_core_pdf_pipeline3app3guiNtB4_5MyApp23load_texture_from_bytes
FN:717,_RNvMs_NtNtCsdGsEM3RpwG4_22dual_core_pdf_pipeline3app3guiNtB4_5MyApp25pair_originals_and_edited
FN:401,_RNvMs_NtNtCsdGsEM3RpwG4_22dual_core_pdf_pipeline3app3guiNtB4_5MyApp3new
FN:93,_RNvNtNtCsdGsEM3RpwG4_22dual_core_pdf_pipeline3app3gui12default_true
FN:5061,_RNvNtNtCsdGsEM3RpwG4_22dual_core_pdf_pipeline3app3gui15upsert_env_file
FN:5105,_RNvNtNtCsdGsEM3RpwG4_22dual_core_pdf_pipeline3app3gui18setup_custom_fonts
FN:96,_RNvNtNtCsdGsEM3RpwG4_22dual_core_pdf_pipeline3app3gui24default_visual_threshold
FN:99,_RNvNtNtCsdGsEM3RpwG4_22dual_core_pdf_pipeline3app3gui27default_max_visual_attempts
FN:5153,_RNvNtNtCsdGsEM3RpwG4_22dual_core_pdf_pipeline3app3gui7run_gui
FN:5141,_RNvNtNtCsdGsEM3RpwG4_22dual_core_pdf_pipeline3app3gui9load_icon
FN:104,_RNvXNtNtCsdGsEM3RpwG4_22dual_core_pdf_pipeline3app3guiNtB2_11AppSettingsNtNtCsaNl6UpbT7bw_4core7default7Default7default
FN:966,_RNvXs0_NtNtCsdGsEM3RpwG4_22dual_core_pdf_pipeline3app3guiNtB5_5MyAppNtNtCsbbt3wsBKW5l_6eframe3epi3App6update
FNDA:0,_RNCNvMs2_NtNtCshN9TtrzEz6i_22dual_core_pdf_pipeline3app3guiNtB7_5MyApp11upsert_edits0_0Bb_
FNDA:0,_RNCNvMs2_NtNtCshN9TtrzEz6i_22dual_core_pdf_pipeline3app3guiNtB7_5MyApp16revert_row_edits0Bb_
FNDA:1,_RNCNvMs_NtNtCshN9TtrzEz6i_22dual_core_pdf_pipeline3app3guiNtB6_5MyApp19update_recent_files0Ba_
FNDA:0,_RNCNvNtNtCshN9TtrzEz6i_22dual_core_pdf_pipeline3app3gui15upsert_env_files0_0B7_
FNDA:0,_RNCNvNtNtCshN9TtrzEz6i_22dual_core_pdf_pipeline3app3gui15upsert_env_files1_0B7_
FNDA:0,_RNCNCNCNvMs2_NtNtCshN9TtrzEz6i_22dual_core_pdf_pipeline3app3guiNtBb_5MyApp16draw_batch_panel000Bf_
FNDA:0,_RNCNCNCNvMs2_NtNtCshN9TtrzEz6i_22dual_core_pdf_pipeline3app3guiNtBb_5MyApp16draw_batch_panel00s0_0Bf_
FNDA:0,_RNCNCNCNvMs2_NtNtCshN9TtrzEz6i_22dual_core_pdf_pipeline3app3guiNtBb_5MyApp16draw_batch_panel00s_0Bf_
FNDA:0,_RNCNCNvMs2_NtNtCshN9TtrzEz6i_22dual_core_pdf_pipeline3app3guiNtB9_5MyApp15draw_left_panel00Bd_
FNDA:0,_RNCNCNvMs2_NtNtCshN9TtrzEz6i_22dual_core_pdf_pipeline3app3guiNtB9_5MyApp15draw_left_panel0s_0Bd_
FNDA:0,_RNCNCNvMs2_NtNtCshN9TtrzEz6i_22dual_core_pdf_pipeline3app3guiNtB9_5MyApp16draw_batch_panel00Bd_
FNDA:0,_RNCNCNvMs2_NtNtCshN9TtrzEz6i_22dual_core_pdf_pipeline3app3guiNtB9_5MyApp16draw_batch_panel0s0_0Bd_
FNDA:0,_RNCNCNvMs2_NtNtCshN9TtrzEz6i_22dual_core_pdf_pipeline3app3guiNtB9_5MyApp16draw_batch_panel0s_0Bd_
FNDA:0,_RNCNCNvMs_NtNtCshN9TtrzEz6i_22dual_core_pdf_pipeline3app3guiNtB8_5MyApp25pair_originals_and_edited00Bc_
FNDA:0,_RNCNvMs2_NtNtCshN9TtrzEz6i_22dual_core_pdf_pipeline3app3guiNtB7_5MyApp15draw_left_panel0Bb_
FNDA:0,_RNCNvMs2_NtNtCshN9TtrzEz6i_22dual_core_pdf_pipeline3app3guiNtB7_5MyApp16draw_batch_panel0Bb_
FNDA:0,_RNCNvMs_NtNtCshN9TtrzEz6i_22dual_core_pdf_pipeline3app3guiNtB6_5MyApp25pair_originals_and_edited0Ba_
FNDA:0,_RNCNvMs_NtNtCshN9TtrzEz6i_22dual_core_pdf_pipeline3app3guiNtB6_5MyApp25pair_originals_and_editeds_0Ba_
FNDA:0,_RNvMs2_NtNtCshN9TtrzEz6i_22dual_core_pdf_pipeline3app3guiNtB5_5MyApp15draw_left_panel
FNDA:0,_RNvMs2_NtNtCshN9TtrzEz6i_22dual_core_pdf_pipeline3app3guiNtB5_5MyApp16draw_batch_panel
FNDA:0,_RNvMs_NtNtCshN9TtrzEz6i_22dual_core_pdf_pipeline3app3guiNtB4_5MyApp21build_artifact_bundle
FNDA:0,_RNvMs_NtNtCshN9TtrzEz6i_22dual_core_pdf_pipeline3app3guiNtB4_5MyApp25pair_originals_and_edited
FNDA:0,_RNCNCNCNvMs2_NtNtCshN9TtrzEz6i_22dual_core_pdf_pipeline3app3guiNtBb_5MyApp24draw_workflow_edit_tables_0s_0s_0Bf_
FNDA:0,_RNCNCNvMs2_NtNtCshN9TtrzEz6i_22dual_core_pdf_pipeline3app3guiNtB9_5MyApp11upsert_edits_00Bd_
FNDA:0,_RNCNCNvMs2_NtNtCshN9TtrzEz6i_22dual_core_pdf_pipeline3app3guiNtB9_5MyApp11upsert_edits_0s0_0Bd_
FNDA:0,_RNCNCNvMs2_NtNtCshN9TtrzEz6i_22dual_core_pdf_pipeline3app3guiNtB9_5MyApp11upsert_edits_0s_0Bd_
FNDA:0,_RNCNvMs1_NtNtCshN9TtrzEz6i_22dual_core_pdf_pipeline3app3guiNtB7_5MyApp15headless_updates3_0Bb_
FNDA:0,_RNCNvMs2_NtNtCshN9TtrzEz6i_22dual_core_pdf_pipeline3app3guiNtB7_5MyApp11upsert_edit0Bb_
FNDA:0,_RNCNvMs2_NtNtCshN9TtrzEz6i_22dual_core_pdf_pipeline3app3guiNtB7_5MyApp11upsert_edits1_0Bb_
FNDA:0,_RNCNvMs2_NtNtCshN9TtrzEz6i_22dual_core_pdf_pipeline3app3guiNtB7_5MyApp11upsert_edits_0Bb_
FNDA:0,_RNCNvMs2_NtNtCshN9TtrzEz6i_22dual_core_pdf_pipeline3app3guiNtB7_5MyApp17handle_job_result0Bb_
FNDA:0,_RNCNvMs2_NtNtCshN9TtrzEz6i_22dual_core_pdf_pipeline3app3guiNtB7_5MyApp17handle_job_results0_0Bb_
FNDA:1,_RNCNvMs2_NtNtCshN9TtrzEz6i_22dual_core_pdf_pipeline3app3guiNtB7_5MyApp17handle_job_results1_0Bb_
FNDA:0,_RNCNvMs2_NtNtCshN9TtrzEz6i_22dual_core_pdf_pipeline3app3guiNtB7_5MyApp24draw_workflow_edit_table0Bb_
FNDA:0,_RNCNvMs2_NtNtCshN9TtrzEz6i_22dual_core_pdf_pipeline3app3guiNtB7_5MyApp27dispatch_confirm_and_renders_0Bb_
FNDA:1,_RNCNvMs_NtNtCshN9TtrzEz6i_22dual_core_pdf_pipeline3app3guiNtB6_5MyApp14request_render0Ba_
FNDA:0,_RNCNvMs_NtNtCshN9TtrzEz6i_22dual_core_pdf_pipeline3app3guiNtB6_5MyApp15export_to_excel0Ba_
FNDA:0,_RNCNvMs_NtNtCshN9TtrzEz6i_22dual_core_pdf_pipeline3app3guiNtB6_5MyApp3new0Ba_
FNDA:14,_RNCNvMs_NtNtCshN9TtrzEz6i_22dual_core_pdf_pipeline3app3guiNtB6_5MyApp3news_0Ba_
FNDA:0,_RNCNvNtNtCshN9TtrzEz6i_22dual_core_pdf_pipeline3app3gui7run_gui0B7_
FNDA:76,_RNvMs1_NtNtCshN9TtrzEz6i_22dual_core_pdf_pipeline3app3guiNtB5_5MyApp15headless_update
FNDA:0,_RNvMs2_NtNtCshN9TtrzEz6i_22dual_core_pdf_pipeline3app3guiNtB5_5MyApp10money_cell
FNDA:76,_RNvMs2_NtNtCshN9TtrzEz6i_22dual_core_pdf_pipeline3app3guiNtB5_5MyApp11draw_toasts
FNDA:0,_RNvMs2_NtNtCshN9TtrzEz6i_22dual_core_pdf_pipeline3app3guiNtB5_5MyApp11upsert_edit
FNDA:76,_RNvMs2_NtNtCshN9TtrzEz6i_22dual_core_pdf_pipeline3app3guiNtB5_5MyApp12draw_sidebar
FNDA:0,_RNvMs2_NtNtCshN9TtrzEz6i_22dual_core_pdf_pipeline3app3guiNtB5_5MyApp14bbox_for_field
FNDA:76,_RNvMs2_NtNtCshN9TtrzEz6i_22dual_core_pdf_pipeline3app3guiNtB5_5MyApp15draw_status_bar
FNDA:76,_RNvMs2_NtNtCshN9TtrzEz6i_22dual_core_pdf_pipeline3app3guiNtB5_5MyApp16handle_shortcuts
FNDA:0,_RNvMs2_NtNtCshN9TtrzEz6i_22dual_core_pdf_pipeline3app3guiNtB5_5MyApp16revert_row_edits
FNDA:0,_RNvMs2_NtNtCshN9TtrzEz6i_22dual_core_pdf_pipeline3app3guiNtB5_5MyApp16safe_output_path
FNDA:58,_RNvMs2_NtNtCshN9TtrzEz6i_22dual_core_pdf_pipeline3app3guiNtB5_5MyApp17draw_empty_canvas
FNDA:9,_RNvMs2_NtNtCshN9TtrzEz6i_22dual_core_pdf_pipeline3app3guiNtB5_5MyApp17handle_job_result
FNDA:58,_RNvMs2_NtNtCshN9TtrzEz6i_22dual_core_pdf_pipeline3app3guiNtB5_5MyApp18draw_central_panel
FNDA:0,_RNvMs2_NtNtCshN9TtrzEz6i_22dual_core_pdf_pipeline3app3guiNtB5_5MyApp19workflow_draft_path
FNDA:6,_RNvMs2_NtNtCshN9TtrzEz6i_22dual_core_pdf_pipeline3app3guiNtB5_5MyApp21draw_workflow_section
FNDA:0,_RNvMs2_NtNtCshN9TtrzEz6i_22dual_core_pdf_pipeline3app3guiNtB5_5MyApp21resume_workflow_draft
FNDA:13,_RNvMs2_NtNtCshN9TtrzEz6i_22dual_core_pdf_pipeline3app3guiNtB5_5MyApp22draw_api_keys_workflow
FNDA:1,_RNvMs2_NtNtCshN9TtrzEz6i_22dual_core_pdf_pipeline3app3guiNtB5_5MyApp22draw_settings_workflow
FNDA:1,_RNvMs2_NtNtCshN9TtrzEz6i_22dual_core_pdf_pipeline3app3guiNtB5_5MyApp22draw_transfer_workflow
FNDA:76,_RNvMs2_NtNtCshN9TtrzEz6i_22dual_core_pdf_pipeline3app3guiNtB5_5MyApp23autosave_workflow_draft
FNDA:1,_RNvMs2_NtNtCshN9TtrzEz6i_22dual_core_pdf_pipeline3app3guiNtB5_5MyApp24draw_audit_explorer_view
FNDA:0,_RNvMs2_NtNtCshN9TtrzEz6i_22dual_core_pdf_pipeline3app3guiNtB5_5MyApp24draw_workflow_edit_table
FNDA:6,_RNvMs2_NtNtCshN9TtrzEz6i_22dual_core_pdf_pipeline3app3guiNtB5_5MyApp26draw_font_analysis_section
FNDA:0,_RNvMs2_NtNtCshN9TtrzEz6i_22dual_core_pdf_pipeline3app3guiNtB5_5MyApp27dispatch_confirm_and_render
FNDA:1,_RNvMs2_NtNtCshN9TtrzEz6i_22dual_core_pdf_pipeline3app3guiNtB5_5MyApp27draw_agent_command_workflow
FNDA:1,_RNvMs2_NtNtCshN9TtrzEz6i_22dual_core_pdf_pipeline3app3guiNtB5_5MyApp27draw_chaos_sandbox_workflow
FNDA:0,_RNvMs2_NtNtCshN9TtrzEz6i_22dual_core_pdf_pipeline3app3guiNtB5_5MyApp28discard_workflow_draft_quiet
FNDA:58,_RNvMs2_NtNtCshN9TtrzEz6i_22dual_core_pdf_pipeline3app3guiNtB5_5MyApp28draw_edit_statement_workflow
FNDA:0,_RNvMs2_NtNtCshN9TtrzEz6i_22dual_core_pdf_pipeline3app3guiNtB5_5MyApp33dispatch_instant_background_apply
FNDA:44,_RNvMs2_NtNtCshN9TtrzEz6i_22dual_core_pdf_pipeline3app3guiNtB5_5MyApp8open_pdf
FNDA:4,_RNvMs_NtNtCshN9TtrzEz6i_22dual_core_pdf_pipeline3app3guiNtB4_5MyApp14request_render
FNDA:0,_RNvMs_NtNtCshN9TtrzEz6i_22dual_core_pdf_pipeline3app3guiNtB4_5MyApp15export_to_excel
FNDA:0,_RNvMs_NtNtCshN9TtrzEz6i_22dual_core_pdf_pipeline3app3guiNtB4_5MyApp16fit_zoom_to_view
FNDA:0,_RNvMs_NtNtCshN9TtrzEz6i_22dual_core_pdf_pipeline3app3guiNtB4_5MyApp16save_credentials
FNDA:1,_RNvMs_NtNtCshN9TtrzEz6i_22dual_core_pdf_pipeline3app3guiNtB4_5MyApp19update_recent_files
FNDA:0,_RNvMs_NtNtCshN9TtrzEz6i_22dual_core_pdf_pipeline3app3guiNtB4_5MyApp20balance_trend_points
FNDA:0,_RNvMs_NtNtCshN9TtrzEz6i_22dual_core_pdf_pipeline3app3guiNtB4_5MyApp23load_texture_from_bytes
FNDA:14,_RNvMs_NtNtCshN9TtrzEz6i_22dual_core_pdf_pipeline3app3guiNtB4_5MyApp3new
FNDA:0,_RNvNtNtCshN9TtrzEz6i_22dual_core_pdf_pipeline3app3gui12default_true
FNDA:0,_RNvNtNtCshN9TtrzEz6i_22dual_core_pdf_pipeline3app3gui15upsert_env_file
FNDA:0,_RNvNtNtCshN9TtrzEz6i_22dual_core_pdf_pipeline3app3gui18setup_custom_fonts
FNDA:0,_RNvNtNtCshN9TtrzEz6i_22dual_core_pdf_pipeline3app3gui24default_visual_threshold
FNDA:0,_RNvNtNtCshN9TtrzEz6i_22dual_core_pdf_pipeline3app3gui27default_max_visual_attempts
FNDA:0,_RNvNtNtCshN9TtrzEz6i_22dual_core_pdf_pipeline3app3gui7run_gui
FNDA:0,_RNvNtNtCshN9TtrzEz6i_22dual_core_pdf_pipeline3app3gui9load_icon
FNDA:0,_RNvXNtNtCshN9TtrzEz6i_22dual_core_pdf_pipeline3app3guiNtB2_11AppSettingsNtNtCsaNl6UpbT7bw_4core7default7Default7default
FNDA:0,_RNvXs0_NtNtCshN9TtrzEz6i_22dual_core_pdf_pipeline3app3guiNtB5_5MyAppNtNtCsbbt3wsBKW5l_6eframe3epi3App6update
FNDA:24,_RNCNvMs2_NtNtCshN9TtrzEz6i_22dual_core_pdf_pipeline3app3guiNtB7_5MyApp11draw_toasts0Bb_
FNDA:0,_RNCNvMs2_NtNtCshN9TtrzEz6i_22dual_core_pdf_pipeline3app3guiNtB7_5MyApp11draw_toastss0_0Bb_
FNDA:24,_RNCNCNCNCNCNvMs2_NtNtCshN9TtrzEz6i_22dual_core_pdf_pipeline3app3guiNtBf_5MyApp11draw_toastss_00000Bj_
FNDA:0,_RNCNCNCNCNCNvMs2_NtNtCshN9TtrzEz6i_22dual_core_pdf_pipeline3app3guiNtBf_5MyApp18draw_central_panel0s_0s5_000Bj_
FNDA:0,_RNCNCNCNCNCNvMs2_NtNtCshN9TtrzEz6i_22dual_core_pdf_pipeline3app3guiNtBf_5MyApp18draw_central_panel0s_0s5_00s_0Bj_
FNDA:24,_RNCNCNCNCNvMs2_NtNtCshN9TtrzEz6i_22dual_core_pdf_pipeline3app3guiNtBd_5MyApp11draw_toastss_0000Bh_
FNDA:14,_RNCNCNCNCNvMs2_NtNtCshN9TtrzEz6i_22dual_core_pdf_pipeline3app3guiNtBd_5MyApp17draw_empty_canvas0000Bh_
FNDA:0,_RNCNCNCNCNvMs2_NtNtCshN9TtrzEz6i_22dual_core_pdf_pipeline3app3guiNtBd_5MyApp18draw_central_panel0s_0s5_00Bh_
FNDA:6,_RNCNCNCNvMs2_NtNtCshN9TtrzEz6i_22dual_core_pdf_pipeline3app3guiNtBb_5MyApp18draw_central_panel0s0_00Bf_
FNDA:0,_RNCNCNCNvMs2_NtNtCshN9TtrzEz6i_22dual_core_pdf_pipeline3app3guiNtBb_5MyApp18draw_central_panel0s_0s0_0Bf_
FNDA:0,_RNCNCNCNvMs2_NtNtCshN9TtrzEz6i_22dual_core_pdf_pipeline3app3guiNtBb_5MyApp18draw_central_panel0s_0s1_0Bf_
FNDA:0,_RNCNCNCNvMs2_NtNtCshN9TtrzEz6i_22dual_core_pdf_pipeline3app3guiNtBb_5MyApp18draw_central_panel0s_0s2_0Bf_
FNDA:0,_RNCNCNCNvMs2_NtNtCshN9TtrzEz6i_22dual_core_pdf_pipeline3app3guiNtBb_5MyApp18draw_central_panel0s_0s3_0Bf_
FNDA:0,_RNCNCNCNvMs2_NtNtCshN9TtrzEz6i_22dual_core_pdf_pipeline3app3guiNtBb_5MyApp18draw_central_panel0s_0s4_0Bf_
FNDA:1,_RNCNCNCNvMs2_NtNtCshN9TtrzEz6i_22dual_core_pdf_pipeline3app3guiNtBb_5MyApp22draw_transfer_workflow000Bf_
FNDA:1,_RNCNCNCNvMs2_NtNtCshN9TtrzEz6i_22dual_core_pdf_pipeline3app3guiNtBb_5MyApp22draw_transfer_workflow00s_0Bf_
FNDA:1,_RNCNCNCNvMs2_NtNtCshN9TtrzEz6i_22dual_core_pdf_pipeline3app3guiNtBb_5MyApp27draw_agent_command_workflow0s0_00Bf_
FNDA:1,_RNCNCNCNvMs2_NtNtCshN9TtrzEz6i_22dual_core_pdf_pipeline3app3guiNtBb_5MyApp27draw_agent_command_workflow0s_00Bf_
FNDA:4,_RNCNCNvMs1_NtNtCshN9TtrzEz6i_22dual_core_pdf_pipeline3app3guiNtB9_5MyApp15headless_update00Bd_
FNDA:58,_RNCNCNvMs2_NtNtCshN9TtrzEz6i_22dual_core_pdf_pipeline3app3guiNtB9_5MyApp18draw_central_panel0s_0Bd_
FNDA:1,_RNCNCNvMs2_NtNtCshN9TtrzEz6i_22dual_core_pdf_pipeline3app3guiNtB9_5MyApp27draw_agent_command_workflow0s_0Bd_
FNDA:0,_RNCNCNvMs2_NtNtCshN9TtrzEz6i_22dual_core_pdf_pipeline3app3guiNtB9_5MyApp28draw_edit_statement_workflows_00Bd_
FNDA:58,_RNCNCNvMs2_NtNtCshN9TtrzEz6i_22dual_core_pdf_pipeline3app3guiNtB9_5MyApp18draw_central_panel0s0_0Bd_
FNDA:4,_RNCNvMs1_NtNtCshN9TtrzEz6i_22dual_core_pdf_pipeline3app3guiNtB7_5MyApp15headless_update0Bb_
FNDA:24,_RNCNvMs2_NtNtCshN9TtrzEz6i_22dual_core_pdf_pipeline3app3guiNtB7_5MyApp11draw_toastss_0Bb_
FNDA:44,_RNCNCNCNCNCNvMs2_NtNtCshN9TtrzEz6i_22dual_core_pdf_pipeline3app3guiNtBf_5MyApp28draw_edit_statement_workflow00s_000Bj_
FNDA:44,_RNCNCNCNCNvMs2_NtNtCshN9TtrzEz6i_22dual_core_pdf_pipeline3app3guiNtBd_5MyApp28draw_edit_statement_workflow00s_00Bh_
FNDA:1,_RNCNCNCNvMs2_NtNtCshN9TtrzEz6i_22dual_core_pdf_pipeline3app3guiNtBb_5MyApp22draw_settings_workflow000Bf_
FNDA:1,_RNCNCNCNvMs2_NtNtCshN9TtrzEz6i_22dual_core_pdf_pipeline3app3guiNtBb_5MyApp22draw_transfer_workflow0s0_00Bf_
FNDA:0,_RNCNCNvMs2_NtNtCshN9TtrzEz6i_22dual_core_pdf_pipeline3app3guiNtB9_5MyApp21draw_workflow_section0s2_0Bd_
FNDA:13,_RNCNCNvMs2_NtNtCshN9TtrzEz6i_22dual_core_pdf_pipeline3app3guiNtB9_5MyApp22draw_api_keys_workflow00Bd_
FNDA:1,_RNCNCNvMs2_NtNtCshN9TtrzEz6i_22dual_core_pdf_pipeline3app3guiNtB9_5MyApp22draw_settings_workflow00Bd_
FNDA:1,_RNCNCNvMs2_NtNtCshN9TtrzEz6i_22dual_core_pdf_pipeline3app3guiNtB9_5MyApp22draw_transfer_workflow0s0_0Bd_
FNDA:0,_RNCNCNvMs2_NtNtCshN9TtrzEz6i_22dual_core_pdf_pipeline3app3guiNtB9_5MyApp26draw_font_analysis_sections_0s_0Bd_
FNDA:1,_RNCNCNvMs2_NtNtCshN9TtrzEz6i_22dual_core_pdf_pipeline3app3guiNtB9_5MyApp27draw_agent_command_workflow0s0_0Bd_
FNDA:0,_RNCNvMs2_NtNtCshN9TtrzEz6i_22dual_core_pdf_pipeline3app3guiNtB7_5MyApp24draw_workflow_edit_tables_0Bb_
FNDA:22,_RNCNCNvMs1_NtNtCshN9TtrzEz6i_22dual_core_pdf_pipeline3app3guiNtB9_5MyApp15headless_updates7_00Bd_
FNDA:22,_RNCNCNvMs1_NtNtCshN9TtrzEz6i_22dual_core_pdf_pipeline3app3guiNtB9_5MyApp15headless_updates7_0s_0Bd_
FNDA:22,_RNCNvMs1_NtNtCshN9TtrzEz6i_22dual_core_pdf_pipeline3app3guiNtB7_5MyApp15headless_updates7_0Bb_
FNDA:0,_RNCNvMs2_NtNtCshN9TtrzEz6i_22dual_core_pdf_pipeline3app3guiNtB7_5MyApp17handle_job_results_0Bb_
FNDA:0,_RNCNCNCNCNCNCNvMs2_NtNtCshN9TtrzEz6i_22dual_core_pdf_pipeline3app3guiNtBh_5MyApp18draw_central_panel0s0_0000s_0Bl_
FNDA:0,_RNCNCNCNCNCNCNvMs2_NtNtCshN9TtrzEz6i_22dual_core_pdf_pipeline3app3guiNtBh_5MyApp18draw_central_panel0s_0s5_0000Bl_
FNDA:0,_RNCNCNCNCNCNvMs2_NtNtCshN9TtrzEz6i_22dual_core_pdf_pipeline3app3guiNtBf_5MyApp18draw_central_panel0s0_0000Bj_
FNDA:6,_RNCNCNCNCNCNvMs2_NtNtCshN9TtrzEz6i_22dual_core_pdf_pipeline3app3guiNtBf_5MyApp18draw_central_panel0s0_000s_0Bj_
FNDA:6,_RNCNCNCNCNvMs2_NtNtCshN9TtrzEz6i_22dual_core_pdf_pipeline3app3guiNtBd_5MyApp18draw_central_panel0s0_000Bh_
FNDA:1,_RNCNCNCNCNvMs2_NtNtCshN9TtrzEz6i_22dual_core_pdf_pipeline3app3guiNtBd_5MyApp22draw_transfer_workflow0000Bh_
FNDA:1,_RNCNCNCNCNvMs2_NtNtCshN9TtrzEz6i_22dual_core_pdf_pipeline3app3guiNtBd_5MyApp22draw_transfer_workflow00s_00Bh_
FNDA:14,_RNCNCNCNCNvMs2_NtNtCshN9TtrzEz6i_22dual_core_pdf_pipeline3app3guiNtBd_5MyApp28draw_edit_statement_workflow0000Bh_
FNDA:4,_RNCNCNCNvMs1_NtNtCshN9TtrzEz6i_22dual_core_pdf_pipeline3app3guiNtBb_5MyApp15headless_update000Bf_
FNDA:24,_RNCNCNCNvMs2_NtNtCshN9TtrzEz6i_22dual_core_pdf_pipeline3app3guiNtBb_5MyApp11draw_toastss_000Bf_
FNDA:76,_RNCNCNCNvMs2_NtNtCshN9TtrzEz6i_22dual_core_pdf_pipeline3app3guiNtBb_5MyApp15draw_status_bar0s_00Bf_
FNDA:14,_RNCNCNCNvMs2_NtNtCshN9TtrzEz6i_22dual_core_pdf_pipeline3app3guiNtBb_5MyApp17draw_empty_canvas000Bf_
FNDA:44,_RNCNCNCNvMs2_NtNtCshN9TtrzEz6i_22dual_core_pdf_pipeline3app3guiNtBb_5MyApp17draw_empty_canvass_000Bf_
FNDA:0,_RNCNCNCNvMs2_NtNtCshN9TtrzEz6i_22dual_core_pdf_pipeline3app3guiNtBb_5MyApp24draw_workflow_edit_tables_0s_00Bf_
FNDA:0,_RNCNCNCNvMs2_NtNtCshN9TtrzEz6i_22dual_core_pdf_pipeline3app3guiNtBb_5MyApp26draw_font_analysis_sections_0s_0s_0Bf_
FNDA:14,_RNCNCNCNvMs2_NtNtCshN9TtrzEz6i_22dual_core_pdf_pipeline3app3guiNtBb_5MyApp28draw_edit_statement_workflow000Bf_
FNDA:58,_RNCNCNCNvMs2_NtNtCshN9TtrzEz6i_22dual_core_pdf_pipeline3app3guiNtBb_5MyApp28draw_edit_statement_workflow00s0_0Bf_
